ARM GAS  /cygdrive/c/Users/Chris/AppData/Local/Temp/ccdmRcGc.s 			page 1


   1              		.cpu arm7tdmi
   2              		.fpu softvfp
   3              		.eabi_attribute 20, 1
   4              		.eabi_attribute 21, 1
   5              		.eabi_attribute 23, 3
   6              		.eabi_attribute 24, 1
   7              		.eabi_attribute 25, 1
   8              		.eabi_attribute 26, 1
   9              		.eabi_attribute 30, 4
  10              		.eabi_attribute 18, 4
  11              		.file	"armVIC.c"
  12              		.section	.debug_abbrev,"",%progbits
  13              	.Ldebug_abbrev0:
  14              		.section	.debug_info,"",%progbits
  15              	.Ldebug_info0:
  16              		.section	.debug_line,"",%progbits
  17              	.Ldebug_line0:
  18 0000 BB000000 		.text
  18      02001F00 
  18      00000201 
  18      FB0E0D00 
  18      01010101 
  19              	.Ltext0:
  20              		.section	.text.__get_cpsr,"ax",%progbits
  21              		.align	2
  22              		.type	__get_cpsr, %function
  23              	__get_cpsr:
  24              	.LFB2:
  25              		.file 1 "armVIC.c"
   1:armVIC.c      **** /******************************************************************************
   2:armVIC.c      ****  *
   3:armVIC.c      ****  * $RCSfile: $
   4:armVIC.c      ****  * $Revision: $
   5:armVIC.c      ****  *
   6:armVIC.c      ****  * This module provides the interface routines for setting up and
   7:armVIC.c      ****  * controlling the various interrupt modes present on the ARM processor.
   8:armVIC.c      ****  * Copyright 2004, R O SoftWare
   9:armVIC.c      ****  * No guarantees, warrantees, or promises, implied or otherwise.
  10:armVIC.c      ****  * May be used for hobby or commercial purposes provided copyright
  11:armVIC.c      ****  * notice remains intact.
  12:armVIC.c      ****  *
  13:armVIC.c      ****  *****************************************************************************/
  14:armVIC.c      **** #include <stdint.h>
  15:armVIC.c      **** #include "types.h"
  16:armVIC.c      **** #include "armVIC.h"
  17:armVIC.c      **** 
  18:armVIC.c      **** #define IRQ_MASK 0x00000080
  19:armVIC.c      **** #define FIQ_MASK 0x00000040
  20:armVIC.c      **** #define INT_MASK (IRQ_MASK | FIQ_MASK)
  21:armVIC.c      **** 
  22:armVIC.c      **** static inline unsigned __get_cpsr(void)
  23:armVIC.c      **** {
  26              		.loc 1 23 0
  27              		@ Function supports interworking.
  28              		@ args = 0, pretend = 0, frame = 0
  29              		@ frame_needed = 0, uses_anonymous_args = 0
  30              		@ link register save eliminated.
ARM GAS  /cygdrive/c/Users/Chris/AppData/Local/Temp/ccdmRcGc.s 			page 2


  24:armVIC.c      ****   unsigned long retval;
  25:armVIC.c      ****   asm volatile (" mrs  %0, cpsr" : "=r" (retval) : /* no inputs */  );
  31              		.loc 1 25 0
  32              	@ 25 "armVIC.c" 1
  33 0000 00000FE1 		 mrs  r0, cpsr
  34              	@ 0 "" 2
  35              	.LVL0:
  36              	.LVL1:
  26:armVIC.c      ****   return retval;
  27:armVIC.c      **** }
  37              		.loc 1 27 0
  38 0004 1EFF2FE1 		bx	lr
  39              	.LFE2:
  40              		.size	__get_cpsr, .-__get_cpsr
  41              		.section	.text.__set_cpsr,"ax",%progbits
  42              		.align	2
  43              		.type	__set_cpsr, %function
  44              	__set_cpsr:
  45              	.LFB3:
  28:armVIC.c      **** 
  29:armVIC.c      **** static inline void __set_cpsr(unsigned val)
  30:armVIC.c      **** {
  46              		.loc 1 30 0
  47              		@ Function supports interworking.
  48              		@ args = 0, pretend = 0, frame = 0
  49              		@ frame_needed = 0, uses_anonymous_args = 0
  50              		@ link register save eliminated.
  51              	.LVL2:
  31:armVIC.c      ****   asm volatile (" msr  cpsr, %0" : /* no outputs */ : "r" (val)  );
  52              		.loc 1 31 0
  53              	@ 31 "armVIC.c" 1
  54 0000 00F029E1 		 msr  cpsr, r0
  55              	@ 0 "" 2
  32:armVIC.c      **** }
  56              		.loc 1 32 0
  57 0004 1EFF2FE1 		bx	lr
  58              	.LFE3:
  59              		.size	__set_cpsr, .-__set_cpsr
  60              		.section	.text.disableIRQ,"ax",%progbits
  61              		.align	2
  62              		.global	disableIRQ
  63              		.type	disableIRQ, %function
  64              	disableIRQ:
  65              	.LFB4:
  33:armVIC.c      **** 
  34:armVIC.c      **** unsigned disableIRQ(void)
  35:armVIC.c      **** {
  66              		.loc 1 35 0
  67              		@ Function supports interworking.
  68              		@ args = 0, pretend = 0, frame = 0
  69              		@ frame_needed = 0, uses_anonymous_args = 0
  70 0000 10402DE9 		stmfd	sp!, {r4, lr}
  71              	.LCFI0:
  36:armVIC.c      ****   unsigned _cpsr;
  37:armVIC.c      **** 
  38:armVIC.c      ****   _cpsr = __get_cpsr();
  72              		.loc 1 38 0
ARM GAS  /cygdrive/c/Users/Chris/AppData/Local/Temp/ccdmRcGc.s 			page 3


  73 0004 FEFFFFEB 		bl	__get_cpsr
  74 0008 0040A0E1 		mov	r4, r0
  75              	.LVL3:
  39:armVIC.c      ****   __set_cpsr(_cpsr | IRQ_MASK);
  76              		.loc 1 39 0
  77 000c 800080E3 		orr	r0, r0, #128
  78 0010 FEFFFFEB 		bl	__set_cpsr
  40:armVIC.c      ****   return _cpsr;
  41:armVIC.c      **** }
  79              		.loc 1 41 0
  80 0014 0400A0E1 		mov	r0, r4
  81 0018 1040BDE8 		ldmfd	sp!, {r4, lr}
  82 001c 1EFF2FE1 		bx	lr
  83              	.LFE4:
  84              		.size	disableIRQ, .-disableIRQ
  85              		.section	.text.restoreIRQ,"ax",%progbits
  86              		.align	2
  87              		.global	restoreIRQ
  88              		.type	restoreIRQ, %function
  89              	restoreIRQ:
  90              	.LFB5:
  42:armVIC.c      **** 
  43:armVIC.c      **** unsigned restoreIRQ(unsigned oldCPSR)
  44:armVIC.c      **** {
  91              		.loc 1 44 0
  92              		@ Function supports interworking.
  93              		@ args = 0, pretend = 0, frame = 0
  94              		@ frame_needed = 0, uses_anonymous_args = 0
  95              	.LVL4:
  96 0000 70402DE9 		stmfd	sp!, {r4, r5, r6, lr}
  97              	.LCFI1:
  98              		.loc 1 44 0
  99 0004 0040A0E1 		mov	r4, r0
  45:armVIC.c      ****   unsigned _cpsr;
  46:armVIC.c      **** 
  47:armVIC.c      ****   _cpsr = __get_cpsr();
 100              		.loc 1 47 0
 101 0008 FEFFFFEB 		bl	__get_cpsr
 102              	.LVL5:
  48:armVIC.c      ****   __set_cpsr((_cpsr & ~IRQ_MASK) | (oldCPSR & IRQ_MASK));
 103              		.loc 1 48 0
 104 000c 804004E2 		and	r4, r4, #128
 105              	.LVL6:
 106              		.loc 1 47 0
 107 0010 0050A0E1 		mov	r5, r0
 108              	.LVL7:
 109              		.loc 1 48 0
 110 0014 8000C0E3 		bic	r0, r0, #128
 111 0018 000084E1 		orr	r0, r4, r0
 112 001c FEFFFFEB 		bl	__set_cpsr
  49:armVIC.c      ****   return _cpsr;
  50:armVIC.c      **** }
 113              		.loc 1 50 0
 114 0020 0500A0E1 		mov	r0, r5
 115 0024 7040BDE8 		ldmfd	sp!, {r4, r5, r6, lr}
 116 0028 1EFF2FE1 		bx	lr
 117              	.LFE5:
ARM GAS  /cygdrive/c/Users/Chris/AppData/Local/Temp/ccdmRcGc.s 			page 4


 118              		.size	restoreIRQ, .-restoreIRQ
 119              		.section	.text.enableIRQ,"ax",%progbits
 120              		.align	2
 121              		.global	enableIRQ
 122              		.type	enableIRQ, %function
 123              	enableIRQ:
 124              	.LFB6:
  51:armVIC.c      **** 
  52:armVIC.c      **** unsigned enableIRQ(void)
  53:armVIC.c      **** {
 125              		.loc 1 53 0
 126              		@ Function supports interworking.
 127              		@ args = 0, pretend = 0, frame = 0
 128              		@ frame_needed = 0, uses_anonymous_args = 0
 129 0000 10402DE9 		stmfd	sp!, {r4, lr}
 130              	.LCFI2:
  54:armVIC.c      ****   unsigned _cpsr;
  55:armVIC.c      **** 
  56:armVIC.c      ****   _cpsr = __get_cpsr();
 131              		.loc 1 56 0
 132 0004 FEFFFFEB 		bl	__get_cpsr
 133 0008 0040A0E1 		mov	r4, r0
 134              	.LVL8:
  57:armVIC.c      ****   __set_cpsr(_cpsr & ~IRQ_MASK);
 135              		.loc 1 57 0
 136 000c 8000C0E3 		bic	r0, r0, #128
 137 0010 FEFFFFEB 		bl	__set_cpsr
  58:armVIC.c      ****   return _cpsr;
  59:armVIC.c      **** }
 138              		.loc 1 59 0
 139 0014 0400A0E1 		mov	r0, r4
 140 0018 1040BDE8 		ldmfd	sp!, {r4, lr}
 141 001c 1EFF2FE1 		bx	lr
 142              	.LFE6:
 143              		.size	enableIRQ, .-enableIRQ
 144              		.section	.text.disableFIQ,"ax",%progbits
 145              		.align	2
 146              		.global	disableFIQ
 147              		.type	disableFIQ, %function
 148              	disableFIQ:
 149              	.LFB7:
  60:armVIC.c      **** 
  61:armVIC.c      **** unsigned disableFIQ(void)
  62:armVIC.c      **** {
 150              		.loc 1 62 0
 151              		@ Function supports interworking.
 152              		@ args = 0, pretend = 0, frame = 0
 153              		@ frame_needed = 0, uses_anonymous_args = 0
 154 0000 10402DE9 		stmfd	sp!, {r4, lr}
 155              	.LCFI3:
  63:armVIC.c      ****   unsigned _cpsr;
  64:armVIC.c      **** 
  65:armVIC.c      ****   _cpsr = __get_cpsr();
 156              		.loc 1 65 0
 157 0004 FEFFFFEB 		bl	__get_cpsr
 158 0008 0040A0E1 		mov	r4, r0
 159              	.LVL9:
ARM GAS  /cygdrive/c/Users/Chris/AppData/Local/Temp/ccdmRcGc.s 			page 5


  66:armVIC.c      ****   __set_cpsr(_cpsr | FIQ_MASK);
 160              		.loc 1 66 0
 161 000c 400080E3 		orr	r0, r0, #64
 162 0010 FEFFFFEB 		bl	__set_cpsr
  67:armVIC.c      ****   return _cpsr;
  68:armVIC.c      **** }
 163              		.loc 1 68 0
 164 0014 0400A0E1 		mov	r0, r4
 165 0018 1040BDE8 		ldmfd	sp!, {r4, lr}
 166 001c 1EFF2FE1 		bx	lr
 167              	.LFE7:
 168              		.size	disableFIQ, .-disableFIQ
 169              		.section	.text.restoreFIQ,"ax",%progbits
 170              		.align	2
 171              		.global	restoreFIQ
 172              		.type	restoreFIQ, %function
 173              	restoreFIQ:
 174              	.LFB8:
  69:armVIC.c      **** 
  70:armVIC.c      **** unsigned restoreFIQ(unsigned oldCPSR)
  71:armVIC.c      **** {
 175              		.loc 1 71 0
 176              		@ Function supports interworking.
 177              		@ args = 0, pretend = 0, frame = 0
 178              		@ frame_needed = 0, uses_anonymous_args = 0
 179              	.LVL10:
 180 0000 70402DE9 		stmfd	sp!, {r4, r5, r6, lr}
 181              	.LCFI4:
 182              		.loc 1 71 0
 183 0004 0040A0E1 		mov	r4, r0
  72:armVIC.c      ****   unsigned _cpsr;
  73:armVIC.c      **** 
  74:armVIC.c      ****   _cpsr = __get_cpsr();
 184              		.loc 1 74 0
 185 0008 FEFFFFEB 		bl	__get_cpsr
 186              	.LVL11:
  75:armVIC.c      ****   __set_cpsr((_cpsr & ~FIQ_MASK) | (oldCPSR & FIQ_MASK));
 187              		.loc 1 75 0
 188 000c 404004E2 		and	r4, r4, #64
 189              	.LVL12:
 190              		.loc 1 74 0
 191 0010 0050A0E1 		mov	r5, r0
 192              	.LVL13:
 193              		.loc 1 75 0
 194 0014 4000C0E3 		bic	r0, r0, #64
 195 0018 000084E1 		orr	r0, r4, r0
 196 001c FEFFFFEB 		bl	__set_cpsr
  76:armVIC.c      ****   return _cpsr;
  77:armVIC.c      **** }
 197              		.loc 1 77 0
 198 0020 0500A0E1 		mov	r0, r5
 199 0024 7040BDE8 		ldmfd	sp!, {r4, r5, r6, lr}
 200 0028 1EFF2FE1 		bx	lr
 201              	.LFE8:
 202              		.size	restoreFIQ, .-restoreFIQ
 203              		.section	.text.enableFIQ,"ax",%progbits
 204              		.align	2
ARM GAS  /cygdrive/c/Users/Chris/AppData/Local/Temp/ccdmRcGc.s 			page 6


 205              		.global	enableFIQ
 206              		.type	enableFIQ, %function
 207              	enableFIQ:
 208              	.LFB9:
  78:armVIC.c      **** 
  79:armVIC.c      **** unsigned enableFIQ(void)
  80:armVIC.c      **** {
 209              		.loc 1 80 0
 210              		@ Function supports interworking.
 211              		@ args = 0, pretend = 0, frame = 0
 212              		@ frame_needed = 0, uses_anonymous_args = 0
 213 0000 10402DE9 		stmfd	sp!, {r4, lr}
 214              	.LCFI5:
  81:armVIC.c      ****   unsigned _cpsr;
  82:armVIC.c      **** 
  83:armVIC.c      ****   _cpsr = __get_cpsr();
 215              		.loc 1 83 0
 216 0004 FEFFFFEB 		bl	__get_cpsr
 217 0008 0040A0E1 		mov	r4, r0
 218              	.LVL14:
  84:armVIC.c      ****   __set_cpsr(_cpsr & ~FIQ_MASK);
 219              		.loc 1 84 0
 220 000c 4000C0E3 		bic	r0, r0, #64
 221 0010 FEFFFFEB 		bl	__set_cpsr
  85:armVIC.c      ****   return _cpsr;
  86:armVIC.c      **** }
 222              		.loc 1 86 0
 223 0014 0400A0E1 		mov	r0, r4
 224 0018 1040BDE8 		ldmfd	sp!, {r4, lr}
 225 001c 1EFF2FE1 		bx	lr
 226              	.LFE9:
 227              		.size	enableFIQ, .-enableFIQ
 228              		.section	.debug_frame,"",%progbits
 229              	.Lframe0:
 230 0000 0C000000 		.4byte	.LECIE0-.LSCIE0
 231              	.LSCIE0:
 232 0004 FFFFFFFF 		.4byte	0xffffffff
 233 0008 01       		.byte	0x1
 234 0009 00       		.ascii	"\000"
 235 000a 01       		.uleb128 0x1
 236 000b 7C       		.sleb128 -4
 237 000c 0E       		.byte	0xe
 238 000d 0C       		.byte	0xc
 239 000e 0D       		.uleb128 0xd
 240 000f 00       		.uleb128 0x0
 241              		.align	2
 242              	.LECIE0:
 243              	.LSFDE0:
 244 0010 0C000000 		.4byte	.LEFDE0-.LASFDE0
 245              	.LASFDE0:
 246 0014 00000000 		.4byte	.Lframe0
 247 0018 00000000 		.4byte	.LFB2
 248 001c 08000000 		.4byte	.LFE2-.LFB2
 249              		.align	2
 250              	.LEFDE0:
 251              	.LSFDE2:
 252 0020 0C000000 		.4byte	.LEFDE2-.LASFDE2
ARM GAS  /cygdrive/c/Users/Chris/AppData/Local/Temp/ccdmRcGc.s 			page 7


 253              	.LASFDE2:
 254 0024 00000000 		.4byte	.Lframe0
 255 0028 00000000 		.4byte	.LFB3
 256 002c 08000000 		.4byte	.LFE3-.LFB3
 257              		.align	2
 258              	.LEFDE2:
 259              	.LSFDE4:
 260 0030 14000000 		.4byte	.LEFDE4-.LASFDE4
 261              	.LASFDE4:
 262 0034 00000000 		.4byte	.Lframe0
 263 0038 00000000 		.4byte	.LFB4
 264 003c 20000000 		.4byte	.LFE4-.LFB4
 265 0040 44       		.byte	0x4
 266              		.4byte	.LCFI0-.LFB4
 267 0041 0E       		.byte	0xe
 268 0042 08       		.uleb128 0x8
 269 0043 8E       		.byte	0x8e
 270 0044 01       		.uleb128 0x1
 271 0045 84       		.byte	0x84
 272 0046 02       		.uleb128 0x2
 273 0047 00       		.align	2
 274              	.LEFDE4:
 275              	.LSFDE6:
 276 0048 18000000 		.4byte	.LEFDE6-.LASFDE6
 277              	.LASFDE6:
 278 004c 00000000 		.4byte	.Lframe0
 279 0050 00000000 		.4byte	.LFB5
 280 0054 2C000000 		.4byte	.LFE5-.LFB5
 281 0058 44       		.byte	0x4
 282              		.4byte	.LCFI1-.LFB5
 283 0059 0E       		.byte	0xe
 284 005a 10       		.uleb128 0x10
 285 005b 8E       		.byte	0x8e
 286 005c 01       		.uleb128 0x1
 287 005d 86       		.byte	0x86
 288 005e 02       		.uleb128 0x2
 289 005f 85       		.byte	0x85
 290 0060 03       		.uleb128 0x3
 291 0061 84       		.byte	0x84
 292 0062 04       		.uleb128 0x4
 293 0063 00       		.align	2
 294              	.LEFDE6:
 295              	.LSFDE8:
 296 0064 14000000 		.4byte	.LEFDE8-.LASFDE8
 297              	.LASFDE8:
 298 0068 00000000 		.4byte	.Lframe0
 299 006c 00000000 		.4byte	.LFB6
 300 0070 20000000 		.4byte	.LFE6-.LFB6
 301 0074 44       		.byte	0x4
 302              		.4byte	.LCFI2-.LFB6
 303 0075 0E       		.byte	0xe
 304 0076 08       		.uleb128 0x8
 305 0077 8E       		.byte	0x8e
 306 0078 01       		.uleb128 0x1
 307 0079 84       		.byte	0x84
 308 007a 02       		.uleb128 0x2
 309 007b 00       		.align	2
ARM GAS  /cygdrive/c/Users/Chris/AppData/Local/Temp/ccdmRcGc.s 			page 8


 310              	.LEFDE8:
 311              	.LSFDE10:
 312 007c 14000000 		.4byte	.LEFDE10-.LASFDE10
 313              	.LASFDE10:
 314 0080 00000000 		.4byte	.Lframe0
 315 0084 00000000 		.4byte	.LFB7
 316 0088 20000000 		.4byte	.LFE7-.LFB7
 317 008c 44       		.byte	0x4
 318              		.4byte	.LCFI3-.LFB7
 319 008d 0E       		.byte	0xe
 320 008e 08       		.uleb128 0x8
 321 008f 8E       		.byte	0x8e
 322 0090 01       		.uleb128 0x1
 323 0091 84       		.byte	0x84
 324 0092 02       		.uleb128 0x2
 325 0093 00       		.align	2
 326              	.LEFDE10:
 327              	.LSFDE12:
 328 0094 18000000 		.4byte	.LEFDE12-.LASFDE12
 329              	.LASFDE12:
 330 0098 00000000 		.4byte	.Lframe0
 331 009c 00000000 		.4byte	.LFB8
 332 00a0 2C000000 		.4byte	.LFE8-.LFB8
 333 00a4 44       		.byte	0x4
 334              		.4byte	.LCFI4-.LFB8
 335 00a5 0E       		.byte	0xe
 336 00a6 10       		.uleb128 0x10
 337 00a7 8E       		.byte	0x8e
 338 00a8 01       		.uleb128 0x1
 339 00a9 86       		.byte	0x86
 340 00aa 02       		.uleb128 0x2
 341 00ab 85       		.byte	0x85
 342 00ac 03       		.uleb128 0x3
 343 00ad 84       		.byte	0x84
 344 00ae 04       		.uleb128 0x4
 345 00af 00       		.align	2
 346              	.LEFDE12:
 347              	.LSFDE14:
 348 00b0 14000000 		.4byte	.LEFDE14-.LASFDE14
 349              	.LASFDE14:
 350 00b4 00000000 		.4byte	.Lframe0
 351 00b8 00000000 		.4byte	.LFB9
 352 00bc 20000000 		.4byte	.LFE9-.LFB9
 353 00c0 44       		.byte	0x4
 354              		.4byte	.LCFI5-.LFB9
 355 00c1 0E       		.byte	0xe
 356 00c2 08       		.uleb128 0x8
 357 00c3 8E       		.byte	0x8e
 358 00c4 01       		.uleb128 0x1
 359 00c5 84       		.byte	0x84
 360 00c6 02       		.uleb128 0x2
 361 00c7 00       		.align	2
 362              	.LEFDE14:
 363              		.text
 364              	.Letext0:
 365              		.section	.debug_loc,"",%progbits
 366              	.Ldebug_loc0:
ARM GAS  /cygdrive/c/Users/Chris/AppData/Local/Temp/ccdmRcGc.s 			page 9


 367              	.LLST1:
 368 0000 04000000 		.4byte	.LVL0
 369 0004 04000000 		.4byte	.LVL1
 370 0008 0100     		.2byte	0x1
 371 000a 50       		.byte	0x50
 372 000b 00000000 		.4byte	0x0
 373 000f 00000000 		.4byte	0x0
 374              	.LLST3:
 375 0013 00000000 		.4byte	.LFB4
 376 0017 04000000 		.4byte	.LCFI0
 377 001b 0100     		.2byte	0x1
 378 001d 5D       		.byte	0x5d
 379 001e 04000000 		.4byte	.LCFI0
 380 0022 20000000 		.4byte	.LFE4
 381 0026 0200     		.2byte	0x2
 382 0028 7D       		.byte	0x7d
 383 0029 08       		.sleb128 8
 384 002a 00000000 		.4byte	0x0
 385 002e 00000000 		.4byte	0x0
 386              	.LLST4:
 387 0032 00000000 		.4byte	.LFB5
 388 0036 04000000 		.4byte	.LCFI1
 389 003a 0100     		.2byte	0x1
 390 003c 5D       		.byte	0x5d
 391 003d 04000000 		.4byte	.LCFI1
 392 0041 2C000000 		.4byte	.LFE5
 393 0045 0200     		.2byte	0x2
 394 0047 7D       		.byte	0x7d
 395 0048 10       		.sleb128 16
 396 0049 00000000 		.4byte	0x0
 397 004d 00000000 		.4byte	0x0
 398              	.LLST5:
 399 0051 00000000 		.4byte	.LVL4
 400 0055 0C000000 		.4byte	.LVL5
 401 0059 0100     		.2byte	0x1
 402 005b 50       		.byte	0x50
 403 005c 0C000000 		.4byte	.LVL5
 404 0060 10000000 		.4byte	.LVL6
 405 0064 0100     		.2byte	0x1
 406 0066 54       		.byte	0x54
 407 0067 00000000 		.4byte	0x0
 408 006b 00000000 		.4byte	0x0
 409              	.LLST6:
 410 006f 00000000 		.4byte	.LFB6
 411 0073 04000000 		.4byte	.LCFI2
 412 0077 0100     		.2byte	0x1
 413 0079 5D       		.byte	0x5d
 414 007a 04000000 		.4byte	.LCFI2
 415 007e 20000000 		.4byte	.LFE6
 416 0082 0200     		.2byte	0x2
 417 0084 7D       		.byte	0x7d
 418 0085 08       		.sleb128 8
 419 0086 00000000 		.4byte	0x0
 420 008a 00000000 		.4byte	0x0
 421              	.LLST7:
 422 008e 00000000 		.4byte	.LFB7
 423 0092 04000000 		.4byte	.LCFI3
ARM GAS  /cygdrive/c/Users/Chris/AppData/Local/Temp/ccdmRcGc.s 			page 10


 424 0096 0100     		.2byte	0x1
 425 0098 5D       		.byte	0x5d
 426 0099 04000000 		.4byte	.LCFI3
 427 009d 20000000 		.4byte	.LFE7
 428 00a1 0200     		.2byte	0x2
 429 00a3 7D       		.byte	0x7d
 430 00a4 08       		.sleb128 8
 431 00a5 00000000 		.4byte	0x0
 432 00a9 00000000 		.4byte	0x0
 433              	.LLST8:
 434 00ad 00000000 		.4byte	.LFB8
 435 00b1 04000000 		.4byte	.LCFI4
 436 00b5 0100     		.2byte	0x1
 437 00b7 5D       		.byte	0x5d
 438 00b8 04000000 		.4byte	.LCFI4
 439 00bc 2C000000 		.4byte	.LFE8
 440 00c0 0200     		.2byte	0x2
 441 00c2 7D       		.byte	0x7d
 442 00c3 10       		.sleb128 16
 443 00c4 00000000 		.4byte	0x0
 444 00c8 00000000 		.4byte	0x0
 445              	.LLST9:
 446 00cc 00000000 		.4byte	.LVL10
 447 00d0 0C000000 		.4byte	.LVL11
 448 00d4 0100     		.2byte	0x1
 449 00d6 50       		.byte	0x50
 450 00d7 0C000000 		.4byte	.LVL11
 451 00db 10000000 		.4byte	.LVL12
 452 00df 0100     		.2byte	0x1
 453 00e1 54       		.byte	0x54
 454 00e2 00000000 		.4byte	0x0
 455 00e6 00000000 		.4byte	0x0
 456              	.LLST10:
 457 00ea 00000000 		.4byte	.LFB9
 458 00ee 04000000 		.4byte	.LCFI5
 459 00f2 0100     		.2byte	0x1
 460 00f4 5D       		.byte	0x5d
 461 00f5 04000000 		.4byte	.LCFI5
 462 00f9 20000000 		.4byte	.LFE9
 463 00fd 0200     		.2byte	0x2
 464 00ff 7D       		.byte	0x7d
 465 0100 08       		.sleb128 8
 466 0101 00000000 		.4byte	0x0
 467 0105 00000000 		.4byte	0x0
 468              		.section	.debug_info
 469 0000 D6010000 		.4byte	0x1d6
 470 0004 0200     		.2byte	0x2
 471 0006 00000000 		.4byte	.Ldebug_abbrev0
 472 000a 04       		.byte	0x4
 473 000b 01       		.uleb128 0x1
 474 000c 5B000000 		.4byte	.LASF17
 475 0010 01       		.byte	0x1
 476 0011 67000000 		.4byte	.LASF18
 477 0015 E5000000 		.4byte	.LASF19
 478 0019 00000000 		.4byte	0x0
 479 001d 00000000 		.4byte	0x0
 480 0021 00000000 		.4byte	.Ldebug_ranges0+0x0
ARM GAS  /cygdrive/c/Users/Chris/AppData/Local/Temp/ccdmRcGc.s 			page 11


 481 0025 00000000 		.4byte	.Ldebug_line0
 482 0029 02       		.uleb128 0x2
 483 002a 01       		.byte	0x1
 484 002b 06       		.byte	0x6
 485 002c 21010000 		.4byte	.LASF0
 486 0030 02       		.uleb128 0x2
 487 0031 01       		.byte	0x1
 488 0032 08       		.byte	0x8
 489 0033 21000000 		.4byte	.LASF1
 490 0037 02       		.uleb128 0x2
 491 0038 02       		.byte	0x2
 492 0039 05       		.byte	0x5
 493 003a D3000000 		.4byte	.LASF2
 494 003e 02       		.uleb128 0x2
 495 003f 02       		.byte	0x2
 496 0040 07       		.byte	0x7
 497 0041 48000000 		.4byte	.LASF3
 498 0045 02       		.uleb128 0x2
 499 0046 04       		.byte	0x4
 500 0047 05       		.byte	0x5
 501 0048 18010000 		.4byte	.LASF4
 502 004c 02       		.uleb128 0x2
 503 004d 04       		.byte	0x4
 504 004e 07       		.byte	0x7
 505 004f 36000000 		.4byte	.LASF5
 506 0053 02       		.uleb128 0x2
 507 0054 08       		.byte	0x8
 508 0055 05       		.byte	0x5
 509 0056 BA000000 		.4byte	.LASF6
 510 005a 02       		.uleb128 0x2
 511 005b 08       		.byte	0x8
 512 005c 07       		.byte	0x7
 513 005d 8E000000 		.4byte	.LASF7
 514 0061 03       		.uleb128 0x3
 515 0062 04       		.byte	0x4
 516 0063 05       		.byte	0x5
 517 0064 696E7400 		.ascii	"int\000"
 518 0068 02       		.uleb128 0x2
 519 0069 04       		.byte	0x4
 520 006a 07       		.byte	0x7
 521 006b 81000000 		.4byte	.LASF8
 522 006f 04       		.uleb128 0x4
 523 0070 C8000000 		.4byte	.LASF20
 524 0074 01       		.byte	0x1
 525 0075 17       		.byte	0x17
 526 0076 01       		.byte	0x1
 527 0077 68000000 		.4byte	0x68
 528 007b 00000000 		.4byte	.LFB2
 529 007f 08000000 		.4byte	.LFE2
 530 0083 01       		.byte	0x1
 531 0084 5D       		.byte	0x5d
 532 0085 99000000 		.4byte	0x99
 533 0089 05       		.uleb128 0x5
 534 008a 2F000000 		.4byte	.LASF9
 535 008e 01       		.byte	0x1
 536 008f 18       		.byte	0x18
 537 0090 4C000000 		.4byte	0x4c
ARM GAS  /cygdrive/c/Users/Chris/AppData/Local/Temp/ccdmRcGc.s 			page 12


 538 0094 00000000 		.4byte	.LLST1
 539 0098 00       		.byte	0x0
 540 0099 06       		.uleb128 0x6
 541 009a 76000000 		.4byte	.LASF21
 542 009e 01       		.byte	0x1
 543 009f 1E       		.byte	0x1e
 544 00a0 01       		.byte	0x1
 545 00a1 00000000 		.4byte	.LFB3
 546 00a5 08000000 		.4byte	.LFE3
 547 00a9 01       		.byte	0x1
 548 00aa 5D       		.byte	0x5d
 549 00ab BD000000 		.4byte	0xbd
 550 00af 07       		.uleb128 0x7
 551 00b0 76616C00 		.ascii	"val\000"
 552 00b4 01       		.byte	0x1
 553 00b5 1D       		.byte	0x1d
 554 00b6 68000000 		.4byte	0x68
 555 00ba 01       		.byte	0x1
 556 00bb 50       		.byte	0x50
 557 00bc 00       		.byte	0x0
 558 00bd 08       		.uleb128 0x8
 559 00be 01       		.byte	0x1
 560 00bf 0B000000 		.4byte	.LASF11
 561 00c3 01       		.byte	0x1
 562 00c4 23       		.byte	0x23
 563 00c5 01       		.byte	0x1
 564 00c6 68000000 		.4byte	0x68
 565 00ca 00000000 		.4byte	.LFB4
 566 00ce 20000000 		.4byte	.LFE4
 567 00d2 13000000 		.4byte	.LLST3
 568 00d6 E8000000 		.4byte	0xe8
 569 00da 09       		.uleb128 0x9
 570 00db 70000000 		.4byte	.LASF10
 571 00df 01       		.byte	0x1
 572 00e0 24       		.byte	0x24
 573 00e1 68000000 		.4byte	0x68
 574 00e5 01       		.byte	0x1
 575 00e6 54       		.byte	0x54
 576 00e7 00       		.byte	0x0
 577 00e8 08       		.uleb128 0x8
 578 00e9 01       		.byte	0x1
 579 00ea A5000000 		.4byte	.LASF12
 580 00ee 01       		.byte	0x1
 581 00ef 2C       		.byte	0x2c
 582 00f0 01       		.byte	0x1
 583 00f1 68000000 		.4byte	0x68
 584 00f5 00000000 		.4byte	.LFB5
 585 00f9 2C000000 		.4byte	.LFE5
 586 00fd 32000000 		.4byte	.LLST4
 587 0101 22010000 		.4byte	0x122
 588 0105 0A       		.uleb128 0xa
 589 0106 DD000000 		.4byte	.LASF13
 590 010a 01       		.byte	0x1
 591 010b 2B       		.byte	0x2b
 592 010c 68000000 		.4byte	0x68
 593 0110 51000000 		.4byte	.LLST5
 594 0114 09       		.uleb128 0x9
ARM GAS  /cygdrive/c/Users/Chris/AppData/Local/Temp/ccdmRcGc.s 			page 13


 595 0115 70000000 		.4byte	.LASF10
 596 0119 01       		.byte	0x1
 597 011a 2D       		.byte	0x2d
 598 011b 68000000 		.4byte	0x68
 599 011f 01       		.byte	0x1
 600 0120 55       		.byte	0x55
 601 0121 00       		.byte	0x0
 602 0122 08       		.uleb128 0x8
 603 0123 01       		.byte	0x1
 604 0124 B0000000 		.4byte	.LASF14
 605 0128 01       		.byte	0x1
 606 0129 35       		.byte	0x35
 607 012a 01       		.byte	0x1
 608 012b 68000000 		.4byte	0x68
 609 012f 00000000 		.4byte	.LFB6
 610 0133 20000000 		.4byte	.LFE6
 611 0137 6F000000 		.4byte	.LLST6
 612 013b 4D010000 		.4byte	0x14d
 613 013f 09       		.uleb128 0x9
 614 0140 70000000 		.4byte	.LASF10
 615 0144 01       		.byte	0x1
 616 0145 36       		.byte	0x36
 617 0146 68000000 		.4byte	0x68
 618 014a 01       		.byte	0x1
 619 014b 54       		.byte	0x54
 620 014c 00       		.byte	0x0
 621 014d 08       		.uleb128 0x8
 622 014e 01       		.byte	0x1
 623 014f 16000000 		.4byte	.LASF15
 624 0153 01       		.byte	0x1
 625 0154 3E       		.byte	0x3e
 626 0155 01       		.byte	0x1
 627 0156 68000000 		.4byte	0x68
 628 015a 00000000 		.4byte	.LFB7
 629 015e 20000000 		.4byte	.LFE7
 630 0162 8E000000 		.4byte	.LLST7
 631 0166 78010000 		.4byte	0x178
 632 016a 09       		.uleb128 0x9
 633 016b 70000000 		.4byte	.LASF10
 634 016f 01       		.byte	0x1
 635 0170 3F       		.byte	0x3f
 636 0171 68000000 		.4byte	0x68
 637 0175 01       		.byte	0x1
 638 0176 54       		.byte	0x54
 639 0177 00       		.byte	0x0
 640 0178 08       		.uleb128 0x8
 641 0179 01       		.byte	0x1
 642 017a 00000000 		.4byte	.LASF16
 643 017e 01       		.byte	0x1
 644 017f 47       		.byte	0x47
 645 0180 01       		.byte	0x1
 646 0181 68000000 		.4byte	0x68
 647 0185 00000000 		.4byte	.LFB8
 648 0189 2C000000 		.4byte	.LFE8
 649 018d AD000000 		.4byte	.LLST8
 650 0191 B2010000 		.4byte	0x1b2
 651 0195 0A       		.uleb128 0xa
ARM GAS  /cygdrive/c/Users/Chris/AppData/Local/Temp/ccdmRcGc.s 			page 14


 652 0196 DD000000 		.4byte	.LASF13
 653 019a 01       		.byte	0x1
 654 019b 46       		.byte	0x46
 655 019c 68000000 		.4byte	0x68
 656 01a0 CC000000 		.4byte	.LLST9
 657 01a4 09       		.uleb128 0x9
 658 01a5 70000000 		.4byte	.LASF10
 659 01a9 01       		.byte	0x1
 660 01aa 48       		.byte	0x48
 661 01ab 68000000 		.4byte	0x68
 662 01af 01       		.byte	0x1
 663 01b0 55       		.byte	0x55
 664 01b1 00       		.byte	0x0
 665 01b2 0B       		.uleb128 0xb
 666 01b3 01       		.byte	0x1
 667 01b4 2D010000 		.4byte	.LASF22
 668 01b8 01       		.byte	0x1
 669 01b9 50       		.byte	0x50
 670 01ba 01       		.byte	0x1
 671 01bb 68000000 		.4byte	0x68
 672 01bf 00000000 		.4byte	.LFB9
 673 01c3 20000000 		.4byte	.LFE9
 674 01c7 EA000000 		.4byte	.LLST10
 675 01cb 09       		.uleb128 0x9
 676 01cc 70000000 		.4byte	.LASF10
 677 01d0 01       		.byte	0x1
 678 01d1 51       		.byte	0x51
 679 01d2 68000000 		.4byte	0x68
 680 01d6 01       		.byte	0x1
 681 01d7 54       		.byte	0x54
 682 01d8 00       		.byte	0x0
 683 01d9 00       		.byte	0x0
 684              		.section	.debug_abbrev
 685 0000 01       		.uleb128 0x1
 686 0001 11       		.uleb128 0x11
 687 0002 01       		.byte	0x1
 688 0003 25       		.uleb128 0x25
 689 0004 0E       		.uleb128 0xe
 690 0005 13       		.uleb128 0x13
 691 0006 0B       		.uleb128 0xb
 692 0007 03       		.uleb128 0x3
 693 0008 0E       		.uleb128 0xe
 694 0009 1B       		.uleb128 0x1b
 695 000a 0E       		.uleb128 0xe
 696 000b 11       		.uleb128 0x11
 697 000c 01       		.uleb128 0x1
 698 000d 52       		.uleb128 0x52
 699 000e 01       		.uleb128 0x1
 700 000f 55       		.uleb128 0x55
 701 0010 06       		.uleb128 0x6
 702 0011 10       		.uleb128 0x10
 703 0012 06       		.uleb128 0x6
 704 0013 00       		.byte	0x0
 705 0014 00       		.byte	0x0
 706 0015 02       		.uleb128 0x2
 707 0016 24       		.uleb128 0x24
 708 0017 00       		.byte	0x0
ARM GAS  /cygdrive/c/Users/Chris/AppData/Local/Temp/ccdmRcGc.s 			page 15


 709 0018 0B       		.uleb128 0xb
 710 0019 0B       		.uleb128 0xb
 711 001a 3E       		.uleb128 0x3e
 712 001b 0B       		.uleb128 0xb
 713 001c 03       		.uleb128 0x3
 714 001d 0E       		.uleb128 0xe
 715 001e 00       		.byte	0x0
 716 001f 00       		.byte	0x0
 717 0020 03       		.uleb128 0x3
 718 0021 24       		.uleb128 0x24
 719 0022 00       		.byte	0x0
 720 0023 0B       		.uleb128 0xb
 721 0024 0B       		.uleb128 0xb
 722 0025 3E       		.uleb128 0x3e
 723 0026 0B       		.uleb128 0xb
 724 0027 03       		.uleb128 0x3
 725 0028 08       		.uleb128 0x8
 726 0029 00       		.byte	0x0
 727 002a 00       		.byte	0x0
 728 002b 04       		.uleb128 0x4
 729 002c 2E       		.uleb128 0x2e
 730 002d 01       		.byte	0x1
 731 002e 03       		.uleb128 0x3
 732 002f 0E       		.uleb128 0xe
 733 0030 3A       		.uleb128 0x3a
 734 0031 0B       		.uleb128 0xb
 735 0032 3B       		.uleb128 0x3b
 736 0033 0B       		.uleb128 0xb
 737 0034 27       		.uleb128 0x27
 738 0035 0C       		.uleb128 0xc
 739 0036 49       		.uleb128 0x49
 740 0037 13       		.uleb128 0x13
 741 0038 11       		.uleb128 0x11
 742 0039 01       		.uleb128 0x1
 743 003a 12       		.uleb128 0x12
 744 003b 01       		.uleb128 0x1
 745 003c 40       		.uleb128 0x40
 746 003d 0A       		.uleb128 0xa
 747 003e 01       		.uleb128 0x1
 748 003f 13       		.uleb128 0x13
 749 0040 00       		.byte	0x0
 750 0041 00       		.byte	0x0
 751 0042 05       		.uleb128 0x5
 752 0043 34       		.uleb128 0x34
 753 0044 00       		.byte	0x0
 754 0045 03       		.uleb128 0x3
 755 0046 0E       		.uleb128 0xe
 756 0047 3A       		.uleb128 0x3a
 757 0048 0B       		.uleb128 0xb
 758 0049 3B       		.uleb128 0x3b
 759 004a 0B       		.uleb128 0xb
 760 004b 49       		.uleb128 0x49
 761 004c 13       		.uleb128 0x13
 762 004d 02       		.uleb128 0x2
 763 004e 06       		.uleb128 0x6
 764 004f 00       		.byte	0x0
 765 0050 00       		.byte	0x0
ARM GAS  /cygdrive/c/Users/Chris/AppData/Local/Temp/ccdmRcGc.s 			page 16


 766 0051 06       		.uleb128 0x6
 767 0052 2E       		.uleb128 0x2e
 768 0053 01       		.byte	0x1
 769 0054 03       		.uleb128 0x3
 770 0055 0E       		.uleb128 0xe
 771 0056 3A       		.uleb128 0x3a
 772 0057 0B       		.uleb128 0xb
 773 0058 3B       		.uleb128 0x3b
 774 0059 0B       		.uleb128 0xb
 775 005a 27       		.uleb128 0x27
 776 005b 0C       		.uleb128 0xc
 777 005c 11       		.uleb128 0x11
 778 005d 01       		.uleb128 0x1
 779 005e 12       		.uleb128 0x12
 780 005f 01       		.uleb128 0x1
 781 0060 40       		.uleb128 0x40
 782 0061 0A       		.uleb128 0xa
 783 0062 01       		.uleb128 0x1
 784 0063 13       		.uleb128 0x13
 785 0064 00       		.byte	0x0
 786 0065 00       		.byte	0x0
 787 0066 07       		.uleb128 0x7
 788 0067 05       		.uleb128 0x5
 789 0068 00       		.byte	0x0
 790 0069 03       		.uleb128 0x3
 791 006a 08       		.uleb128 0x8
 792 006b 3A       		.uleb128 0x3a
 793 006c 0B       		.uleb128 0xb
 794 006d 3B       		.uleb128 0x3b
 795 006e 0B       		.uleb128 0xb
 796 006f 49       		.uleb128 0x49
 797 0070 13       		.uleb128 0x13
 798 0071 02       		.uleb128 0x2
 799 0072 0A       		.uleb128 0xa
 800 0073 00       		.byte	0x0
 801 0074 00       		.byte	0x0
 802 0075 08       		.uleb128 0x8
 803 0076 2E       		.uleb128 0x2e
 804 0077 01       		.byte	0x1
 805 0078 3F       		.uleb128 0x3f
 806 0079 0C       		.uleb128 0xc
 807 007a 03       		.uleb128 0x3
 808 007b 0E       		.uleb128 0xe
 809 007c 3A       		.uleb128 0x3a
 810 007d 0B       		.uleb128 0xb
 811 007e 3B       		.uleb128 0x3b
 812 007f 0B       		.uleb128 0xb
 813 0080 27       		.uleb128 0x27
 814 0081 0C       		.uleb128 0xc
 815 0082 49       		.uleb128 0x49
 816 0083 13       		.uleb128 0x13
 817 0084 11       		.uleb128 0x11
 818 0085 01       		.uleb128 0x1
 819 0086 12       		.uleb128 0x12
 820 0087 01       		.uleb128 0x1
 821 0088 40       		.uleb128 0x40
 822 0089 06       		.uleb128 0x6
ARM GAS  /cygdrive/c/Users/Chris/AppData/Local/Temp/ccdmRcGc.s 			page 17


 823 008a 01       		.uleb128 0x1
 824 008b 13       		.uleb128 0x13
 825 008c 00       		.byte	0x0
 826 008d 00       		.byte	0x0
 827 008e 09       		.uleb128 0x9
 828 008f 34       		.uleb128 0x34
 829 0090 00       		.byte	0x0
 830 0091 03       		.uleb128 0x3
 831 0092 0E       		.uleb128 0xe
 832 0093 3A       		.uleb128 0x3a
 833 0094 0B       		.uleb128 0xb
 834 0095 3B       		.uleb128 0x3b
 835 0096 0B       		.uleb128 0xb
 836 0097 49       		.uleb128 0x49
 837 0098 13       		.uleb128 0x13
 838 0099 02       		.uleb128 0x2
 839 009a 0A       		.uleb128 0xa
 840 009b 00       		.byte	0x0
 841 009c 00       		.byte	0x0
 842 009d 0A       		.uleb128 0xa
 843 009e 05       		.uleb128 0x5
 844 009f 00       		.byte	0x0
 845 00a0 03       		.uleb128 0x3
 846 00a1 0E       		.uleb128 0xe
 847 00a2 3A       		.uleb128 0x3a
 848 00a3 0B       		.uleb128 0xb
 849 00a4 3B       		.uleb128 0x3b
 850 00a5 0B       		.uleb128 0xb
 851 00a6 49       		.uleb128 0x49
 852 00a7 13       		.uleb128 0x13
 853 00a8 02       		.uleb128 0x2
 854 00a9 06       		.uleb128 0x6
 855 00aa 00       		.byte	0x0
 856 00ab 00       		.byte	0x0
 857 00ac 0B       		.uleb128 0xb
 858 00ad 2E       		.uleb128 0x2e
 859 00ae 01       		.byte	0x1
 860 00af 3F       		.uleb128 0x3f
 861 00b0 0C       		.uleb128 0xc
 862 00b1 03       		.uleb128 0x3
 863 00b2 0E       		.uleb128 0xe
 864 00b3 3A       		.uleb128 0x3a
 865 00b4 0B       		.uleb128 0xb
 866 00b5 3B       		.uleb128 0x3b
 867 00b6 0B       		.uleb128 0xb
 868 00b7 27       		.uleb128 0x27
 869 00b8 0C       		.uleb128 0xc
 870 00b9 49       		.uleb128 0x49
 871 00ba 13       		.uleb128 0x13
 872 00bb 11       		.uleb128 0x11
 873 00bc 01       		.uleb128 0x1
 874 00bd 12       		.uleb128 0x12
 875 00be 01       		.uleb128 0x1
 876 00bf 40       		.uleb128 0x40
 877 00c0 06       		.uleb128 0x6
 878 00c1 00       		.byte	0x0
 879 00c2 00       		.byte	0x0
ARM GAS  /cygdrive/c/Users/Chris/AppData/Local/Temp/ccdmRcGc.s 			page 18


 880 00c3 00       		.byte	0x0
 881              		.section	.debug_pubnames,"",%progbits
 882 0000 66000000 		.4byte	0x66
 883 0004 0200     		.2byte	0x2
 884 0006 00000000 		.4byte	.Ldebug_info0
 885 000a DA010000 		.4byte	0x1da
 886 000e BD000000 		.4byte	0xbd
 887 0012 64697361 		.ascii	"disableIRQ\000"
 887      626C6549 
 887      525100
 888 001d E8000000 		.4byte	0xe8
 889 0021 72657374 		.ascii	"restoreIRQ\000"
 889      6F726549 
 889      525100
 890 002c 22010000 		.4byte	0x122
 891 0030 656E6162 		.ascii	"enableIRQ\000"
 891      6C654952 
 891      5100
 892 003a 4D010000 		.4byte	0x14d
 893 003e 64697361 		.ascii	"disableFIQ\000"
 893      626C6546 
 893      495100
 894 0049 78010000 		.4byte	0x178
 895 004d 72657374 		.ascii	"restoreFIQ\000"
 895      6F726546 
 895      495100
 896 0058 B2010000 		.4byte	0x1b2
 897 005c 656E6162 		.ascii	"enableFIQ\000"
 897      6C654649 
 897      5100
 898 0066 00000000 		.4byte	0x0
 899              		.section	.debug_aranges,"",%progbits
 900 0000 54000000 		.4byte	0x54
 901 0004 0200     		.2byte	0x2
 902 0006 00000000 		.4byte	.Ldebug_info0
 903 000a 04       		.byte	0x4
 904 000b 00       		.byte	0x0
 905 000c 0000     		.2byte	0x0
 906 000e 0000     		.2byte	0x0
 907 0010 00000000 		.4byte	.LFB2
 908 0014 08000000 		.4byte	.LFE2-.LFB2
 909 0018 00000000 		.4byte	.LFB3
 910 001c 08000000 		.4byte	.LFE3-.LFB3
 911 0020 00000000 		.4byte	.LFB4
 912 0024 20000000 		.4byte	.LFE4-.LFB4
 913 0028 00000000 		.4byte	.LFB5
 914 002c 2C000000 		.4byte	.LFE5-.LFB5
 915 0030 00000000 		.4byte	.LFB6
 916 0034 20000000 		.4byte	.LFE6-.LFB6
 917 0038 00000000 		.4byte	.LFB7
 918 003c 20000000 		.4byte	.LFE7-.LFB7
 919 0040 00000000 		.4byte	.LFB8
 920 0044 2C000000 		.4byte	.LFE8-.LFB8
 921 0048 00000000 		.4byte	.LFB9
 922 004c 20000000 		.4byte	.LFE9-.LFB9
 923 0050 00000000 		.4byte	0x0
 924 0054 00000000 		.4byte	0x0
ARM GAS  /cygdrive/c/Users/Chris/AppData/Local/Temp/ccdmRcGc.s 			page 19


 925              		.section	.debug_ranges,"",%progbits
 926              	.Ldebug_ranges0:
 927 0000 00000000 		.4byte	.Ltext0
 928 0004 00000000 		.4byte	.Letext0
 929 0008 00000000 		.4byte	.LFB2
 930 000c 08000000 		.4byte	.LFE2
 931 0010 00000000 		.4byte	.LFB3
 932 0014 08000000 		.4byte	.LFE3
 933 0018 00000000 		.4byte	.LFB4
 934 001c 20000000 		.4byte	.LFE4
 935 0020 00000000 		.4byte	.LFB5
 936 0024 2C000000 		.4byte	.LFE5
 937 0028 00000000 		.4byte	.LFB6
 938 002c 20000000 		.4byte	.LFE6
 939 0030 00000000 		.4byte	.LFB7
 940 0034 20000000 		.4byte	.LFE7
 941 0038 00000000 		.4byte	.LFB8
 942 003c 2C000000 		.4byte	.LFE8
 943 0040 00000000 		.4byte	.LFB9
 944 0044 20000000 		.4byte	.LFE9
 945 0048 00000000 		.4byte	0x0
 946 004c 00000000 		.4byte	0x0
 947              		.section	.debug_str,"MS",%progbits,1
 948              	.LASF16:
 949 0000 72657374 		.ascii	"restoreFIQ\000"
 949      6F726546 
 949      495100
 950              	.LASF11:
 951 000b 64697361 		.ascii	"disableIRQ\000"
 951      626C6549 
 951      525100
 952              	.LASF15:
 953 0016 64697361 		.ascii	"disableFIQ\000"
 953      626C6546 
 953      495100
 954              	.LASF1:
 955 0021 756E7369 		.ascii	"unsigned char\000"
 955      676E6564 
 955      20636861 
 955      7200
 956              	.LASF9:
 957 002f 72657476 		.ascii	"retval\000"
 957      616C00
 958              	.LASF5:
 959 0036 6C6F6E67 		.ascii	"long unsigned int\000"
 959      20756E73 
 959      69676E65 
 959      6420696E 
 959      7400
 960              	.LASF3:
 961 0048 73686F72 		.ascii	"short unsigned int\000"
 961      7420756E 
 961      7369676E 
 961      65642069 
 961      6E7400
 962              	.LASF17:
 963 005b 474E5520 		.ascii	"GNU C 4.3.2\000"
ARM GAS  /cygdrive/c/Users/Chris/AppData/Local/Temp/ccdmRcGc.s 			page 20


 963      4320342E 
 963      332E3200 
 964              	.LASF18:
 965 0067 61726D56 		.ascii	"armVIC.c\000"
 965      49432E63 
 965      00
 966              	.LASF10:
 967 0070 5F637073 		.ascii	"_cpsr\000"
 967      7200
 968              	.LASF21:
 969 0076 5F5F7365 		.ascii	"__set_cpsr\000"
 969      745F6370 
 969      737200
 970              	.LASF8:
 971 0081 756E7369 		.ascii	"unsigned int\000"
 971      676E6564 
 971      20696E74 
 971      00
 972              	.LASF7:
 973 008e 6C6F6E67 		.ascii	"long long unsigned int\000"
 973      206C6F6E 
 973      6720756E 
 973      7369676E 
 973      65642069 
 974              	.LASF12:
 975 00a5 72657374 		.ascii	"restoreIRQ\000"
 975      6F726549 
 975      525100
 976              	.LASF14:
 977 00b0 656E6162 		.ascii	"enableIRQ\000"
 977      6C654952 
 977      5100
 978              	.LASF6:
 979 00ba 6C6F6E67 		.ascii	"long long int\000"
 979      206C6F6E 
 979      6720696E 
 979      7400
 980              	.LASF20:
 981 00c8 5F5F6765 		.ascii	"__get_cpsr\000"
 981      745F6370 
 981      737200
 982              	.LASF2:
 983 00d3 73686F72 		.ascii	"short int\000"
 983      7420696E 
 983      7400
 984              	.LASF13:
 985 00dd 6F6C6443 		.ascii	"oldCPSR\000"
 985      50535200 
 986              	.LASF19:
 987 00e5 2F637967 		.ascii	"/cygdrive/c/Users/Chris/Desktop/sfboot-test/sfboot\000"
 987      64726976 
 987      652F632F 
 987      55736572 
 987      732F4368 
 988              	.LASF4:
 989 0118 6C6F6E67 		.ascii	"long int\000"
 989      20696E74 
ARM GAS  /cygdrive/c/Users/Chris/AppData/Local/Temp/ccdmRcGc.s 			page 21


 989      00
 990              	.LASF0:
 991 0121 7369676E 		.ascii	"signed char\000"
 991      65642063 
 991      68617200 
 992              	.LASF22:
 993 012d 656E6162 		.ascii	"enableFIQ\000"
 993      6C654649 
 993      5100
 994              		.ident	"GCC: (AHAX Arm-Linux 2008q3-66) 4.3.2"
ARM GAS  /cygdrive/c/Users/Chris/AppData/Local/Temp/ccdmRcGc.s 			page 22


DEFINED SYMBOLS
                            *ABS*:00000000 armVIC.c
/cygdrive/c/Users/Chris/AppData/Local/Temp/ccdmRcGc.s:23     .text.__get_cpsr:00000000 __get_cpsr
/cygdrive/c/Users/Chris/AppData/Local/Temp/ccdmRcGc.s:33     .text.__get_cpsr:00000000 $a
/cygdrive/c/Users/Chris/AppData/Local/Temp/ccdmRcGc.s:44     .text.__set_cpsr:00000000 __set_cpsr
/cygdrive/c/Users/Chris/AppData/Local/Temp/ccdmRcGc.s:54     .text.__set_cpsr:00000000 $a
/cygdrive/c/Users/Chris/AppData/Local/Temp/ccdmRcGc.s:64     .text.disableIRQ:00000000 disableIRQ
/cygdrive/c/Users/Chris/AppData/Local/Temp/ccdmRcGc.s:70     .text.disableIRQ:00000000 $a
/cygdrive/c/Users/Chris/AppData/Local/Temp/ccdmRcGc.s:89     .text.restoreIRQ:00000000 restoreIRQ
/cygdrive/c/Users/Chris/AppData/Local/Temp/ccdmRcGc.s:96     .text.restoreIRQ:00000000 $a
/cygdrive/c/Users/Chris/AppData/Local/Temp/ccdmRcGc.s:123    .text.enableIRQ:00000000 enableIRQ
/cygdrive/c/Users/Chris/AppData/Local/Temp/ccdmRcGc.s:129    .text.enableIRQ:00000000 $a
/cygdrive/c/Users/Chris/AppData/Local/Temp/ccdmRcGc.s:148    .text.disableFIQ:00000000 disableFIQ
/cygdrive/c/Users/Chris/AppData/Local/Temp/ccdmRcGc.s:154    .text.disableFIQ:00000000 $a
/cygdrive/c/Users/Chris/AppData/Local/Temp/ccdmRcGc.s:173    .text.restoreFIQ:00000000 restoreFIQ
/cygdrive/c/Users/Chris/AppData/Local/Temp/ccdmRcGc.s:180    .text.restoreFIQ:00000000 $a
/cygdrive/c/Users/Chris/AppData/Local/Temp/ccdmRcGc.s:207    .text.enableFIQ:00000000 enableFIQ
/cygdrive/c/Users/Chris/AppData/Local/Temp/ccdmRcGc.s:213    .text.enableFIQ:00000000 $a
/cygdrive/c/Users/Chris/AppData/Local/Temp/ccdmRcGc.s:230    .debug_frame:00000000 $d
/cygdrive/c/Users/Chris/AppData/Local/Temp/ccdmRcGc.s:368    .debug_loc:00000000 $d

NO UNDEFINED SYMBOLS
