ARM GAS  /cygdrive/c/Users/Chris/AppData/Local/Temp/ccdmRcGc.s 			page 1


   1              		.cpu arm7tdmi
   2              		.fpu softvfp
   3              		.eabi_attribute 20, 1
   4              		.eabi_attribute 21, 1
   5              		.eabi_attribute 23, 3
   6              		.eabi_attribute 24, 1
   7              		.eabi_attribute 25, 1
   8              		.eabi_attribute 26, 1
   9              		.eabi_attribute 30, 4
  10              		.eabi_attribute 18, 4
  11              		.file	"armVIC.c"
  18 0000 BB000000 		.text
  18      02001F00 
  18      00000201 
  18      FB0E0D00 
  18      01010101 
  19              	.Ltext0:
  20              		.section	.text.__get_cpsr,"ax",%progbits
  21              		.align	2
  22              		.type	__get_cpsr, %function
  23              	__get_cpsr:
  24              	.LFB2:
  25              		.file 1 "armVIC.c"
   1:armVIC.c      **** /******************************************************************************
   2:armVIC.c      ****  *
   3:armVIC.c      ****  * $RCSfile: $
   4:armVIC.c      ****  * $Revision: $
   5:armVIC.c      ****  *
   6:armVIC.c      ****  * This module provides the interface routines for setting up and
   7:armVIC.c      ****  * controlling the various interrupt modes present on the ARM processor.
   8:armVIC.c      ****  * Copyright 2004, R O SoftWare
   9:armVIC.c      ****  * No guarantees, warrantees, or promises, implied or otherwise.
  10:armVIC.c      ****  * May be used for hobby or commercial purposes provided copyright
  11:armVIC.c      ****  * notice remains intact.
  12:armVIC.c      ****  *
  13:armVIC.c      ****  *****************************************************************************/
  14:armVIC.c      **** #include <stdint.h>
  15:armVIC.c      **** #include "types.h"
  16:armVIC.c      **** #include "armVIC.h"
  17:armVIC.c      **** 
  18:armVIC.c      **** #define IRQ_MASK 0x00000080
  19:armVIC.c      **** #define FIQ_MASK 0x00000040
  20:armVIC.c      **** #define INT_MASK (IRQ_MASK | FIQ_MASK)
  21:armVIC.c      **** 
  22:armVIC.c      **** static inline unsigned __get_cpsr(void)
  23:armVIC.c      **** {
  26              		.loc 1 23 0
  27              		@ Function supports interworking.
  28              		@ args = 0, pretend = 0, frame = 0
  29              		@ frame_needed = 0, uses_anonymous_args = 0
  30              		@ link register save eliminated.
ARM GAS  /cygdrive/c/Users/Chris/AppData/Local/Temp/ccdmRcGc.s 			page 2


  24:armVIC.c      ****   unsigned long retval;
  25:armVIC.c      ****   asm volatile (" mrs  %0, cpsr" : "=r" (retval) : /* no inputs */  );
  31              		.loc 1 25 0
  32              	@ 25 "armVIC.c" 1
  33 0000 00000FE1 		 mrs  r0, cpsr
  34              	@ 0 "" 2
  35              	.LVL0:
  36              	.LVL1:
  26:armVIC.c      ****   return retval;
  27:armVIC.c      **** }
  37              		.loc 1 27 0
  38 0004 1EFF2FE1 		bx	lr
  39              	.LFE2:
  40              		.size	__get_cpsr, .-__get_cpsr
  41              		.section	.text.__set_cpsr,"ax",%progbits
  42              		.align	2
  43              		.type	__set_cpsr, %function
  44              	__set_cpsr:
  45              	.LFB3:
  28:armVIC.c      **** 
  29:armVIC.c      **** static inline void __set_cpsr(unsigned val)
  30:armVIC.c      **** {
  46              		.loc 1 30 0
  47              		@ Function supports interworking.
  48              		@ args = 0, pretend = 0, frame = 0
  49              		@ frame_needed = 0, uses_anonymous_args = 0
  50              		@ link register save eliminated.
  51              	.LVL2:
  31:armVIC.c      ****   asm volatile (" msr  cpsr, %0" : /* no outputs */ : "r" (val)  );
  52              		.loc 1 31 0
  53              	@ 31 "armVIC.c" 1
  54 0000 00F029E1 		 msr  cpsr, r0
  55              	@ 0 "" 2
  32:armVIC.c      **** }
  56              		.loc 1 32 0
  57 0004 1EFF2FE1 		bx	lr
  58              	.LFE3:
  59              		.size	__set_cpsr, .-__set_cpsr
  60              		.section	.text.disableIRQ,"ax",%progbits
  61              		.align	2
  62              		.global	disableIRQ
  63              		.type	disableIRQ, %function
  64              	disableIRQ:
  65              	.LFB4:
  33:armVIC.c      **** 
  34:armVIC.c      **** unsigned disableIRQ(void)
  35:armVIC.c      **** {
  66              		.loc 1 35 0
  67              		@ Function supports interworking.
  68              		@ args = 0, pretend = 0, frame = 0
  69              		@ frame_needed = 0, uses_anonymous_args = 0
  70 0000 10402DE9 		stmfd	sp!, {r4, lr}
  71              	.LCFI0:
  36:armVIC.c      ****   unsigned _cpsr;
  37:armVIC.c      **** 
  38:armVIC.c      ****   _cpsr = __get_cpsr();
  72              		.loc 1 38 0
ARM GAS  /cygdrive/c/Users/Chris/AppData/Local/Temp/ccdmRcGc.s 			page 3


  73 0004 FEFFFFEB 		bl	__get_cpsr
  74 0008 0040A0E1 		mov	r4, r0
  75              	.LVL3:
  39:armVIC.c      ****   __set_cpsr(_cpsr | IRQ_MASK);
  76              		.loc 1 39 0
  77 000c 800080E3 		orr	r0, r0, #128
  78 0010 FEFFFFEB 		bl	__set_cpsr
  40:armVIC.c      ****   return _cpsr;
  41:armVIC.c      **** }
  79              		.loc 1 41 0
  80 0014 0400A0E1 		mov	r0, r4
  81 0018 1040BDE8 		ldmfd	sp!, {r4, lr}
  82 001c 1EFF2FE1 		bx	lr
  83              	.LFE4:
  84              		.size	disableIRQ, .-disableIRQ
  85              		.section	.text.restoreIRQ,"ax",%progbits
  86              		.align	2
  87              		.global	restoreIRQ
  88              		.type	restoreIRQ, %function
  89              	restoreIRQ:
  90              	.LFB5:
  42:armVIC.c      **** 
  43:armVIC.c      **** unsigned restoreIRQ(unsigned oldCPSR)
  44:armVIC.c      **** {
  91              		.loc 1 44 0
  92              		@ Function supports interworking.
  93              		@ args = 0, pretend = 0, frame = 0
  94              		@ frame_needed = 0, uses_anonymous_args = 0
  95              	.LVL4:
  96 0000 70402DE9 		stmfd	sp!, {r4, r5, r6, lr}
  97              	.LCFI1:
  98              		.loc 1 44 0
  99 0004 0040A0E1 		mov	r4, r0
  45:armVIC.c      ****   unsigned _cpsr;
  46:armVIC.c      **** 
  47:armVIC.c      ****   _cpsr = __get_cpsr();
 100              		.loc 1 47 0
 101 0008 FEFFFFEB 		bl	__get_cpsr
 102              	.LVL5:
  48:armVIC.c      ****   __set_cpsr((_cpsr & ~IRQ_MASK) | (oldCPSR & IRQ_MASK));
 103              		.loc 1 48 0
 104 000c 804004E2 		and	r4, r4, #128
 105              	.LVL6:
 106              		.loc 1 47 0
 107 0010 0050A0E1 		mov	r5, r0
 108              	.LVL7:
 109              		.loc 1 48 0
 110 0014 8000C0E3 		bic	r0, r0, #128
 111 0018 000084E1 		orr	r0, r4, r0
 112 001c FEFFFFEB 		bl	__set_cpsr
  49:armVIC.c      ****   return _cpsr;
  50:armVIC.c      **** }
 113              		.loc 1 50 0
 114 0020 0500A0E1 		mov	r0, r5
 115 0024 7040BDE8 		ldmfd	sp!, {r4, r5, r6, lr}
 116 0028 1EFF2FE1 		bx	lr
 117              	.LFE5:
ARM GAS  /cygdrive/c/Users/Chris/AppData/Local/Temp/ccdmRcGc.s 			page 4


 118              		.size	restoreIRQ, .-restoreIRQ
 119              		.section	.text.enableIRQ,"ax",%progbits
 120              		.align	2
 121              		.global	enableIRQ
 122              		.type	enableIRQ, %function
 123              	enableIRQ:
 124              	.LFB6:
  51:armVIC.c      **** 
  52:armVIC.c      **** unsigned enableIRQ(void)
  53:armVIC.c      **** {
 125              		.loc 1 53 0
 126              		@ Function supports interworking.
 127              		@ args = 0, pretend = 0, frame = 0
 128              		@ frame_needed = 0, uses_anonymous_args = 0
 129 0000 10402DE9 		stmfd	sp!, {r4, lr}
 130              	.LCFI2:
  54:armVIC.c      ****   unsigned _cpsr;
  55:armVIC.c      **** 
  56:armVIC.c      ****   _cpsr = __get_cpsr();
 131              		.loc 1 56 0
 132 0004 FEFFFFEB 		bl	__get_cpsr
 133 0008 0040A0E1 		mov	r4, r0
 134              	.LVL8:
  57:armVIC.c      ****   __set_cpsr(_cpsr & ~IRQ_MASK);
 135              		.loc 1 57 0
 136 000c 8000C0E3 		bic	r0, r0, #128
 137 0010 FEFFFFEB 		bl	__set_cpsr
  58:armVIC.c      ****   return _cpsr;
  59:armVIC.c      **** }
 138              		.loc 1 59 0
 139 0014 0400A0E1 		mov	r0, r4
 140 0018 1040BDE8 		ldmfd	sp!, {r4, lr}
 141 001c 1EFF2FE1 		bx	lr
 142              	.LFE6:
 143              		.size	enableIRQ, .-enableIRQ
 144              		.section	.text.disableFIQ,"ax",%progbits
 145              		.align	2
 146              		.global	disableFIQ
 147              		.type	disableFIQ, %function
 148              	disableFIQ:
 149              	.LFB7:
  60:armVIC.c      **** 
  61:armVIC.c      **** unsigned disableFIQ(void)
  62:armVIC.c      **** {
 150              		.loc 1 62 0
 151              		@ Function supports interworking.
 152              		@ args = 0, pretend = 0, frame = 0
 153              		@ frame_needed = 0, uses_anonymous_args = 0
 154 0000 10402DE9 		stmfd	sp!, {r4, lr}
 155              	.LCFI3:
  63:armVIC.c      ****   unsigned _cpsr;
  64:armVIC.c      **** 
  65:armVIC.c      ****   _cpsr = __get_cpsr();
 156              		.loc 1 65 0
 157 0004 FEFFFFEB 		bl	__get_cpsr
 158 0008 0040A0E1 		mov	r4, r0
 159              	.LVL9:
ARM GAS  /cygdrive/c/Users/Chris/AppData/Local/Temp/ccdmRcGc.s 			page 5


  66:armVIC.c      ****   __set_cpsr(_cpsr | FIQ_MASK);
 160              		.loc 1 66 0
 161 000c 400080E3 		orr	r0, r0, #64
 162 0010 FEFFFFEB 		bl	__set_cpsr
  67:armVIC.c      ****   return _cpsr;
  68:armVIC.c      **** }
 163              		.loc 1 68 0
 164 0014 0400A0E1 		mov	r0, r4
 165 0018 1040BDE8 		ldmfd	sp!, {r4, lr}
 166 001c 1EFF2FE1 		bx	lr
 167              	.LFE7:
 168              		.size	disableFIQ, .-disableFIQ
 169              		.section	.text.restoreFIQ,"ax",%progbits
 170              		.align	2
 171              		.global	restoreFIQ
 172              		.type	restoreFIQ, %function
 173              	restoreFIQ:
 174              	.LFB8:
  69:armVIC.c      **** 
  70:armVIC.c      **** unsigned restoreFIQ(unsigned oldCPSR)
  71:armVIC.c      **** {
 175              		.loc 1 71 0
 176              		@ Function supports interworking.
 177              		@ args = 0, pretend = 0, frame = 0
 178              		@ frame_needed = 0, uses_anonymous_args = 0
 179              	.LVL10:
 180 0000 70402DE9 		stmfd	sp!, {r4, r5, r6, lr}
 181              	.LCFI4:
 182              		.loc 1 71 0
 183 0004 0040A0E1 		mov	r4, r0
  72:armVIC.c      ****   unsigned _cpsr;
  73:armVIC.c      **** 
  74:armVIC.c      ****   _cpsr = __get_cpsr();
 184              		.loc 1 74 0
 185 0008 FEFFFFEB 		bl	__get_cpsr
 186              	.LVL11:
  75:armVIC.c      ****   __set_cpsr((_cpsr & ~FIQ_MASK) | (oldCPSR & FIQ_MASK));
 187              		.loc 1 75 0
 188 000c 404004E2 		and	r4, r4, #64
 189              	.LVL12:
 190              		.loc 1 74 0
 191 0010 0050A0E1 		mov	r5, r0
 192              	.LVL13:
 193              		.loc 1 75 0
 194 0014 4000C0E3 		bic	r0, r0, #64
 195 0018 000084E1 		orr	r0, r4, r0
 196 001c FEFFFFEB 		bl	__set_cpsr
  76:armVIC.c      ****   return _cpsr;
  77:armVIC.c      **** }
 197              		.loc 1 77 0
 198 0020 0500A0E1 		mov	r0, r5
 199 0024 7040BDE8 		ldmfd	sp!, {r4, r5, r6, lr}
 200 0028 1EFF2FE1 		bx	lr
 201              	.LFE8:
 202              		.size	restoreFIQ, .-restoreFIQ
 203              		.section	.text.enableFIQ,"ax",%progbits
 204              		.align	2
ARM GAS  /cygdrive/c/Users/Chris/AppData/Local/Temp/ccdmRcGc.s 			page 6


 205              		.global	enableFIQ
 206              		.type	enableFIQ, %function
 207              	enableFIQ:
 208              	.LFB9:
  78:armVIC.c      **** 
  79:armVIC.c      **** unsigned enableFIQ(void)
  80:armVIC.c      **** {
 209              		.loc 1 80 0
 210              		@ Function supports interworking.
 211              		@ args = 0, pretend = 0, frame = 0
 212              		@ frame_needed = 0, uses_anonymous_args = 0
 213 0000 10402DE9 		stmfd	sp!, {r4, lr}
 214              	.LCFI5:
  81:armVIC.c      ****   unsigned _cpsr;
  82:armVIC.c      **** 
  83:armVIC.c      ****   _cpsr = __get_cpsr();
 215              		.loc 1 83 0
 216 0004 FEFFFFEB 		bl	__get_cpsr
 217 0008 0040A0E1 		mov	r4, r0
 218              	.LVL14:
  84:armVIC.c      ****   __set_cpsr(_cpsr & ~FIQ_MASK);
 219              		.loc 1 84 0
 220 000c 4000C0E3 		bic	r0, r0, #64
 221 0010 FEFFFFEB 		bl	__set_cpsr
  85:armVIC.c      ****   return _cpsr;
  86:armVIC.c      **** }
 222              		.loc 1 86 0
 223 0014 0400A0E1 		mov	r0, r4
 224 0018 1040BDE8 		ldmfd	sp!, {r4, lr}
 225 001c 1EFF2FE1 		bx	lr
 226              	.LFE9:
 227              		.size	enableFIQ, .-enableFIQ
 228              		.section	.debug_frame,"",%progbits
 229              	.Lframe0:
 230 0000 0C000000 		.4byte	.LECIE0-.LSCIE0
 231              	.LSCIE0:
 232 0004 FFFFFFFF 		.4byte	0xffffffff
 233 0008 01       		.byte	0x1
 234 0009 00       		.ascii	"\000"
 235 000a 01       		.uleb128 0x1
 236 000b 7C       		.sleb128 -4
 237 000c 0E       		.byte	0xe
 238 000d 0C       		.byte	0xc
 239 000e 0D       		.uleb128 0xd
 240 000f 00       		.uleb128 0x0
 241              		.align	2
 242              	.LECIE0:
 243              	.LSFDE0:
 244 0010 0C000000 		.4byte	.LEFDE0-.LASFDE0
 245              	.LASFDE0:
 246 0014 00000000 		.4byte	.Lframe0
 247 0018 00000000 		.4byte	.LFB2
 248 001c 08000000 		.4byte	.LFE2-.LFB2
 249              		.align	2
 250              	.LEFDE0:
 251              	.LSFDE2:
 252 0020 0C000000 		.4byte	.LEFDE2-.LASFDE2
ARM GAS  /cygdrive/c/Users/Chris/AppData/Local/Temp/ccdmRcGc.s 			page 7


 253              	.LASFDE2:
 254 0024 00000000 		.4byte	.Lframe0
 255 0028 00000000 		.4byte	.LFB3
 256 002c 08000000 		.4byte	.LFE3-.LFB3
 257              		.align	2
 258              	.LEFDE2:
 259              	.LSFDE4:
 260 0030 14000000 		.4byte	.LEFDE4-.LASFDE4
 261              	.LASFDE4:
 262 0034 00000000 		.4byte	.Lframe0
 263 0038 00000000 		.4byte	.LFB4
 264 003c 20000000 		.4byte	.LFE4-.LFB4
 265 0040 44       		.byte	0x4
 266              		.4byte	.LCFI0-.LFB4
 267 0041 0E       		.byte	0xe
 268 0042 08       		.uleb128 0x8
 269 0043 8E       		.byte	0x8e
 270 0044 01       		.uleb128 0x1
 271 0045 84       		.byte	0x84
 272 0046 02       		.uleb128 0x2
 273 0047 00       		.align	2
 274              	.LEFDE4:
 275              	.LSFDE6:
 276 0048 18000000 		.4byte	.LEFDE6-.LASFDE6
 277              	.LASFDE6:
 278 004c 00000000 		.4byte	.Lframe0
 279 0050 00000000 		.4byte	.LFB5
 280 0054 2C000000 		.4byte	.LFE5-.LFB5
 281 0058 44       		.byte	0x4
 282              		.4byte	.LCFI1-.LFB5
 283 0059 0E       		.byte	0xe
 284 005a 10       		.uleb128 0x10
 285 005b 8E       		.byte	0x8e
 286 005c 01       		.uleb128 0x1
 287 005d 86       		.byte	0x86
 288 005e 02       		.uleb128 0x2
 289 005f 85       		.byte	0x85
 290 0060 03       		.uleb128 0x3
 291 0061 84       		.byte	0x84
 292 0062 04       		.uleb128 0x4
 293 0063 00       		.align	2
 294              	.LEFDE6:
 295              	.LSFDE8:
 296 0064 14000000 		.4byte	.LEFDE8-.LASFDE8
 297              	.LASFDE8:
 298 0068 00000000 		.4byte	.Lframe0
 299 006c 00000000 		.4byte	.LFB6
 300 0070 20000000 		.4byte	.LFE6-.LFB6
 301 0074 44       		.byte	0x4
 302              		.4byte	.LCFI2-.LFB6
 303 0075 0E       		.byte	0xe
 304 0076 08       		.uleb128 0x8
 305 0077 8E       		.byte	0x8e
 306 0078 01       		.uleb128 0x1
 307 0079 84       		.byte	0x84
 308 007a 02       		.uleb128 0x2
 309 007b 00       		.align	2
ARM GAS  /cygdrive/c/Users/Chris/AppData/Local/Temp/ccdmRcGc.s 			page 8


 310              	.LEFDE8:
 311              	.LSFDE10:
 312 007c 14000000 		.4byte	.LEFDE10-.LASFDE10
 313              	.LASFDE10:
 314 0080 00000000 		.4byte	.Lframe0
 315 0084 00000000 		.4byte	.LFB7
 316 0088 20000000 		.4byte	.LFE7-.LFB7
 317 008c 44       		.byte	0x4
 318              		.4byte	.LCFI3-.LFB7
 319 008d 0E       		.byte	0xe
 320 008e 08       		.uleb128 0x8
 321 008f 8E       		.byte	0x8e
 322 0090 01       		.uleb128 0x1
 323 0091 84       		.byte	0x84
 324 0092 02       		.uleb128 0x2
 325 0093 00       		.align	2
 326              	.LEFDE10:
 327              	.LSFDE12:
 328 0094 18000000 		.4byte	.LEFDE12-.LASFDE12
 329              	.LASFDE12:
 330 0098 00000000 		.4byte	.Lframe0
 331 009c 00000000 		.4byte	.LFB8
 332 00a0 2C000000 		.4byte	.LFE8-.LFB8
 333 00a4 44       		.byte	0x4
 334              		.4byte	.LCFI4-.LFB8
 335 00a5 0E       		.byte	0xe
 336 00a6 10       		.uleb128 0x10
 337 00a7 8E       		.byte	0x8e
 338 00a8 01       		.uleb128 0x1
 339 00a9 86       		.byte	0x86
 340 00aa 02       		.uleb128 0x2
 341 00ab 85       		.byte	0x85
 342 00ac 03       		.uleb128 0x3
 343 00ad 84       		.byte	0x84
 344 00ae 04       		.uleb128 0x4
 345 00af 00       		.align	2
 346              	.LEFDE12:
 347              	.LSFDE14:
 348 00b0 14000000 		.4byte	.LEFDE14-.LASFDE14
 349              	.LASFDE14:
 350 00b4 00000000 		.4byte	.Lframe0
 351 00b8 00000000 		.4byte	.LFB9
 352 00bc 20000000 		.4byte	.LFE9-.LFB9
 353 00c0 44       		.byte	0x4
 354              		.4byte	.LCFI5-.LFB9
 355 00c1 0E       		.byte	0xe
 356 00c2 08       		.uleb128 0x8
 357 00c3 8E       		.byte	0x8e
 358 00c4 01       		.uleb128 0x1
 359 00c5 84       		.byte	0x84
 360 00c6 02       		.uleb128 0x2
 361 00c7 00       		.align	2
 362              	.LEFDE14:
 363              		.text
 364              	.Letext0: