ARM GAS  /cygdrive/c/Users/Chris/AppData/Local/Temp/ccywwp4x.s 			page 1


   1              		.cpu arm7tdmi
   2              		.fpu softvfp
   3              		.eabi_attribute 20, 1
   4              		.eabi_attribute 21, 1
   5              		.eabi_attribute 23, 3
   6              		.eabi_attribute 24, 1
   7              		.eabi_attribute 25, 1
   8              		.eabi_attribute 26, 1
   9              		.eabi_attribute 30, 4
  10              		.eabi_attribute 18, 4
  11              		.file	"eeprom.cpp"
  12              		.section	.debug_abbrev,"",%progbits
  13              	.Ldebug_abbrev0:
  14              		.section	.debug_info,"",%progbits
  15              	.Ldebug_info0:
  16              		.section	.debug_line,"",%progbits
  17              	.Ldebug_line0:
  18 0000 18010000 		.text
  18      02009D00 
  18      00000201 
  18      FB0E0D00 
  18      01010101 
  19              	.Ltext0:
  20              		.section	.text._Z10eepromInitv,"ax",%progbits
  21              		.align	2
  22              		.global	_Z10eepromInitv
  23              		.type	_Z10eepromInitv, %function
  24              	_Z10eepromInitv:
  25              	.LFB2:
  26              		.file 1 "eeprom.cpp"
   1:eeprom.cpp    **** #include <LPC23xx.H>                       /* LPC23xx definitions  */
   2:eeprom.cpp    **** #include <stdint.h>
   3:eeprom.cpp    **** #include <stdio.h>                         /* standard I/O .h-file */
   4:eeprom.cpp    **** 
   5:eeprom.cpp    **** /* EEPROM Instructions */
   6:eeprom.cpp    **** static const uint8_t kEEREAD    = 3;
   7:eeprom.cpp    **** static const uint8_t kEEWRITE   = 2;  
   8:eeprom.cpp    **** static const uint8_t kEEWRDI    = 3;
   9:eeprom.cpp    **** static const uint8_t kEEWREN    = 2; 
  10:eeprom.cpp    **** static const uint8_t kEERDSR    = 5;
  11:eeprom.cpp    **** static const uint8_t kEEWRSR    = 1;
  12:eeprom.cpp    ****   
  13:eeprom.cpp    **** 
  14:eeprom.cpp    **** //*************************************************************
  15:eeprom.cpp    **** // EEPROM INitialization
  16:eeprom.cpp    **** //       Device: Microchip 25AA128 SPI EEPROM  
  17:eeprom.cpp    **** void eepromInit(void) {
  27              		.loc 1 17 0
  28              		@ Function supports interworking.
  29              		@ args = 0, pretend = 0, frame = 0
  30              		@ frame_needed = 0, uses_anonymous_args = 0
  31              		@ link register save eliminated.
  18:eeprom.cpp    **** 
  19:eeprom.cpp    ****    /* Setup pin P0.6,7,8 for SPI */
  20:eeprom.cpp    ****    PINSEL0 |= 0x000AA000;
  32              		.loc 1 20 0
  33 0000 28109FE5 		ldr	r1, .L3
ARM GAS  /cygdrive/c/Users/Chris/AppData/Local/Temp/ccywwp4x.s 			page 2


  34 0004 003091E5 		ldr	r3, [r1, #0]
  21:eeprom.cpp    ****    
  22:eeprom.cpp    ****    /* CPOL = 0, CPHA = 1, 8-bits, SPI mode */
  23:eeprom.cpp    ****    SSP1CR0 = 0x0087;
  35              		.loc 1 23 0
  36 0008 24209FE5 		ldr	r2, .L3+4
  37              		.loc 1 20 0
  38 000c AA3A83E3 		orr	r3, r3, #696320
  39 0010 003081E5 		str	r3, [r1, #0]
  40              		.loc 1 23 0
  41 0014 8730A0E3 		mov	r3, #135
  42 0018 003082E5 		str	r3, [r2, #0]
  24:eeprom.cpp    ****    
  25:eeprom.cpp    ****    /* SPI Master,       */
  26:eeprom.cpp    ****    SSP1CR1 =  0x004;
  43              		.loc 1 26 0
  44 001c 0430A0E3 		mov	r3, #4
  45 0020 043082E5 		str	r3, [r2, #4]
  27:eeprom.cpp    ****    
  28:eeprom.cpp    ****    /* SPI Enable,       */
  29:eeprom.cpp    ****    SSP1CR1 =  0x006;
  46              		.loc 1 29 0
  47 0024 023083E2 		add	r3, r3, #2
  48 0028 043082E5 		str	r3, [r2, #4]
  30:eeprom.cpp    **** }
  49              		.loc 1 30 0
  50 002c 1EFF2FE1 		bx	lr
  51              	.L4:
  52              		.align	2
  53              	.L3:
  54 0030 00C002E0 		.word	-536690688
  55 0034 000003E0 		.word	-536674304
  56              	.LFE2:
  57              		.size	_Z10eepromInitv, .-_Z10eepromInitv
  58              		.section	.text._Z9ssp1Writeh,"ax",%progbits
  59              		.align	2
  60              		.global	_Z9ssp1Writeh
  61              		.type	_Z9ssp1Writeh, %function
  62              	_Z9ssp1Writeh:
  63              	.LFB3:
  31:eeprom.cpp    **** 
  32:eeprom.cpp    **** //*************************************************************
  33:eeprom.cpp    **** // Write data to SSP1
  34:eeprom.cpp    **** void ssp1Write(uint8_t data) {
  64              		.loc 1 34 0
  65              		@ Function supports interworking.
  66              		@ args = 0, pretend = 0, frame = 0
  67              		@ frame_needed = 0, uses_anonymous_args = 0
  68              		@ link register save eliminated.
  69              	.LVL0:
  70              	.L6:
  35:eeprom.cpp    **** 
  36:eeprom.cpp    **** 
  37:eeprom.cpp    ****       /* Check the TX FIFO status */
  38:eeprom.cpp    ****       while( !((SSP1SR >> 1) & 1) ) {
  71              		.loc 1 38 0
  72 0000 10209FE5 		ldr	r2, .L8
ARM GAS  /cygdrive/c/Users/Chris/AppData/Local/Temp/ccywwp4x.s 			page 3


  73 0004 0C3092E5 		ldr	r3, [r2, #12]
  74 0008 020013E3 		tst	r3, #2
  75 000c FBFFFF0A 		beq	.L6
  39:eeprom.cpp    ****          ; /* Wait for TX to be ready */
  40:eeprom.cpp    ****       }     
  41:eeprom.cpp    ****       
  42:eeprom.cpp    ****      /* Put the data into the TX FIFO */
  43:eeprom.cpp    ****       SSP1DR = data;
  76              		.loc 1 43 0
  77 0010 080082E5 		str	r0, [r2, #8]
  44:eeprom.cpp    **** 
  45:eeprom.cpp    **** }
  78              		.loc 1 45 0
  79 0014 1EFF2FE1 		bx	lr
  80              	.L9:
  81              		.align	2
  82              	.L8:
  83 0018 000003E0 		.word	-536674304
  84              	.LFE3:
  85              		.size	_Z9ssp1Writeh, .-_Z9ssp1Writeh
  86              		.section	.text._Z8ssp1Readv,"ax",%progbits
  87              		.align	2
  88              		.global	_Z8ssp1Readv
  89              		.type	_Z8ssp1Readv, %function
  90              	_Z8ssp1Readv:
  91              	.LFB4:
  46:eeprom.cpp    ****   
  47:eeprom.cpp    **** //*************************************************************
  48:eeprom.cpp    **** // Read one byte from the SSP1
  49:eeprom.cpp    **** uint8_t ssp1Read() {
  92              		.loc 1 49 0
  93              		@ Function supports interworking.
  94              		@ args = 0, pretend = 0, frame = 0
  95              		@ frame_needed = 0, uses_anonymous_args = 0
  96 0000 10402DE9 		stmfd	sp!, {r4, lr}
  97              	.LCFI0:
  98 0004 000000EA 		b	.L11
  99              	.L12:
  50:eeprom.cpp    **** 
  51:eeprom.cpp    ****       /* Wait for a byte to be received */
  52:eeprom.cpp    ****       while( !((SSP1SR >> 2) & 1) ) {
  53:eeprom.cpp    ****          /* Send dummy data */
  54:eeprom.cpp    ****          ssp1Write(0);
 100              		.loc 1 54 0
 101 0008 FEFFFFEB 		bl	_Z9ssp1Writeh
 102              	.L11:
 103              		.loc 1 52 0
 104 000c 18309FE5 		ldr	r3, .L14
 105 0010 0C0093E5 		ldr	r0, [r3, #12]
 106 0014 040010E2 		ands	r0, r0, #4
 107 0018 FAFFFF0A 		beq	.L12
  55:eeprom.cpp    ****       }     
  56:eeprom.cpp    ****       
  57:eeprom.cpp    ****       /* Return the received byte */
  58:eeprom.cpp    ****       return (uint8_t)SSP1DR;
 108              		.loc 1 58 0
 109 001c 080093E5 		ldr	r0, [r3, #8]
ARM GAS  /cygdrive/c/Users/Chris/AppData/Local/Temp/ccywwp4x.s 			page 4


 110 0020 FF0000E2 		and	r0, r0, #255
  59:eeprom.cpp    **** 
  60:eeprom.cpp    **** }
 111              		.loc 1 60 0
 112 0024 1040BDE8 		ldmfd	sp!, {r4, lr}
 113 0028 1EFF2FE1 		bx	lr
 114              	.L15:
 115              		.align	2
 116              	.L14:
 117 002c 000003E0 		.word	-536674304
 118              	.LFE4:
 119              		.size	_Z8ssp1Readv, .-_Z8ssp1Readv
 120              		.section	.text._Z11eepromWritetPhm,"ax",%progbits
 121              		.align	2
 122              		.global	_Z11eepromWritetPhm
 123              		.type	_Z11eepromWritetPhm, %function
 124              	_Z11eepromWritetPhm:
 125              	.LFB5:
  61:eeprom.cpp    **** 
  62:eeprom.cpp    **** //*************************************************************
  63:eeprom.cpp    **** // EEPROM write data
  64:eeprom.cpp    **** // Returns: EEPROM Status Register  
  65:eeprom.cpp    **** // lower cs
  66:eeprom.cpp    **** // send wren instr
  67:eeprom.cpp    **** // raise cs
  68:eeprom.cpp    **** // lower cs
  69:eeprom.cpp    **** // send write instr
  70:eeprom.cpp    **** // send 16-bit address
  71:eeprom.cpp    **** // send data up 64
  72:eeprom.cpp    **** //  increment page?
  73:eeprom.cpp    **** //  continue writing
  74:eeprom.cpp    **** //  raise cs
  75:eeprom.cpp    **** int eepromWrite(uint16_t dataEEDest, uint8_t * const dataSrc, uint32_t length) {
 126              		.loc 1 75 0
 127              		@ Function supports interworking.
 128              		@ args = 0, pretend = 0, frame = 0
 129              		@ frame_needed = 0, uses_anonymous_args = 0
 130              	.LVL1:
 131 0000 70402DE9 		stmfd	sp!, {r4, r5, r6, lr}
 132              	.LCFI1:
 133              		.loc 1 75 0
 134 0004 0040A0E1 		mov	r4, r0
 135              	.LBB2:
  76:eeprom.cpp    **** 
  77:eeprom.cpp    **** uint32_t ii;
  78:eeprom.cpp    **** 
  79:eeprom.cpp    ****    /* Send Write Enable */      
  80:eeprom.cpp    ****    ssp1Write(kEEWREN);
 136              		.loc 1 80 0
 137 0008 0200A0E3 		mov	r0, #2
 138              	.LVL2:
 139              	.LBE2:
 140              		.loc 1 75 0
 141 000c 0160A0E1 		mov	r6, r1
 142 0010 0250A0E1 		mov	r5, r2
 143              	.LBB3:
 144              		.loc 1 80 0
ARM GAS  /cygdrive/c/Users/Chris/AppData/Local/Temp/ccywwp4x.s 			page 5


 145 0014 FEFFFFEB 		bl	_Z9ssp1Writeh
 146              	.LVL3:
  81:eeprom.cpp    **** 
  82:eeprom.cpp    ****    /* Send Write Enable Instruction */      
  83:eeprom.cpp    ****    ssp1Write(kEEWREN);
 147              		.loc 1 83 0
 148 0018 0200A0E3 		mov	r0, #2
 149 001c FEFFFFEB 		bl	_Z9ssp1Writeh
  84:eeprom.cpp    **** 
  85:eeprom.cpp    ****    /* Send Write Instruction */      
  86:eeprom.cpp    ****    ssp1Write(kEEWRITE);
 150              		.loc 1 86 0
 151 0020 0200A0E3 		mov	r0, #2
 152 0024 FEFFFFEB 		bl	_Z9ssp1Writeh
  87:eeprom.cpp    **** 
  88:eeprom.cpp    ****    /* Send Address High Byte */      
  89:eeprom.cpp    ****    ssp1Write((dataEEDest >> 8) & 0xFF);
 153              		.loc 1 89 0
 154 0028 2404A0E1 		mov	r0, r4, lsr #8
  90:eeprom.cpp    **** 
  91:eeprom.cpp    ****    /* Send Address LOW Byte */      
  92:eeprom.cpp    ****    ssp1Write(dataEEDest & 0xFF);
 155              		.loc 1 92 0
 156 002c FF4004E2 		and	r4, r4, #255
 157              	.LVL4:
 158              		.loc 1 89 0
 159 0030 FEFFFFEB 		bl	_Z9ssp1Writeh
 160              		.loc 1 92 0
 161 0034 0400A0E1 		mov	r0, r4
 162 0038 FEFFFFEB 		bl	_Z9ssp1Writeh
 163 003c 0040A0E3 		mov	r4, #0
 164              	.LVL5:
 165 0040 020000EA 		b	.L17
 166              	.L18:
  93:eeprom.cpp    **** 
  94:eeprom.cpp    ****    for (ii=0; ii < length; ii++ ) {
  95:eeprom.cpp    **** 
  96:eeprom.cpp    ****       ssp1Write(dataSrc[ii]);
 167              		.loc 1 96 0
 168 0044 0400D6E7 		ldrb	r0, [r6, r4]	@ zero_extendqisi2
 169 0048 FEFFFFEB 		bl	_Z9ssp1Writeh
 170              		.loc 1 94 0
 171 004c 014084E2 		add	r4, r4, #1
 172              	.L17:
 173 0050 050054E1 		cmp	r4, r5
 174 0054 FAFFFF3A 		bcc	.L18
 175              	.LBE3:
  97:eeprom.cpp    ****    }
  98:eeprom.cpp    **** 
  99:eeprom.cpp    ****  return 1;
 100:eeprom.cpp    **** }
 176              		.loc 1 100 0
 177 0058 0100A0E3 		mov	r0, #1
 178 005c 7040BDE8 		ldmfd	sp!, {r4, r5, r6, lr}
 179 0060 1EFF2FE1 		bx	lr
 180              	.LFE5:
 181              		.size	_Z11eepromWritetPhm, .-_Z11eepromWritetPhm
ARM GAS  /cygdrive/c/Users/Chris/AppData/Local/Temp/ccywwp4x.s 			page 6


 182              		.section	.text._Z10eepromReadPhtm,"ax",%progbits
 183              		.align	2
 184              		.global	_Z10eepromReadPhtm
 185              		.type	_Z10eepromReadPhtm, %function
 186              	_Z10eepromReadPhtm:
 187              	.LFB6:
 101:eeprom.cpp    ****  
 102:eeprom.cpp    **** //*************************************************************
 103:eeprom.cpp    **** // EEPROM read data
 104:eeprom.cpp    **** // Returns: EEPROM Status Register   
 105:eeprom.cpp    ****     // lower cs
 106:eeprom.cpp    ****     // send read instr
 107:eeprom.cpp    ****     // 16-bit address
 108:eeprom.cpp    ****     // clock 8*len
 109:eeprom.cpp    ****     // raise cs
 110:eeprom.cpp    ****     //      
 111:eeprom.cpp    **** int eepromRead(uint8_t * dataDest, uint16_t dataEESrc, uint32_t length) {
 188              		.loc 1 111 0
 189              		@ Function supports interworking.
 190              		@ args = 0, pretend = 0, frame = 0
 191              		@ frame_needed = 0, uses_anonymous_args = 0
 192              	.LVL6:
 193 0000 70402DE9 		stmfd	sp!, {r4, r5, r6, lr}
 194              	.LCFI2:
 195              		.loc 1 111 0
 196 0004 0140A0E1 		mov	r4, r1
 197 0008 0060A0E1 		mov	r6, r0
 198              	.LBB4:
 112:eeprom.cpp    **** 
 113:eeprom.cpp    **** 
 114:eeprom.cpp    **** uint32_t ii;
 115:eeprom.cpp    **** 
 116:eeprom.cpp    ****    /* Send Read Instruction */      
 117:eeprom.cpp    ****    ssp1Write(kEEREAD);
 199              		.loc 1 117 0
 200 000c 0300A0E3 		mov	r0, #3
 201              	.LVL7:
 202              	.LBE4:
 203              		.loc 1 111 0
 204 0010 0250A0E1 		mov	r5, r2
 205              	.LBB5:
 206              		.loc 1 117 0
 207 0014 FEFFFFEB 		bl	_Z9ssp1Writeh
 208              	.LVL8:
 118:eeprom.cpp    **** 
 119:eeprom.cpp    ****    /* Send Address High Byte */      
 120:eeprom.cpp    ****    ssp1Write((dataEESrc >> 8) & 0xFF);
 209              		.loc 1 120 0
 210 0018 2404A0E1 		mov	r0, r4, lsr #8
 121:eeprom.cpp    **** 
 122:eeprom.cpp    ****    /* Send Address LOW Byte */      
 123:eeprom.cpp    ****    ssp1Write(dataEESrc & 0xFF);
 211              		.loc 1 123 0
 212 001c FF4004E2 		and	r4, r4, #255
 213              	.LVL9:
 214              		.loc 1 120 0
 215 0020 FEFFFFEB 		bl	_Z9ssp1Writeh
ARM GAS  /cygdrive/c/Users/Chris/AppData/Local/Temp/ccywwp4x.s 			page 7


 216              		.loc 1 123 0
 217 0024 0400A0E1 		mov	r0, r4
 218 0028 FEFFFFEB 		bl	_Z9ssp1Writeh
 219 002c 0040A0E3 		mov	r4, #0
 220              	.LVL10:
 221 0030 020000EA 		b	.L21
 222              	.L22:
 124:eeprom.cpp    ****    
 125:eeprom.cpp    ****    /* Store the bytes from EEPROM */   
 126:eeprom.cpp    ****    for (ii=0; ii< length; ii++) {      
 127:eeprom.cpp    ****       dataDest[ii] = ssp1Read();
 223              		.loc 1 127 0
 224 0034 FEFFFFEB 		bl	_Z8ssp1Readv
 225 0038 0400C6E7 		strb	r0, [r6, r4]
 226              		.loc 1 126 0
 227 003c 014084E2 		add	r4, r4, #1
 228              	.L21:
 229 0040 050054E1 		cmp	r4, r5
 230 0044 FAFFFF3A 		bcc	.L22
 231              	.LBE5:
 128:eeprom.cpp    ****    }
 129:eeprom.cpp    **** 
 130:eeprom.cpp    ****    return 1;
 131:eeprom.cpp    **** } ...
 232              		.loc 1 131 0
 233 0048 0100A0E3 		mov	r0, #1
 234 004c 7040BDE8 		ldmfd	sp!, {r4, r5, r6, lr}
 235 0050 1EFF2FE1 		bx	lr
 236              	.LFE6:
 237              		.size	_Z10eepromReadPhtm, .-_Z10eepromReadPhtm
 238              		.section	.debug_frame,"",%progbits
 239              	.Lframe0:
 240 0000 0C000000 		.4byte	.LECIE0-.LSCIE0
 241              	.LSCIE0:
 242 0004 FFFFFFFF 		.4byte	0xffffffff
 243 0008 01       		.byte	0x1
 244 0009 00       		.ascii	"\000"
 245 000a 01       		.uleb128 0x1
 246 000b 7C       		.sleb128 -4
 247 000c 0E       		.byte	0xe
 248 000d 0C       		.byte	0xc
 249 000e 0D       		.uleb128 0xd
 250 000f 00       		.uleb128 0x0
 251              		.align	2
 252              	.LECIE0:
 253              	.LSFDE0:
 254 0010 0C000000 		.4byte	.LEFDE0-.LASFDE0
 255              	.LASFDE0:
 256 0014 00000000 		.4byte	.Lframe0
 257 0018 00000000 		.4byte	.LFB2
 258 001c 38000000 		.4byte	.LFE2-.LFB2
 259              		.align	2
 260              	.LEFDE0:
 261              	.LSFDE2:
 262 0020 0C000000 		.4byte	.LEFDE2-.LASFDE2
 263              	.LASFDE2:
 264 0024 00000000 		.4byte	.Lframe0
ARM GAS  /cygdrive/c/Users/Chris/AppData/Local/Temp/ccywwp4x.s 			page 8


 265 0028 00000000 		.4byte	.LFB3
 266 002c 1C000000 		.4byte	.LFE3-.LFB3
 267              		.align	2
 268              	.LEFDE2:
 269              	.LSFDE4:
 270 0030 14000000 		.4byte	.LEFDE4-.LASFDE4
 271              	.LASFDE4:
 272 0034 00000000 		.4byte	.Lframe0
 273 0038 00000000 		.4byte	.LFB4
 274 003c 30000000 		.4byte	.LFE4-.LFB4
 275 0040 44       		.byte	0x4
 276              		.4byte	.LCFI0-.LFB4
 277 0041 0E       		.byte	0xe
 278 0042 08       		.uleb128 0x8
 279 0043 8E       		.byte	0x8e
 280 0044 01       		.uleb128 0x1
 281 0045 84       		.byte	0x84
 282 0046 02       		.uleb128 0x2
 283 0047 00       		.align	2
 284              	.LEFDE4:
 285              	.LSFDE6:
 286 0048 18000000 		.4byte	.LEFDE6-.LASFDE6
 287              	.LASFDE6:
 288 004c 00000000 		.4byte	.Lframe0
 289 0050 00000000 		.4byte	.LFB5
 290 0054 64000000 		.4byte	.LFE5-.LFB5
 291 0058 44       		.byte	0x4
 292              		.4byte	.LCFI1-.LFB5
 293 0059 0E       		.byte	0xe
 294 005a 10       		.uleb128 0x10
 295 005b 8E       		.byte	0x8e
 296 005c 01       		.uleb128 0x1
 297 005d 86       		.byte	0x86
 298 005e 02       		.uleb128 0x2
 299 005f 85       		.byte	0x85
 300 0060 03       		.uleb128 0x3
 301 0061 84       		.byte	0x84
 302 0062 04       		.uleb128 0x4
 303 0063 00       		.align	2
 304              	.LEFDE6:
 305              	.LSFDE8:
 306 0064 18000000 		.4byte	.LEFDE8-.LASFDE8
 307              	.LASFDE8:
 308 0068 00000000 		.4byte	.Lframe0
 309 006c 00000000 		.4byte	.LFB6
 310 0070 54000000 		.4byte	.LFE6-.LFB6
 311 0074 44       		.byte	0x4
 312              		.4byte	.LCFI2-.LFB6
 313 0075 0E       		.byte	0xe
 314 0076 10       		.uleb128 0x10
 315 0077 8E       		.byte	0x8e
 316 0078 01       		.uleb128 0x1
 317 0079 86       		.byte	0x86
 318 007a 02       		.uleb128 0x2
 319 007b 85       		.byte	0x85
 320 007c 03       		.uleb128 0x3
 321 007d 84       		.byte	0x84
ARM GAS  /cygdrive/c/Users/Chris/AppData/Local/Temp/ccywwp4x.s 			page 9


 322 007e 04       		.uleb128 0x4
 323 007f 00       		.align	2
 324              	.LEFDE8:
 325              		.text
 326              	.Letext0:
 327              		.section	.debug_loc,"",%progbits
 328              	.Ldebug_loc0:
 329              	.LLST2:
 330 0000 00000000 		.4byte	.LFB4
 331 0004 04000000 		.4byte	.LCFI0
 332 0008 0100     		.2byte	0x1
 333 000a 5D       		.byte	0x5d
 334 000b 04000000 		.4byte	.LCFI0
 335 000f 30000000 		.4byte	.LFE4
 336 0013 0200     		.2byte	0x2
 337 0015 7D       		.byte	0x7d
 338 0016 08       		.sleb128 8
 339 0017 00000000 		.4byte	0x0
 340 001b 00000000 		.4byte	0x0
 341              	.LLST3:
 342 001f 00000000 		.4byte	.LFB5
 343 0023 04000000 		.4byte	.LCFI1
 344 0027 0100     		.2byte	0x1
 345 0029 5D       		.byte	0x5d
 346 002a 04000000 		.4byte	.LCFI1
 347 002e 64000000 		.4byte	.LFE5
 348 0032 0200     		.2byte	0x2
 349 0034 7D       		.byte	0x7d
 350 0035 10       		.sleb128 16
 351 0036 00000000 		.4byte	0x0
 352 003a 00000000 		.4byte	0x0
 353              	.LLST4:
 354 003e 00000000 		.4byte	.LVL1
 355 0042 0C000000 		.4byte	.LVL2
 356 0046 0100     		.2byte	0x1
 357 0048 50       		.byte	0x50
 358 0049 0C000000 		.4byte	.LVL2
 359 004d 30000000 		.4byte	.LVL4
 360 0051 0100     		.2byte	0x1
 361 0053 54       		.byte	0x54
 362 0054 00000000 		.4byte	0x0
 363 0058 00000000 		.4byte	0x0
 364              	.LLST5:
 365 005c 00000000 		.4byte	.LVL1
 366 0060 18000000 		.4byte	.LVL3
 367 0064 0100     		.2byte	0x1
 368 0066 51       		.byte	0x51
 369 0067 18000000 		.4byte	.LVL3
 370 006b 64000000 		.4byte	.LFE5
 371 006f 0100     		.2byte	0x1
 372 0071 56       		.byte	0x56
 373 0072 00000000 		.4byte	0x0
 374 0076 00000000 		.4byte	0x0
 375              	.LLST6:
 376 007a 00000000 		.4byte	.LVL1
 377 007e 18000000 		.4byte	.LVL3
 378 0082 0100     		.2byte	0x1
ARM GAS  /cygdrive/c/Users/Chris/AppData/Local/Temp/ccywwp4x.s 			page 10


 379 0084 52       		.byte	0x52
 380 0085 18000000 		.4byte	.LVL3
 381 0089 64000000 		.4byte	.LFE5
 382 008d 0100     		.2byte	0x1
 383 008f 55       		.byte	0x55
 384 0090 00000000 		.4byte	0x0
 385 0094 00000000 		.4byte	0x0
 386              	.LLST7:
 387 0098 00000000 		.4byte	.LFB6
 388 009c 04000000 		.4byte	.LCFI2
 389 00a0 0100     		.2byte	0x1
 390 00a2 5D       		.byte	0x5d
 391 00a3 04000000 		.4byte	.LCFI2
 392 00a7 54000000 		.4byte	.LFE6
 393 00ab 0200     		.2byte	0x2
 394 00ad 7D       		.byte	0x7d
 395 00ae 10       		.sleb128 16
 396 00af 00000000 		.4byte	0x0
 397 00b3 00000000 		.4byte	0x0
 398              	.LLST8:
 399 00b7 00000000 		.4byte	.LVL6
 400 00bb 10000000 		.4byte	.LVL7
 401 00bf 0100     		.2byte	0x1
 402 00c1 50       		.byte	0x50
 403 00c2 10000000 		.4byte	.LVL7
 404 00c6 54000000 		.4byte	.LFE6
 405 00ca 0100     		.2byte	0x1
 406 00cc 56       		.byte	0x56
 407 00cd 00000000 		.4byte	0x0
 408 00d1 00000000 		.4byte	0x0
 409              	.LLST9:
 410 00d5 00000000 		.4byte	.LVL6
 411 00d9 18000000 		.4byte	.LVL8
 412 00dd 0100     		.2byte	0x1
 413 00df 51       		.byte	0x51
 414 00e0 18000000 		.4byte	.LVL8
 415 00e4 20000000 		.4byte	.LVL9
 416 00e8 0100     		.2byte	0x1
 417 00ea 54       		.byte	0x54
 418 00eb 00000000 		.4byte	0x0
 419 00ef 00000000 		.4byte	0x0
 420              	.LLST10:
 421 00f3 00000000 		.4byte	.LVL6
 422 00f7 18000000 		.4byte	.LVL8
 423 00fb 0100     		.2byte	0x1
 424 00fd 52       		.byte	0x52
 425 00fe 18000000 		.4byte	.LVL8
 426 0102 54000000 		.4byte	.LFE6
 427 0106 0100     		.2byte	0x1
 428 0108 55       		.byte	0x55
 429 0109 00000000 		.4byte	0x0
 430 010d 00000000 		.4byte	0x0
 431              		.file 2 "/cygdrive/f/ARM2008q3-66-GPL/build/install/Bin/../lib/gcc/arm-none-eabi/4.3.2/../../../..
 432              		.section	.debug_info
 433 0000 FD010000 		.4byte	0x1fd
 434 0004 0200     		.2byte	0x2
 435 0006 00000000 		.4byte	.Ldebug_abbrev0
ARM GAS  /cygdrive/c/Users/Chris/AppData/Local/Temp/ccywwp4x.s 			page 11


 436 000a 04       		.byte	0x4
 437 000b 01       		.uleb128 0x1
 438 000c 4A000000 		.4byte	.LASF29
 439 0010 04       		.byte	0x4
 440 0011 10000000 		.4byte	.LASF30
 441 0015 A3000000 		.4byte	.LASF31
 442 0019 00000000 		.4byte	0x0
 443 001d 00000000 		.4byte	0x0
 444 0021 00000000 		.4byte	.Ldebug_ranges0+0x0
 445 0025 00000000 		.4byte	.Ldebug_line0
 446 0029 02       		.uleb128 0x2
 447 002a 01       		.byte	0x1
 448 002b 06       		.byte	0x6
 449 002c B6010000 		.4byte	.LASF0
 450 0030 03       		.uleb128 0x3
 451 0031 30000000 		.4byte	.LASF3
 452 0035 02       		.byte	0x2
 453 0036 2E       		.byte	0x2e
 454 0037 3B000000 		.4byte	0x3b
 455 003b 02       		.uleb128 0x2
 456 003c 01       		.byte	0x1
 457 003d 08       		.byte	0x8
 458 003e 5D000000 		.4byte	.LASF1
 459 0042 02       		.uleb128 0x2
 460 0043 02       		.byte	0x2
 461 0044 05       		.byte	0x5
 462 0045 77010000 		.4byte	.LASF2
 463 0049 03       		.uleb128 0x3
 464 004a 81010000 		.4byte	.LASF4
 465 004e 02       		.byte	0x2
 466 004f 3A       		.byte	0x3a
 467 0050 54000000 		.4byte	0x54
 468 0054 02       		.uleb128 0x2
 469 0055 02       		.byte	0x2
 470 0056 07       		.byte	0x7
 471 0057 7D000000 		.4byte	.LASF5
 472 005b 02       		.uleb128 0x2
 473 005c 04       		.byte	0x4
 474 005d 05       		.byte	0x5
 475 005e A3010000 		.4byte	.LASF6
 476 0062 03       		.uleb128 0x3
 477 0063 9A010000 		.4byte	.LASF7
 478 0067 02       		.byte	0x2
 479 0068 54       		.byte	0x54
 480 0069 6D000000 		.4byte	0x6d
 481 006d 02       		.uleb128 0x2
 482 006e 04       		.byte	0x4
 483 006f 07       		.byte	0x7
 484 0070 6B000000 		.4byte	.LASF8
 485 0074 02       		.uleb128 0x2
 486 0075 08       		.byte	0x8
 487 0076 05       		.byte	0x5
 488 0077 5C010000 		.4byte	.LASF9
 489 007b 02       		.uleb128 0x2
 490 007c 08       		.byte	0x8
 491 007d 07       		.byte	0x7
 492 007e FD000000 		.4byte	.LASF10
ARM GAS  /cygdrive/c/Users/Chris/AppData/Local/Temp/ccywwp4x.s 			page 12


 493 0082 04       		.uleb128 0x4
 494 0083 04       		.byte	0x4
 495 0084 05       		.byte	0x5
 496 0085 696E7400 		.ascii	"int\000"
 497 0089 02       		.uleb128 0x2
 498 008a 04       		.byte	0x4
 499 008b 07       		.byte	0x7
 500 008c E8000000 		.4byte	.LASF11
 501 0090 05       		.uleb128 0x5
 502 0091 04       		.byte	0x4
 503 0092 07       		.byte	0x7
 504 0093 02       		.uleb128 0x2
 505 0094 01       		.byte	0x1
 506 0095 08       		.byte	0x8
 507 0096 0B000000 		.4byte	.LASF12
 508 009a 06       		.uleb128 0x6
 509 009b 01       		.byte	0x1
 510 009c 00000000 		.4byte	.LASF32
 511 00a0 01       		.byte	0x1
 512 00a1 11       		.byte	0x11
 513 00a2 8A010000 		.4byte	.LASF33
 514 00a6 00000000 		.4byte	.LFB2
 515 00aa 38000000 		.4byte	.LFE2
 516 00ae 01       		.byte	0x1
 517 00af 5D       		.byte	0x5d
 518 00b0 07       		.uleb128 0x7
 519 00b1 01       		.byte	0x1
 520 00b2 AC010000 		.4byte	.LASF34
 521 00b6 01       		.byte	0x1
 522 00b7 22       		.byte	0x22
 523 00b8 C2010000 		.4byte	.LASF35
 524 00bc 00000000 		.4byte	.LFB3
 525 00c0 1C000000 		.4byte	.LFE3
 526 00c4 01       		.byte	0x1
 527 00c5 5D       		.byte	0x5d
 528 00c6 D8000000 		.4byte	0xd8
 529 00ca 08       		.uleb128 0x8
 530 00cb 58000000 		.4byte	.LASF13
 531 00cf 01       		.byte	0x1
 532 00d0 22       		.byte	0x22
 533 00d1 30000000 		.4byte	0x30
 534 00d5 01       		.byte	0x1
 535 00d6 50       		.byte	0x50
 536 00d7 00       		.byte	0x0
 537 00d8 09       		.uleb128 0x9
 538 00d9 01       		.byte	0x1
 539 00da 53010000 		.4byte	.LASF36
 540 00de 01       		.byte	0x1
 541 00df 31       		.byte	0x31
 542 00e0 6A010000 		.4byte	.LASF37
 543 00e4 30000000 		.4byte	0x30
 544 00e8 00000000 		.4byte	.LFB4
 545 00ec 30000000 		.4byte	.LFE4
 546 00f0 00000000 		.4byte	.LLST2
 547 00f4 0A       		.uleb128 0xa
 548 00f5 01       		.byte	0x1
 549 00f6 1B000000 		.4byte	.LASF17
ARM GAS  /cygdrive/c/Users/Chris/AppData/Local/Temp/ccywwp4x.s 			page 13


 550 00fa 01       		.byte	0x1
 551 00fb 4B       		.byte	0x4b
 552 00fc 3F010000 		.4byte	.LASF19
 553 0100 82000000 		.4byte	0x82
 554 0104 00000000 		.4byte	.LFB5
 555 0108 64000000 		.4byte	.LFE5
 556 010c 1F000000 		.4byte	.LLST3
 557 0110 4E010000 		.4byte	0x14e
 558 0114 0B       		.uleb128 0xb
 559 0115 DD000000 		.4byte	.LASF14
 560 0119 01       		.byte	0x1
 561 011a 4B       		.byte	0x4b
 562 011b 49000000 		.4byte	0x49
 563 011f 3E000000 		.4byte	.LLST4
 564 0123 0B       		.uleb128 0xb
 565 0124 42000000 		.4byte	.LASF15
 566 0128 01       		.byte	0x1
 567 0129 4B       		.byte	0x4b
 568 012a 4E010000 		.4byte	0x14e
 569 012e 5C000000 		.4byte	.LLST5
 570 0132 0B       		.uleb128 0xb
 571 0133 D0010000 		.4byte	.LASF16
 572 0137 01       		.byte	0x1
 573 0138 4B       		.byte	0x4b
 574 0139 62000000 		.4byte	0x62
 575 013d 7A000000 		.4byte	.LLST6
 576 0141 0C       		.uleb128 0xc
 577 0142 696900   		.ascii	"ii\000"
 578 0145 01       		.byte	0x1
 579 0146 4D       		.byte	0x4d
 580 0147 62000000 		.4byte	0x62
 581 014b 01       		.byte	0x1
 582 014c 54       		.byte	0x54
 583 014d 00       		.byte	0x0
 584 014e 0D       		.uleb128 0xd
 585 014f 53010000 		.4byte	0x153
 586 0153 0E       		.uleb128 0xe
 587 0154 04       		.byte	0x4
 588 0155 30000000 		.4byte	0x30
 589 0159 0A       		.uleb128 0xa
 590 015a 01       		.byte	0x1
 591 015b 90000000 		.4byte	.LASF18
 592 015f 01       		.byte	0x1
 593 0160 6F       		.byte	0x6f
 594 0161 14010000 		.4byte	.LASF20
 595 0165 82000000 		.4byte	0x82
 596 0169 00000000 		.4byte	.LFB6
 597 016d 54000000 		.4byte	.LFE6
 598 0171 98000000 		.4byte	.LLST7
 599 0175 B3010000 		.4byte	0x1b3
 600 0179 0B       		.uleb128 0xb
 601 017a D4000000 		.4byte	.LASF21
 602 017e 01       		.byte	0x1
 603 017f 6F       		.byte	0x6f
 604 0180 53010000 		.4byte	0x153
 605 0184 B7000000 		.4byte	.LLST8
 606 0188 0B       		.uleb128 0xb
ARM GAS  /cygdrive/c/Users/Chris/AppData/Local/Temp/ccywwp4x.s 			page 14


 607 0189 38000000 		.4byte	.LASF22
 608 018d 01       		.byte	0x1
 609 018e 6F       		.byte	0x6f
 610 018f 49000000 		.4byte	0x49
 611 0193 D5000000 		.4byte	.LLST9
 612 0197 0B       		.uleb128 0xb
 613 0198 D0010000 		.4byte	.LASF16
 614 019c 01       		.byte	0x1
 615 019d 6F       		.byte	0x6f
 616 019e 62000000 		.4byte	0x62
 617 01a2 F3000000 		.4byte	.LLST10
 618 01a6 0C       		.uleb128 0xc
 619 01a7 696900   		.ascii	"ii\000"
 620 01aa 01       		.byte	0x1
 621 01ab 72       		.byte	0x72
 622 01ac 62000000 		.4byte	0x62
 623 01b0 01       		.byte	0x1
 624 01b1 54       		.byte	0x54
 625 01b2 00       		.byte	0x0
 626 01b3 0F       		.uleb128 0xf
 627 01b4 9B000000 		.4byte	.LASF23
 628 01b8 01       		.byte	0x1
 629 01b9 06       		.byte	0x6
 630 01ba BF010000 		.4byte	0x1bf
 631 01be 03       		.byte	0x3
 632 01bf 0D       		.uleb128 0xd
 633 01c0 30000000 		.4byte	0x30
 634 01c4 0F       		.uleb128 0xf
 635 01c5 27000000 		.4byte	.LASF24
 636 01c9 01       		.byte	0x1
 637 01ca 07       		.byte	0x7
 638 01cb BF010000 		.4byte	0x1bf
 639 01cf 02       		.byte	0x2
 640 01d0 0F       		.uleb128 0xf
 641 01d1 37010000 		.4byte	.LASF25
 642 01d5 01       		.byte	0x1
 643 01d6 08       		.byte	0x8
 644 01d7 BF010000 		.4byte	0x1bf
 645 01db 03       		.byte	0x3
 646 01dc 0F       		.uleb128 0xf
 647 01dd F5000000 		.4byte	.LASF26
 648 01e1 01       		.byte	0x1
 649 01e2 09       		.byte	0x9
 650 01e3 BF010000 		.4byte	0x1bf
 651 01e7 02       		.byte	0x2
 652 01e8 0F       		.uleb128 0xf
 653 01e9 2F010000 		.4byte	.LASF27
 654 01ed 01       		.byte	0x1
 655 01ee 0A       		.byte	0xa
 656 01ef BF010000 		.4byte	0x1bf
 657 01f3 05       		.byte	0x5
 658 01f4 0F       		.uleb128 0xf
 659 01f5 27010000 		.4byte	.LASF28
 660 01f9 01       		.byte	0x1
 661 01fa 0B       		.byte	0xb
 662 01fb BF010000 		.4byte	0x1bf
 663 01ff 01       		.byte	0x1
ARM GAS  /cygdrive/c/Users/Chris/AppData/Local/Temp/ccywwp4x.s 			page 15


 664 0200 00       		.byte	0x0
 665              		.section	.debug_abbrev
 666 0000 01       		.uleb128 0x1
 667 0001 11       		.uleb128 0x11
 668 0002 01       		.byte	0x1
 669 0003 25       		.uleb128 0x25
 670 0004 0E       		.uleb128 0xe
 671 0005 13       		.uleb128 0x13
 672 0006 0B       		.uleb128 0xb
 673 0007 03       		.uleb128 0x3
 674 0008 0E       		.uleb128 0xe
 675 0009 1B       		.uleb128 0x1b
 676 000a 0E       		.uleb128 0xe
 677 000b 11       		.uleb128 0x11
 678 000c 01       		.uleb128 0x1
 679 000d 52       		.uleb128 0x52
 680 000e 01       		.uleb128 0x1
 681 000f 55       		.uleb128 0x55
 682 0010 06       		.uleb128 0x6
 683 0011 10       		.uleb128 0x10
 684 0012 06       		.uleb128 0x6
 685 0013 00       		.byte	0x0
 686 0014 00       		.byte	0x0
 687 0015 02       		.uleb128 0x2
 688 0016 24       		.uleb128 0x24
 689 0017 00       		.byte	0x0
 690 0018 0B       		.uleb128 0xb
 691 0019 0B       		.uleb128 0xb
 692 001a 3E       		.uleb128 0x3e
 693 001b 0B       		.uleb128 0xb
 694 001c 03       		.uleb128 0x3
 695 001d 0E       		.uleb128 0xe
 696 001e 00       		.byte	0x0
 697 001f 00       		.byte	0x0
 698 0020 03       		.uleb128 0x3
 699 0021 16       		.uleb128 0x16
 700 0022 00       		.byte	0x0
 701 0023 03       		.uleb128 0x3
 702 0024 0E       		.uleb128 0xe
 703 0025 3A       		.uleb128 0x3a
 704 0026 0B       		.uleb128 0xb
 705 0027 3B       		.uleb128 0x3b
 706 0028 0B       		.uleb128 0xb
 707 0029 49       		.uleb128 0x49
 708 002a 13       		.uleb128 0x13
 709 002b 00       		.byte	0x0
 710 002c 00       		.byte	0x0
 711 002d 04       		.uleb128 0x4
 712 002e 24       		.uleb128 0x24
 713 002f 00       		.byte	0x0
 714 0030 0B       		.uleb128 0xb
 715 0031 0B       		.uleb128 0xb
 716 0032 3E       		.uleb128 0x3e
 717 0033 0B       		.uleb128 0xb
 718 0034 03       		.uleb128 0x3
 719 0035 08       		.uleb128 0x8
 720 0036 00       		.byte	0x0
ARM GAS  /cygdrive/c/Users/Chris/AppData/Local/Temp/ccywwp4x.s 			page 16


 721 0037 00       		.byte	0x0
 722 0038 05       		.uleb128 0x5
 723 0039 24       		.uleb128 0x24
 724 003a 00       		.byte	0x0
 725 003b 0B       		.uleb128 0xb
 726 003c 0B       		.uleb128 0xb
 727 003d 3E       		.uleb128 0x3e
 728 003e 0B       		.uleb128 0xb
 729 003f 00       		.byte	0x0
 730 0040 00       		.byte	0x0
 731 0041 06       		.uleb128 0x6
 732 0042 2E       		.uleb128 0x2e
 733 0043 00       		.byte	0x0
 734 0044 3F       		.uleb128 0x3f
 735 0045 0C       		.uleb128 0xc
 736 0046 03       		.uleb128 0x3
 737 0047 0E       		.uleb128 0xe
 738 0048 3A       		.uleb128 0x3a
 739 0049 0B       		.uleb128 0xb
 740 004a 3B       		.uleb128 0x3b
 741 004b 0B       		.uleb128 0xb
 742 004c 8740     		.uleb128 0x2007
 743 004e 0E       		.uleb128 0xe
 744 004f 11       		.uleb128 0x11
 745 0050 01       		.uleb128 0x1
 746 0051 12       		.uleb128 0x12
 747 0052 01       		.uleb128 0x1
 748 0053 40       		.uleb128 0x40
 749 0054 0A       		.uleb128 0xa
 750 0055 00       		.byte	0x0
 751 0056 00       		.byte	0x0
 752 0057 07       		.uleb128 0x7
 753 0058 2E       		.uleb128 0x2e
 754 0059 01       		.byte	0x1
 755 005a 3F       		.uleb128 0x3f
 756 005b 0C       		.uleb128 0xc
 757 005c 03       		.uleb128 0x3
 758 005d 0E       		.uleb128 0xe
 759 005e 3A       		.uleb128 0x3a
 760 005f 0B       		.uleb128 0xb
 761 0060 3B       		.uleb128 0x3b
 762 0061 0B       		.uleb128 0xb
 763 0062 8740     		.uleb128 0x2007
 764 0064 0E       		.uleb128 0xe
 765 0065 11       		.uleb128 0x11
 766 0066 01       		.uleb128 0x1
 767 0067 12       		.uleb128 0x12
 768 0068 01       		.uleb128 0x1
 769 0069 40       		.uleb128 0x40
 770 006a 0A       		.uleb128 0xa
 771 006b 01       		.uleb128 0x1
 772 006c 13       		.uleb128 0x13
 773 006d 00       		.byte	0x0
 774 006e 00       		.byte	0x0
 775 006f 08       		.uleb128 0x8
 776 0070 05       		.uleb128 0x5
 777 0071 00       		.byte	0x0
ARM GAS  /cygdrive/c/Users/Chris/AppData/Local/Temp/ccywwp4x.s 			page 17


 778 0072 03       		.uleb128 0x3
 779 0073 0E       		.uleb128 0xe
 780 0074 3A       		.uleb128 0x3a
 781 0075 0B       		.uleb128 0xb
 782 0076 3B       		.uleb128 0x3b
 783 0077 0B       		.uleb128 0xb
 784 0078 49       		.uleb128 0x49
 785 0079 13       		.uleb128 0x13
 786 007a 02       		.uleb128 0x2
 787 007b 0A       		.uleb128 0xa
 788 007c 00       		.byte	0x0
 789 007d 00       		.byte	0x0
 790 007e 09       		.uleb128 0x9
 791 007f 2E       		.uleb128 0x2e
 792 0080 00       		.byte	0x0
 793 0081 3F       		.uleb128 0x3f
 794 0082 0C       		.uleb128 0xc
 795 0083 03       		.uleb128 0x3
 796 0084 0E       		.uleb128 0xe
 797 0085 3A       		.uleb128 0x3a
 798 0086 0B       		.uleb128 0xb
 799 0087 3B       		.uleb128 0x3b
 800 0088 0B       		.uleb128 0xb
 801 0089 8740     		.uleb128 0x2007
 802 008b 0E       		.uleb128 0xe
 803 008c 49       		.uleb128 0x49
 804 008d 13       		.uleb128 0x13
 805 008e 11       		.uleb128 0x11
 806 008f 01       		.uleb128 0x1
 807 0090 12       		.uleb128 0x12
 808 0091 01       		.uleb128 0x1
 809 0092 40       		.uleb128 0x40
 810 0093 06       		.uleb128 0x6
 811 0094 00       		.byte	0x0
 812 0095 00       		.byte	0x0
 813 0096 0A       		.uleb128 0xa
 814 0097 2E       		.uleb128 0x2e
 815 0098 01       		.byte	0x1
 816 0099 3F       		.uleb128 0x3f
 817 009a 0C       		.uleb128 0xc
 818 009b 03       		.uleb128 0x3
 819 009c 0E       		.uleb128 0xe
 820 009d 3A       		.uleb128 0x3a
 821 009e 0B       		.uleb128 0xb
 822 009f 3B       		.uleb128 0x3b
 823 00a0 0B       		.uleb128 0xb
 824 00a1 8740     		.uleb128 0x2007
 825 00a3 0E       		.uleb128 0xe
 826 00a4 49       		.uleb128 0x49
 827 00a5 13       		.uleb128 0x13
 828 00a6 11       		.uleb128 0x11
 829 00a7 01       		.uleb128 0x1
 830 00a8 12       		.uleb128 0x12
 831 00a9 01       		.uleb128 0x1
 832 00aa 40       		.uleb128 0x40
 833 00ab 06       		.uleb128 0x6
 834 00ac 01       		.uleb128 0x1
ARM GAS  /cygdrive/c/Users/Chris/AppData/Local/Temp/ccywwp4x.s 			page 18


 835 00ad 13       		.uleb128 0x13
 836 00ae 00       		.byte	0x0
 837 00af 00       		.byte	0x0
 838 00b0 0B       		.uleb128 0xb
 839 00b1 05       		.uleb128 0x5
 840 00b2 00       		.byte	0x0
 841 00b3 03       		.uleb128 0x3
 842 00b4 0E       		.uleb128 0xe
 843 00b5 3A       		.uleb128 0x3a
 844 00b6 0B       		.uleb128 0xb
 845 00b7 3B       		.uleb128 0x3b
 846 00b8 0B       		.uleb128 0xb
 847 00b9 49       		.uleb128 0x49
 848 00ba 13       		.uleb128 0x13
 849 00bb 02       		.uleb128 0x2
 850 00bc 06       		.uleb128 0x6
 851 00bd 00       		.byte	0x0
 852 00be 00       		.byte	0x0
 853 00bf 0C       		.uleb128 0xc
 854 00c0 34       		.uleb128 0x34
 855 00c1 00       		.byte	0x0
 856 00c2 03       		.uleb128 0x3
 857 00c3 08       		.uleb128 0x8
 858 00c4 3A       		.uleb128 0x3a
 859 00c5 0B       		.uleb128 0xb
 860 00c6 3B       		.uleb128 0x3b
 861 00c7 0B       		.uleb128 0xb
 862 00c8 49       		.uleb128 0x49
 863 00c9 13       		.uleb128 0x13
 864 00ca 02       		.uleb128 0x2
 865 00cb 0A       		.uleb128 0xa
 866 00cc 00       		.byte	0x0
 867 00cd 00       		.byte	0x0
 868 00ce 0D       		.uleb128 0xd
 869 00cf 26       		.uleb128 0x26
 870 00d0 00       		.byte	0x0
 871 00d1 49       		.uleb128 0x49
 872 00d2 13       		.uleb128 0x13
 873 00d3 00       		.byte	0x0
 874 00d4 00       		.byte	0x0
 875 00d5 0E       		.uleb128 0xe
 876 00d6 0F       		.uleb128 0xf
 877 00d7 00       		.byte	0x0
 878 00d8 0B       		.uleb128 0xb
 879 00d9 0B       		.uleb128 0xb
 880 00da 49       		.uleb128 0x49
 881 00db 13       		.uleb128 0x13
 882 00dc 00       		.byte	0x0
 883 00dd 00       		.byte	0x0
 884 00de 0F       		.uleb128 0xf
 885 00df 34       		.uleb128 0x34
 886 00e0 00       		.byte	0x0
 887 00e1 03       		.uleb128 0x3
 888 00e2 0E       		.uleb128 0xe
 889 00e3 3A       		.uleb128 0x3a
 890 00e4 0B       		.uleb128 0xb
 891 00e5 3B       		.uleb128 0x3b
ARM GAS  /cygdrive/c/Users/Chris/AppData/Local/Temp/ccywwp4x.s 			page 19


 892 00e6 0B       		.uleb128 0xb
 893 00e7 49       		.uleb128 0x49
 894 00e8 13       		.uleb128 0x13
 895 00e9 1C       		.uleb128 0x1c
 896 00ea 0B       		.uleb128 0xb
 897 00eb 00       		.byte	0x0
 898 00ec 00       		.byte	0x0
 899 00ed 00       		.byte	0x0
 900              		.section	.debug_pubnames,"",%progbits
 901 0000 57000000 		.4byte	0x57
 902 0004 0200     		.2byte	0x2
 903 0006 00000000 		.4byte	.Ldebug_info0
 904 000a 01020000 		.4byte	0x201
 905 000e 9A000000 		.4byte	0x9a
 906 0012 65657072 		.ascii	"eepromInit\000"
 906      6F6D496E 
 906      697400
 907 001d B0000000 		.4byte	0xb0
 908 0021 73737031 		.ascii	"ssp1Write\000"
 908      57726974 
 908      6500
 909 002b D8000000 		.4byte	0xd8
 910 002f 73737031 		.ascii	"ssp1Read\000"
 910      52656164 
 910      00
 911 0038 F4000000 		.4byte	0xf4
 912 003c 65657072 		.ascii	"eepromWrite\000"
 912      6F6D5772 
 912      69746500 
 913 0048 59010000 		.4byte	0x159
 914 004c 65657072 		.ascii	"eepromRead\000"
 914      6F6D5265 
 914      616400
 915 0057 00000000 		.4byte	0x0
 916              		.section	.debug_aranges,"",%progbits
 917 0000 3C000000 		.4byte	0x3c
 918 0004 0200     		.2byte	0x2
 919 0006 00000000 		.4byte	.Ldebug_info0
 920 000a 04       		.byte	0x4
 921 000b 00       		.byte	0x0
 922 000c 0000     		.2byte	0x0
 923 000e 0000     		.2byte	0x0
 924 0010 00000000 		.4byte	.LFB2
 925 0014 38000000 		.4byte	.LFE2-.LFB2
 926 0018 00000000 		.4byte	.LFB3
 927 001c 1C000000 		.4byte	.LFE3-.LFB3
 928 0020 00000000 		.4byte	.LFB4
 929 0024 30000000 		.4byte	.LFE4-.LFB4
 930 0028 00000000 		.4byte	.LFB5
 931 002c 64000000 		.4byte	.LFE5-.LFB5
 932 0030 00000000 		.4byte	.LFB6
 933 0034 54000000 		.4byte	.LFE6-.LFB6
 934 0038 00000000 		.4byte	0x0
 935 003c 00000000 		.4byte	0x0
 936              		.section	.debug_ranges,"",%progbits
 937              	.Ldebug_ranges0:
 938 0000 00000000 		.4byte	.Ltext0
ARM GAS  /cygdrive/c/Users/Chris/AppData/Local/Temp/ccywwp4x.s 			page 20


 939 0004 00000000 		.4byte	.Letext0
 940 0008 00000000 		.4byte	.LFB2
 941 000c 38000000 		.4byte	.LFE2
 942 0010 00000000 		.4byte	.LFB3
 943 0014 1C000000 		.4byte	.LFE3
 944 0018 00000000 		.4byte	.LFB4
 945 001c 30000000 		.4byte	.LFE4
 946 0020 00000000 		.4byte	.LFB5
 947 0024 64000000 		.4byte	.LFE5
 948 0028 00000000 		.4byte	.LFB6
 949 002c 54000000 		.4byte	.LFE6
 950 0030 00000000 		.4byte	0x0
 951 0034 00000000 		.4byte	0x0
 952              		.section	.debug_str,"MS",%progbits,1
 953              	.LASF32:
 954 0000 65657072 		.ascii	"eepromInit\000"
 954      6F6D496E 
 954      697400
 955              	.LASF12:
 956 000b 63686172 		.ascii	"char\000"
 956      00
 957              	.LASF30:
 958 0010 65657072 		.ascii	"eeprom.cpp\000"
 958      6F6D2E63 
 958      707000
 959              	.LASF17:
 960 001b 65657072 		.ascii	"eepromWrite\000"
 960      6F6D5772 
 960      69746500 
 961              	.LASF24:
 962 0027 6B454557 		.ascii	"kEEWRITE\000"
 962      52495445 
 962      00
 963              	.LASF3:
 964 0030 75696E74 		.ascii	"uint8_t\000"
 964      385F7400 
 965              	.LASF22:
 966 0038 64617461 		.ascii	"dataEESrc\000"
 966      45455372 
 966      6300
 967              	.LASF15:
 968 0042 64617461 		.ascii	"dataSrc\000"
 968      53726300 
 969              	.LASF29:
 970 004a 474E5520 		.ascii	"GNU C++ 4.3.2\000"
 970      432B2B20 
 970      342E332E 
 970      3200
 971              	.LASF13:
 972 0058 64617461 		.ascii	"data\000"
 972      00
 973              	.LASF1:
 974 005d 756E7369 		.ascii	"unsigned char\000"
 974      676E6564 
 974      20636861 
 974      7200
 975              	.LASF8:
ARM GAS  /cygdrive/c/Users/Chris/AppData/Local/Temp/ccywwp4x.s 			page 21


 976 006b 6C6F6E67 		.ascii	"long unsigned int\000"
 976      20756E73 
 976      69676E65 
 976      6420696E 
 976      7400
 977              	.LASF5:
 978 007d 73686F72 		.ascii	"short unsigned int\000"
 978      7420756E 
 978      7369676E 
 978      65642069 
 978      6E7400
 979              	.LASF18:
 980 0090 65657072 		.ascii	"eepromRead\000"
 980      6F6D5265 
 980      616400
 981              	.LASF23:
 982 009b 6B454552 		.ascii	"kEEREAD\000"
 982      45414400 
 983              	.LASF31:
 984 00a3 2F637967 		.ascii	"/cygdrive/c/Users/Chris/Desktop/sfboot2.0/sfboot\000"
 984      64726976 
 984      652F632F 
 984      55736572 
 984      732F4368 
 985              	.LASF21:
 986 00d4 64617461 		.ascii	"dataDest\000"
 986      44657374 
 986      00
 987              	.LASF14:
 988 00dd 64617461 		.ascii	"dataEEDest\000"
 988      45454465 
 988      737400
 989              	.LASF11:
 990 00e8 756E7369 		.ascii	"unsigned int\000"
 990      676E6564 
 990      20696E74 
 990      00
 991              	.LASF26:
 992 00f5 6B454557 		.ascii	"kEEWREN\000"
 992      52454E00 
 993              	.LASF10:
 994 00fd 6C6F6E67 		.ascii	"long long unsigned int\000"
 994      206C6F6E 
 994      6720756E 
 994      7369676E 
 994      65642069 
 995              	.LASF20:
 996 0114 5F5A3130 		.ascii	"_Z10eepromReadPhtm\000"
 996      65657072 
 996      6F6D5265 
 996      61645068 
 996      746D00
 997              	.LASF28:
 998 0127 6B454557 		.ascii	"kEEWRSR\000"
 998      52535200 
 999              	.LASF27:
 1000 012f 6B454552 		.ascii	"kEERDSR\000"
ARM GAS  /cygdrive/c/Users/Chris/AppData/Local/Temp/ccywwp4x.s 			page 22


 1000      44535200 
 1001              	.LASF25:
 1002 0137 6B454557 		.ascii	"kEEWRDI\000"
 1002      52444900 
 1003              	.LASF19:
 1004 013f 5F5A3131 		.ascii	"_Z11eepromWritetPhm\000"
 1004      65657072 
 1004      6F6D5772 
 1004      69746574 
 1004      50686D00 
 1005              	.LASF36:
 1006 0153 73737031 		.ascii	"ssp1Read\000"
 1006      52656164 
 1006      00
 1007              	.LASF9:
 1008 015c 6C6F6E67 		.ascii	"long long int\000"
 1008      206C6F6E 
 1008      6720696E 
 1008      7400
 1009              	.LASF37:
 1010 016a 5F5A3873 		.ascii	"_Z8ssp1Readv\000"
 1010      73703152 
 1010      65616476 
 1010      00
 1011              	.LASF2:
 1012 0177 73686F72 		.ascii	"short int\000"
 1012      7420696E 
 1012      7400
 1013              	.LASF4:
 1014 0181 75696E74 		.ascii	"uint16_t\000"
 1014      31365F74 
 1014      00
 1015              	.LASF33:
 1016 018a 5F5A3130 		.ascii	"_Z10eepromInitv\000"
 1016      65657072 
 1016      6F6D496E 
 1016      69747600 
 1017              	.LASF7:
 1018 019a 75696E74 		.ascii	"uint32_t\000"
 1018      33325F74 
 1018      00
 1019              	.LASF6:
 1020 01a3 6C6F6E67 		.ascii	"long int\000"
 1020      20696E74 
 1020      00
 1021              	.LASF34:
 1022 01ac 73737031 		.ascii	"ssp1Write\000"
 1022      57726974 
 1022      6500
 1023              	.LASF0:
 1024 01b6 7369676E 		.ascii	"signed char\000"
 1024      65642063 
 1024      68617200 
 1025              	.LASF35:
 1026 01c2 5F5A3973 		.ascii	"_Z9ssp1Writeh\000"
 1026      73703157 
 1026      72697465 
ARM GAS  /cygdrive/c/Users/Chris/AppData/Local/Temp/ccywwp4x.s 			page 23


 1026      6800
 1027              	.LASF16:
 1028 01d0 6C656E67 		.ascii	"length\000"
 1028      746800
 1029              		.ident	"GCC: (AHAX Arm-Linux 2008q3-66) 4.3.2"
ARM GAS  /cygdrive/c/Users/Chris/AppData/Local/Temp/ccywwp4x.s 			page 24


DEFINED SYMBOLS
                            *ABS*:00000000 eeprom.cpp
/cygdrive/c/Users/Chris/AppData/Local/Temp/ccywwp4x.s:24     .text._Z10eepromInitv:00000000 _Z10eepromInitv
/cygdrive/c/Users/Chris/AppData/Local/Temp/ccywwp4x.s:33     .text._Z10eepromInitv:00000000 $a
/cygdrive/c/Users/Chris/AppData/Local/Temp/ccywwp4x.s:54     .text._Z10eepromInitv:00000030 $d
/cygdrive/c/Users/Chris/AppData/Local/Temp/ccywwp4x.s:62     .text._Z9ssp1Writeh:00000000 _Z9ssp1Writeh
/cygdrive/c/Users/Chris/AppData/Local/Temp/ccywwp4x.s:72     .text._Z9ssp1Writeh:00000000 $a
/cygdrive/c/Users/Chris/AppData/Local/Temp/ccywwp4x.s:83     .text._Z9ssp1Writeh:00000018 $d
/cygdrive/c/Users/Chris/AppData/Local/Temp/ccywwp4x.s:90     .text._Z8ssp1Readv:00000000 _Z8ssp1Readv
/cygdrive/c/Users/Chris/AppData/Local/Temp/ccywwp4x.s:96     .text._Z8ssp1Readv:00000000 $a
/cygdrive/c/Users/Chris/AppData/Local/Temp/ccywwp4x.s:117    .text._Z8ssp1Readv:0000002c $d
/cygdrive/c/Users/Chris/AppData/Local/Temp/ccywwp4x.s:124    .text._Z11eepromWritetPhm:00000000 _Z11eepromWritetPhm
/cygdrive/c/Users/Chris/AppData/Local/Temp/ccywwp4x.s:131    .text._Z11eepromWritetPhm:00000000 $a
/cygdrive/c/Users/Chris/AppData/Local/Temp/ccywwp4x.s:186    .text._Z10eepromReadPhtm:00000000 _Z10eepromReadPhtm
/cygdrive/c/Users/Chris/AppData/Local/Temp/ccywwp4x.s:193    .text._Z10eepromReadPhtm:00000000 $a
/cygdrive/c/Users/Chris/AppData/Local/Temp/ccywwp4x.s:240    .debug_frame:00000000 $d
/cygdrive/c/Users/Chris/AppData/Local/Temp/ccywwp4x.s:330    .debug_loc:00000000 $d

NO UNDEFINED SYMBOLS
