ARM GAS  /cygdrive/c/Users/Chris/AppData/Local/Temp/cchFCGfb.s 			page 1


   1              		.cpu arm7tdmi
   2              		.fpu softvfp
   3              		.eabi_attribute 20, 1
   4              		.eabi_attribute 21, 1
   5              		.eabi_attribute 23, 3
   6              		.eabi_attribute 24, 1
   7              		.eabi_attribute 25, 1
   8              		.eabi_attribute 26, 1
   9              		.eabi_attribute 30, 6
  10              		.eabi_attribute 18, 4
  11              		.file	"eeprom.cpp"
  18 0000 10010000 		.text
  18      02009D00 
  18      00000201 
  18      FB0E0D00 
  18      01010101 
  19              	.Ltext0:
  20              		.section	.text._Z10eepromInitv,"ax",%progbits
  21              		.align	2
  22              		.global	_Z10eepromInitv
  23              		.type	_Z10eepromInitv, %function
  24              	_Z10eepromInitv:
  25              	.LFB2:
  26              		.file 1 "eeprom.cpp"
   1:eeprom.cpp    **** #include <LPC23xx.H>                       /* LPC23xx definitions  */
   2:eeprom.cpp    **** #include <stdint.h>
   3:eeprom.cpp    **** #include <stdio.h>                         /* standard I/O .h-file */
   4:eeprom.cpp    **** 
   5:eeprom.cpp    **** /* EEPROM Instructions */
   6:eeprom.cpp    **** static const uint8_t kEEREAD    = 3;
   7:eeprom.cpp    **** static const uint8_t kEEWRITE   = 2;  
   8:eeprom.cpp    **** static const uint8_t kEEWRDI    = 3;
   9:eeprom.cpp    **** static const uint8_t kEEWREN    = 2; 
  10:eeprom.cpp    **** static const uint8_t kEERDSR    = 5;
  11:eeprom.cpp    **** static const uint8_t kEEWRSR    = 1;
  12:eeprom.cpp    ****   
  13:eeprom.cpp    **** 
  14:eeprom.cpp    **** //*************************************************************
  15:eeprom.cpp    **** // EEPROM INitialization
  16:eeprom.cpp    **** //       Device: Microchip 25AA128 SPI EEPROM  
  17:eeprom.cpp    **** void eepromInit(void) {
  27              		.loc 1 17 0
  28              		@ Function supports interworking.
  29              		@ args = 0, pretend = 0, frame = 0
  30              		@ frame_needed = 1, uses_anonymous_args = 0
  31              		@ link register save eliminated.
  32 0000 04B02DE5 		str	fp, [sp, #-4]!
  33              	.LCFI0:
  34 0004 00B08DE2 		add	fp, sp, #0
  35              	.LCFI1:
  18:eeprom.cpp    **** 
ARM GAS  /cygdrive/c/Users/Chris/AppData/Local/Temp/cchFCGfb.s 			page 2


  19:eeprom.cpp    ****    /* Setup pin P0.6,7,8 for SPI */
  20:eeprom.cpp    ****    PINSEL0 |= 0x000AA000;
  36              		.loc 1 20 0
  37 0008 0E22A0E3 		mov	r2, #-536870912
  38 000c 0B2982E2 		add	r2, r2, #180224
  39 0010 0E32A0E3 		mov	r3, #-536870912
  40 0014 0B3983E2 		add	r3, r3, #180224
  41 0018 003093E5 		ldr	r3, [r3, #0]
  42 001c AA3A83E3 		orr	r3, r3, #696320
  43 0020 003082E5 		str	r3, [r2, #0]
  21:eeprom.cpp    ****    
  22:eeprom.cpp    ****    /* CPOL = 0, CPHA = 1, 8-bits, SPI mode */
  23:eeprom.cpp    ****    SSP1CR0 = 0x0087;
  44              		.loc 1 23 0
  45 0024 0E32A0E3 		mov	r3, #-536870912
  46 0028 033883E2 		add	r3, r3, #196608
  47 002c 8720A0E3 		mov	r2, #135
  48 0030 002083E5 		str	r2, [r3, #0]
  24:eeprom.cpp    ****    
  25:eeprom.cpp    ****    /* SPI Master,       */
  26:eeprom.cpp    ****    SSP1CR1 =  0x004;
  49              		.loc 1 26 0
  50 0034 4E32A0E3 		mov	r3, #-536870908
  51 0038 033883E2 		add	r3, r3, #196608
  52 003c 0420A0E3 		mov	r2, #4
  53 0040 002083E5 		str	r2, [r3, #0]
  27:eeprom.cpp    ****    
  28:eeprom.cpp    ****    /* SPI Enable,       */
  29:eeprom.cpp    ****    SSP1CR1 =  0x006;
  54              		.loc 1 29 0
  55 0044 4E32A0E3 		mov	r3, #-536870908
  56 0048 033883E2 		add	r3, r3, #196608
  57 004c 0620A0E3 		mov	r2, #6
  58 0050 002083E5 		str	r2, [r3, #0]
  30:eeprom.cpp    **** }
  59              		.loc 1 30 0
  60 0054 00D08BE2 		add	sp, fp, #0
  61 0058 0008BDE8 		ldmfd	sp!, {fp}
  62 005c 1EFF2FE1 		bx	lr
  63              	.LFE2:
  64              		.size	_Z10eepromInitv, .-_Z10eepromInitv
  65              		.section	.text._Z9ssp1Writeh,"ax",%progbits
  66              		.align	2
  67              		.global	_Z9ssp1Writeh
  68              		.type	_Z9ssp1Writeh, %function
  69              	_Z9ssp1Writeh:
  70              	.LFB3:
  31:eeprom.cpp    **** 
  32:eeprom.cpp    **** //*************************************************************
  33:eeprom.cpp    **** // Write data to SSP1
  34:eeprom.cpp    **** void ssp1Write(uint8_t data) {
  71              		.loc 1 34 0
  72              		@ Function supports interworking.
  73              		@ args = 0, pretend = 0, frame = 8
  74              		@ frame_needed = 1, uses_anonymous_args = 0
  75              		@ link register save eliminated.
  76 0000 04B02DE5 		str	fp, [sp, #-4]!
ARM GAS  /cygdrive/c/Users/Chris/AppData/Local/Temp/cchFCGfb.s 			page 3


  77              	.LCFI2:
  78 0004 00B08DE2 		add	fp, sp, #0
  79              	.LCFI3:
  80 0008 0CD04DE2 		sub	sp, sp, #12
  81              	.LCFI4:
  82 000c 0030A0E1 		mov	r3, r0
  83 0010 05304BE5 		strb	r3, [fp, #-5]
  84              	.L4:
  35:eeprom.cpp    **** 
  36:eeprom.cpp    **** 
  37:eeprom.cpp    ****       /* Check the TX FIFO status */
  38:eeprom.cpp    ****       while( !((SSP1SR >> 1) & 1) ) {
  85              		.loc 1 38 0
  86 0014 CE32A0E3 		mov	r3, #-536870900
  87 0018 033883E2 		add	r3, r3, #196608
  88 001c 003093E5 		ldr	r3, [r3, #0]
  89 0020 023003E2 		and	r3, r3, #2
  90 0024 000053E3 		cmp	r3, #0
  91 0028 0030A013 		movne	r3, #0
  92 002c 0130A003 		moveq	r3, #1
  93 0030 FF3003E2 		and	r3, r3, #255
  94 0034 000053E3 		cmp	r3, #0
  95 0038 F5FFFF1A 		bne	.L4
  39:eeprom.cpp    ****          ; /* Wait for TX to be ready */
  40:eeprom.cpp    ****       }     
  41:eeprom.cpp    ****       
  42:eeprom.cpp    ****      /* Put the data into the TX FIFO */
  43:eeprom.cpp    ****       SSP1DR = data;
  96              		.loc 1 43 0
  97 003c 8E32A0E3 		mov	r3, #-536870904
  98 0040 033883E2 		add	r3, r3, #196608
  99 0044 05205BE5 		ldrb	r2, [fp, #-5]	@ zero_extendqisi2
 100 0048 002083E5 		str	r2, [r3, #0]
  44:eeprom.cpp    **** 
  45:eeprom.cpp    **** }
 101              		.loc 1 45 0
 102 004c 00D08BE2 		add	sp, fp, #0
 103 0050 0008BDE8 		ldmfd	sp!, {fp}
 104 0054 1EFF2FE1 		bx	lr
 105              	.LFE3:
 106              		.size	_Z9ssp1Writeh, .-_Z9ssp1Writeh
 107              		.section	.text._Z8ssp1Readv,"ax",%progbits
 108              		.align	2
 109              		.global	_Z8ssp1Readv
 110              		.type	_Z8ssp1Readv, %function
 111              	_Z8ssp1Readv:
 112              	.LFB4:
  46:eeprom.cpp    ****   
  47:eeprom.cpp    **** //*************************************************************
  48:eeprom.cpp    **** // Read one byte from the SSP1
  49:eeprom.cpp    **** uint8_t ssp1Read() {
 113              		.loc 1 49 0
 114              		@ Function supports interworking.
 115              		@ args = 0, pretend = 0, frame = 0
 116              		@ frame_needed = 1, uses_anonymous_args = 0
 117 0000 00482DE9 		stmfd	sp!, {fp, lr}
 118              	.LCFI5:
ARM GAS  /cygdrive/c/Users/Chris/AppData/Local/Temp/cchFCGfb.s 			page 4


 119 0004 04B08DE2 		add	fp, sp, #4
 120              	.LCFI6:
 121 0008 010000EA 		b	.L7
 122              	.L8:
  50:eeprom.cpp    **** 
  51:eeprom.cpp    ****       /* Wait for a byte to be received */
  52:eeprom.cpp    ****       while( !((SSP1SR >> 2) & 1) ) {
  53:eeprom.cpp    ****          /* Send dummy data */
  54:eeprom.cpp    ****          ssp1Write(0);
 123              		.loc 1 54 0
 124 000c 0000A0E3 		mov	r0, #0
 125 0010 FEFFFFEB 		bl	_Z9ssp1Writeh
 126              	.L7:
 127              		.loc 1 52 0
 128 0014 CE32A0E3 		mov	r3, #-536870900
 129 0018 033883E2 		add	r3, r3, #196608
 130 001c 003093E5 		ldr	r3, [r3, #0]
 131 0020 043003E2 		and	r3, r3, #4
 132 0024 000053E3 		cmp	r3, #0
 133 0028 0030A013 		movne	r3, #0
 134 002c 0130A003 		moveq	r3, #1
 135 0030 FF3003E2 		and	r3, r3, #255
 136 0034 000053E3 		cmp	r3, #0
 137 0038 F3FFFF1A 		bne	.L8
  55:eeprom.cpp    ****       }     
  56:eeprom.cpp    ****       
  57:eeprom.cpp    ****       /* Return the received byte */
  58:eeprom.cpp    ****       return (uint8_t)SSP1DR;
 138              		.loc 1 58 0
 139 003c 8E32A0E3 		mov	r3, #-536870904
 140 0040 033883E2 		add	r3, r3, #196608
 141 0044 003093E5 		ldr	r3, [r3, #0]
 142 0048 FF3003E2 		and	r3, r3, #255
  59:eeprom.cpp    **** 
  60:eeprom.cpp    **** }
 143              		.loc 1 60 0
 144 004c 0300A0E1 		mov	r0, r3
 145 0050 04D04BE2 		sub	sp, fp, #4
 146 0054 0048BDE8 		ldmfd	sp!, {fp, lr}
 147 0058 1EFF2FE1 		bx	lr
 148              	.LFE4:
 149              		.size	_Z8ssp1Readv, .-_Z8ssp1Readv
 150              		.section	.text._Z11eepromWritetPhm,"ax",%progbits
 151              		.align	2
 152              		.global	_Z11eepromWritetPhm
 153              		.type	_Z11eepromWritetPhm, %function
 154              	_Z11eepromWritetPhm:
 155              	.LFB5:
  61:eeprom.cpp    **** 
  62:eeprom.cpp    **** //*************************************************************
  63:eeprom.cpp    **** // EEPROM write data
  64:eeprom.cpp    **** // Returns: EEPROM Status Register  
  65:eeprom.cpp    **** // lower cs
  66:eeprom.cpp    **** // send wren instr
  67:eeprom.cpp    **** // raise cs
  68:eeprom.cpp    **** // lower cs
  69:eeprom.cpp    **** // send write instr
ARM GAS  /cygdrive/c/Users/Chris/AppData/Local/Temp/cchFCGfb.s 			page 5


  70:eeprom.cpp    **** // send 16-bit address
  71:eeprom.cpp    **** // send data up 64
  72:eeprom.cpp    **** //  increment page?
  73:eeprom.cpp    **** //  continue writing
  74:eeprom.cpp    **** //  raise cs
  75:eeprom.cpp    **** int eepromWrite(uint16_t dataEEDest, uint8_t * const dataSrc, uint32_t length) {
 156              		.loc 1 75 0
 157              		@ Function supports interworking.
 158              		@ args = 0, pretend = 0, frame = 24
 159              		@ frame_needed = 1, uses_anonymous_args = 0
 160 0000 00482DE9 		stmfd	sp!, {fp, lr}
 161              	.LCFI7:
 162 0004 04B08DE2 		add	fp, sp, #4
 163              	.LCFI8:
 164 0008 18D04DE2 		sub	sp, sp, #24
 165              	.LCFI9:
 166 000c 0030A0E1 		mov	r3, r0
 167 0010 14100BE5 		str	r1, [fp, #-20]
 168 0014 18200BE5 		str	r2, [fp, #-24]
 169 0018 BE304BE1 		strh	r3, [fp, #-14]	@ movhi
 170              	.LBB2:
  76:eeprom.cpp    **** 
  77:eeprom.cpp    **** uint32_t ii;
  78:eeprom.cpp    **** 
  79:eeprom.cpp    ****    /* Send Write Enable */      
  80:eeprom.cpp    ****    ssp1Write(kEEWREN);
 171              		.loc 1 80 0
 172 001c 0200A0E3 		mov	r0, #2
 173 0020 FEFFFFEB 		bl	_Z9ssp1Writeh
  81:eeprom.cpp    **** 
  82:eeprom.cpp    ****    /* Send Write Enable Instruction */      
  83:eeprom.cpp    ****    ssp1Write(kEEWREN);
 174              		.loc 1 83 0
 175 0024 0200A0E3 		mov	r0, #2
 176 0028 FEFFFFEB 		bl	_Z9ssp1Writeh
  84:eeprom.cpp    **** 
  85:eeprom.cpp    ****    /* Send Write Instruction */      
  86:eeprom.cpp    ****    ssp1Write(kEEWRITE);
 177              		.loc 1 86 0
 178 002c 0200A0E3 		mov	r0, #2
 179 0030 FEFFFFEB 		bl	_Z9ssp1Writeh
  87:eeprom.cpp    **** 
  88:eeprom.cpp    ****    /* Send Address High Byte */      
  89:eeprom.cpp    ****    ssp1Write((dataEEDest >> 8) & 0xFF);
 180              		.loc 1 89 0
 181 0034 BE305BE1 		ldrh	r3, [fp, #-14]
 182 0038 2334A0E1 		mov	r3, r3, lsr #8
 183 003c 0338A0E1 		mov	r3, r3, asl #16
 184 0040 2338A0E1 		mov	r3, r3, lsr #16
 185 0044 FF3003E2 		and	r3, r3, #255
 186 0048 0300A0E1 		mov	r0, r3
 187 004c FEFFFFEB 		bl	_Z9ssp1Writeh
  90:eeprom.cpp    **** 
  91:eeprom.cpp    ****    /* Send Address LOW Byte */      
  92:eeprom.cpp    ****    ssp1Write(dataEEDest & 0xFF);
 188              		.loc 1 92 0
 189 0050 BE305BE1 		ldrh	r3, [fp, #-14]	@ movhi
ARM GAS  /cygdrive/c/Users/Chris/AppData/Local/Temp/cchFCGfb.s 			page 6


 190 0054 FF3003E2 		and	r3, r3, #255
 191 0058 0300A0E1 		mov	r0, r3
 192 005c FEFFFFEB 		bl	_Z9ssp1Writeh
  93:eeprom.cpp    **** 
  94:eeprom.cpp    ****    for (ii=0; ii < length; ii++ ) {
 193              		.loc 1 94 0
 194 0060 0030A0E3 		mov	r3, #0
 195 0064 08300BE5 		str	r3, [fp, #-8]
 196 0068 080000EA 		b	.L11
 197              	.L12:
  95:eeprom.cpp    **** 
  96:eeprom.cpp    ****       ssp1Write(dataSrc[ii]);
 198              		.loc 1 96 0
 199 006c 14201BE5 		ldr	r2, [fp, #-20]
 200 0070 08301BE5 		ldr	r3, [fp, #-8]
 201 0074 033082E0 		add	r3, r2, r3
 202 0078 0030D3E5 		ldrb	r3, [r3, #0]	@ zero_extendqisi2
 203 007c 0300A0E1 		mov	r0, r3
 204 0080 FEFFFFEB 		bl	_Z9ssp1Writeh
 205              		.loc 1 94 0
 206 0084 08301BE5 		ldr	r3, [fp, #-8]
 207 0088 013083E2 		add	r3, r3, #1
 208 008c 08300BE5 		str	r3, [fp, #-8]
 209              	.L11:
 210 0090 08201BE5 		ldr	r2, [fp, #-8]
 211 0094 18301BE5 		ldr	r3, [fp, #-24]
 212 0098 030052E1 		cmp	r2, r3
 213 009c F2FFFF3A 		bcc	.L12
  97:eeprom.cpp    ****    }
  98:eeprom.cpp    **** 
  99:eeprom.cpp    ****  return 1;
 214              		.loc 1 99 0
 215 00a0 0130A0E3 		mov	r3, #1
 216              	.LBE2:
 100:eeprom.cpp    **** }
 217              		.loc 1 100 0
 218 00a4 0300A0E1 		mov	r0, r3
 219 00a8 04D04BE2 		sub	sp, fp, #4
 220 00ac 0048BDE8 		ldmfd	sp!, {fp, lr}
 221 00b0 1EFF2FE1 		bx	lr
 222              	.LFE5:
 223              		.size	_Z11eepromWritetPhm, .-_Z11eepromWritetPhm
 224              		.section	.text._Z10eepromReadPhtm,"ax",%progbits
 225              		.align	2
 226              		.global	_Z10eepromReadPhtm
 227              		.type	_Z10eepromReadPhtm, %function
 228              	_Z10eepromReadPhtm:
 229              	.LFB6:
 101:eeprom.cpp    ****  
 102:eeprom.cpp    **** //*************************************************************
 103:eeprom.cpp    **** // EEPROM read data
 104:eeprom.cpp    **** // Returns: EEPROM Status Register   
 105:eeprom.cpp    ****     // lower cs
 106:eeprom.cpp    ****     // send read instr
 107:eeprom.cpp    ****     // 16-bit address
 108:eeprom.cpp    ****     // clock 8*len
 109:eeprom.cpp    ****     // raise cs
ARM GAS  /cygdrive/c/Users/Chris/AppData/Local/Temp/cchFCGfb.s 			page 7


 110:eeprom.cpp    ****     //      
 111:eeprom.cpp    **** int eepromRead(uint8_t * dataDest, uint16_t dataEESrc, uint32_t length) {
 230              		.loc 1 111 0
 231              		@ Function supports interworking.
 232              		@ args = 0, pretend = 0, frame = 24
 233              		@ frame_needed = 1, uses_anonymous_args = 0
 234 0000 10482DE9 		stmfd	sp!, {r4, fp, lr}
 235              	.LCFI10:
 236 0004 08B08DE2 		add	fp, sp, #8
 237              	.LCFI11:
 238 0008 1CD04DE2 		sub	sp, sp, #28
 239              	.LCFI12:
 240 000c 18000BE5 		str	r0, [fp, #-24]
 241 0010 0130A0E1 		mov	r3, r1
 242 0014 20200BE5 		str	r2, [fp, #-32]
 243 0018 BA314BE1 		strh	r3, [fp, #-26]	@ movhi
 244              	.LBB3:
 112:eeprom.cpp    **** 
 113:eeprom.cpp    **** 
 114:eeprom.cpp    **** uint32_t ii;
 115:eeprom.cpp    **** 
 116:eeprom.cpp    ****    /* Send Read Instruction */      
 117:eeprom.cpp    ****    ssp1Write(kEEREAD);
 245              		.loc 1 117 0
 246 001c 0300A0E3 		mov	r0, #3
 247 0020 FEFFFFEB 		bl	_Z9ssp1Writeh
 118:eeprom.cpp    **** 
 119:eeprom.cpp    ****    /* Send Address High Byte */      
 120:eeprom.cpp    ****    ssp1Write((dataEESrc >> 8) & 0xFF);
 248              		.loc 1 120 0
 249 0024 BA315BE1 		ldrh	r3, [fp, #-26]
 250 0028 2334A0E1 		mov	r3, r3, lsr #8
 251 002c 0338A0E1 		mov	r3, r3, asl #16
 252 0030 2338A0E1 		mov	r3, r3, lsr #16
 253 0034 FF3003E2 		and	r3, r3, #255
 254 0038 0300A0E1 		mov	r0, r3
 255 003c FEFFFFEB 		bl	_Z9ssp1Writeh
 121:eeprom.cpp    **** 
 122:eeprom.cpp    ****    /* Send Address LOW Byte */      
 123:eeprom.cpp    ****    ssp1Write(dataEESrc & 0xFF);
 256              		.loc 1 123 0
 257 0040 BA315BE1 		ldrh	r3, [fp, #-26]	@ movhi
 258 0044 FF3003E2 		and	r3, r3, #255
 259 0048 0300A0E1 		mov	r0, r3
 260 004c FEFFFFEB 		bl	_Z9ssp1Writeh
 124:eeprom.cpp    ****    
 125:eeprom.cpp    ****    /* Store the bytes from EEPROM */   
 126:eeprom.cpp    ****    for (ii=0; ii< length; ii++) {      
 261              		.loc 1 126 0
 262 0050 0030A0E3 		mov	r3, #0
 263 0054 10300BE5 		str	r3, [fp, #-16]
 264 0058 080000EA 		b	.L15
 265              	.L16:
 127:eeprom.cpp    ****       dataDest[ii] = ssp1Read();
 266              		.loc 1 127 0
 267 005c 18201BE5 		ldr	r2, [fp, #-24]
 268 0060 10301BE5 		ldr	r3, [fp, #-16]
ARM GAS  /cygdrive/c/Users/Chris/AppData/Local/Temp/cchFCGfb.s 			page 8


 269 0064 034082E0 		add	r4, r2, r3
 270 0068 FEFFFFEB 		bl	_Z8ssp1Readv
 271 006c 0030A0E1 		mov	r3, r0
 272 0070 0030C4E5 		strb	r3, [r4, #0]
 273              		.loc 1 126 0
 274 0074 10301BE5 		ldr	r3, [fp, #-16]
 275 0078 013083E2 		add	r3, r3, #1
 276 007c 10300BE5 		str	r3, [fp, #-16]
 277              	.L15:
 278 0080 10201BE5 		ldr	r2, [fp, #-16]
 279 0084 20301BE5 		ldr	r3, [fp, #-32]
 280 0088 030052E1 		cmp	r2, r3
 281 008c F2FFFF3A 		bcc	.L16
 128:eeprom.cpp    ****    }
 129:eeprom.cpp    **** 
 130:eeprom.cpp    ****    return 1;
 282              		.loc 1 130 0
 283 0090 0130A0E3 		mov	r3, #1
 284              	.LBE3:
 131:eeprom.cpp    **** } ...
 285              		.loc 1 131 0
 286 0094 0300A0E1 		mov	r0, r3
 287 0098 08D04BE2 		sub	sp, fp, #8
 288 009c 1048BDE8 		ldmfd	sp!, {r4, fp, lr}
 289 00a0 1EFF2FE1 		bx	lr
 290              	.LFE6:
 291              		.size	_Z10eepromReadPhtm, .-_Z10eepromReadPhtm
 292              		.section	.debug_frame,"",%progbits
 293              	.Lframe0:
 294 0000 0C000000 		.4byte	.LECIE0-.LSCIE0
 295              	.LSCIE0:
 296 0004 FFFFFFFF 		.4byte	0xffffffff
 297 0008 01       		.byte	0x1
 298 0009 00       		.ascii	"\000"
 299 000a 01       		.uleb128 0x1
 300 000b 7C       		.sleb128 -4
 301 000c 0E       		.byte	0xe
 302 000d 0C       		.byte	0xc
 303 000e 0D       		.uleb128 0xd
 304 000f 00       		.uleb128 0x0
 305              		.align	2
 306              	.LECIE0:
 307              	.LSFDE0:
 308 0010 14000000 		.4byte	.LEFDE0-.LASFDE0
 309              	.LASFDE0:
 310 0014 00000000 		.4byte	.Lframe0
 311 0018 00000000 		.4byte	.LFB2
 312 001c 60000000 		.4byte	.LFE2-.LFB2
 313 0020 44       		.byte	0x4
 314              		.4byte	.LCFI0-.LFB2
 315 0021 0E       		.byte	0xe
 316 0022 04       		.uleb128 0x4
 317 0023 8B       		.byte	0x8b
 318 0024 01       		.uleb128 0x1
 319 0025 44       		.byte	0x4
 320              		.4byte	.LCFI1-.LCFI0
 321 0026 0D       		.byte	0xd
ARM GAS  /cygdrive/c/Users/Chris/AppData/Local/Temp/cchFCGfb.s 			page 9


 322 0027 0B       		.uleb128 0xb
 323              		.align	2
 324              	.LEFDE0:
 325              	.LSFDE2:
 326 0028 14000000 		.4byte	.LEFDE2-.LASFDE2
 327              	.LASFDE2:
 328 002c 00000000 		.4byte	.Lframe0
 329 0030 00000000 		.4byte	.LFB3
 330 0034 58000000 		.4byte	.LFE3-.LFB3
 331 0038 44       		.byte	0x4
 332              		.4byte	.LCFI2-.LFB3
 333 0039 0E       		.byte	0xe
 334 003a 04       		.uleb128 0x4
 335 003b 8B       		.byte	0x8b
 336 003c 01       		.uleb128 0x1
 337 003d 44       		.byte	0x4
 338              		.4byte	.LCFI3-.LCFI2
 339 003e 0D       		.byte	0xd
 340 003f 0B       		.uleb128 0xb
 341              		.align	2
 342              	.LEFDE2:
 343              	.LSFDE4:
 344 0040 18000000 		.4byte	.LEFDE4-.LASFDE4
 345              	.LASFDE4:
 346 0044 00000000 		.4byte	.Lframe0
 347 0048 00000000 		.4byte	.LFB4
 348 004c 5C000000 		.4byte	.LFE4-.LFB4
 349 0050 44       		.byte	0x4
 350              		.4byte	.LCFI5-.LFB4
 351 0051 0E       		.byte	0xe
 352 0052 08       		.uleb128 0x8
 353 0053 8E       		.byte	0x8e
 354 0054 01       		.uleb128 0x1
 355 0055 8B       		.byte	0x8b
 356 0056 02       		.uleb128 0x2
 357 0057 44       		.byte	0x4
 358              		.4byte	.LCFI6-.LCFI5
 359 0058 0C       		.byte	0xc
 360 0059 0B       		.uleb128 0xb
 361 005a 04       		.uleb128 0x4
 362 005b 00       		.align	2
 363              	.LEFDE4:
 364              	.LSFDE6:
 365 005c 18000000 		.4byte	.LEFDE6-.LASFDE6
 366              	.LASFDE6:
 367 0060 00000000 		.4byte	.Lframe0
 368 0064 00000000 		.4byte	.LFB5
 369 0068 B4000000 		.4byte	.LFE5-.LFB5
 370 006c 44       		.byte	0x4
 371              		.4byte	.LCFI7-.LFB5
 372 006d 0E       		.byte	0xe
 373 006e 08       		.uleb128 0x8
 374 006f 8E       		.byte	0x8e
 375 0070 01       		.uleb128 0x1
 376 0071 8B       		.byte	0x8b
 377 0072 02       		.uleb128 0x2
 378 0073 44       		.byte	0x4
ARM GAS  /cygdrive/c/Users/Chris/AppData/Local/Temp/cchFCGfb.s 			page 10


 379              		.4byte	.LCFI8-.LCFI7
 380 0074 0C       		.byte	0xc
 381 0075 0B       		.uleb128 0xb
 382 0076 04       		.uleb128 0x4
 383 0077 00       		.align	2
 384              	.LEFDE6:
 385              	.LSFDE8:
 386 0078 1C000000 		.4byte	.LEFDE8-.LASFDE8
 387              	.LASFDE8:
 388 007c 00000000 		.4byte	.Lframe0
 389 0080 00000000 		.4byte	.LFB6
 390 0084 A4000000 		.4byte	.LFE6-.LFB6
 391 0088 44       		.byte	0x4
 392              		.4byte	.LCFI10-.LFB6
 393 0089 0E       		.byte	0xe
 394 008a 0C       		.uleb128 0xc
 395 008b 8E       		.byte	0x8e
 396 008c 01       		.uleb128 0x1
 397 008d 8B       		.byte	0x8b
 398 008e 02       		.uleb128 0x2
 399 008f 84       		.byte	0x84
 400 0090 03       		.uleb128 0x3
 401 0091 44       		.byte	0x4
 402              		.4byte	.LCFI11-.LCFI10
 403 0092 0C       		.byte	0xc
 404 0093 0B       		.uleb128 0xb
 405 0094 04       		.uleb128 0x4
 406 0095 000000   		.align	2
 407              	.LEFDE8:
 408              		.text
 409              	.Letext0: