ARM GAS  C:\DOCUME~1\CHRIST~1.LAD\LOCALS~1\Temp/ccmibaaa.s 			page 1


   1              		.cpu arm7tdmi
   2              		.fpu softvfp
   3              		.eabi_attribute 20, 1
   4              		.eabi_attribute 21, 1
   5              		.eabi_attribute 23, 3
   6              		.eabi_attribute 24, 1
   7              		.eabi_attribute 25, 1
   8              		.eabi_attribute 26, 1
   9              		.eabi_attribute 30, 1
  10              		.eabi_attribute 18, 4
  11              		.file	"IAP.c"
  18 0000 8E000000 		.text
  18      02001C00 
  18      00000201 
  18      FB0E0D00 
  18      01010101 
  19              	.Ltext0:
  20              		.align	2
  21              		.global	BufferLoad
  22              		.type	BufferLoad, %function
  23              	BufferLoad:
  24              	.LFB5:
  25              		.file 1 "IAP.c"
   1:IAP.c         **** /******************************************************************************/
   2:IAP.c         **** /* IAP In-System Application Programming Demo                                 */
   3:IAP.c         **** /******************************************************************************/
   4:IAP.c         **** /* This file is part of the uVision/ARM development tools.                    */
   5:IAP.c         **** /* Copyright (c) 2005-2006 Keil Software. All rights reserved.                */
   6:IAP.c         **** /* This software may only be used under the terms of a valid, current,        */
   7:IAP.c         **** /* end user licence from KEIL for a compatible version of KEIL software       */
   8:IAP.c         **** /* development tools. Nothing else gives you the right to use this software.  */
   9:IAP.c         **** /******************************************************************************/
  10:IAP.c         **** 
  11:IAP.c         **** #include <stdio.h>                         /* standard I/O .h-file */
  12:IAP.c         **** #include <LPC23xx.H>                       /* LPC23xx definitions  */
  13:IAP.c         **** #include <math.h>
  14:IAP.c         **** #include <stdlib.h>
  15:IAP.c         **** 
  16:IAP.c         **** #include "Serial.h"
  17:IAP.c         **** #include "sbl_iap.h"
  18:IAP.c         **** 
  19:IAP.c         **** // Clock Frequency
  20:IAP.c         **** 
  21:IAP.c         **** #define XTAL    12000000                   // Oscillator Frequency
  22:IAP.c         **** #define CPUCLK (XTAL*6)                    // CPU Clock with PLL
  23:IAP.c         **** #define CCLK   (CPUCLK / 1000)             // CPU Clock in kHz
  24:IAP.c         **** 
  25:IAP.c         **** #define kMCUId "lpc2368"
  26:IAP.c         **** #define kApplicationStartAddr  0x00002000
  27:IAP.c         **** #define kApplicationEndAddr    0x0007BFFF
  28:IAP.c         **** #define kSPM_PAGE_SIZE         512
ARM GAS  C:\DOCUME~1\CHRIST~1.LAD\LOCALS~1\Temp/ccmibaaa.s 			page 2


  29:IAP.c         **** #define kUSART_RX_BUFFER_SIZE  kSPM_PAGE_SIZE               
  30:IAP.c         **** #define kSoftwareIdentifier     "AVRBOOT"
  31:IAP.c         **** #define kSoftwareVersionHigh   '0'
  32:IAP.c         **** #define kSoftwareVersionLow    '7'
  33:IAP.c         **** 
  34:IAP.c         **** #define kDevType               0x74         //mega645
  35:IAP.c         **** #define kSignatureByte3        0x1E         //mega2560
  36:IAP.c         **** #define kSignatureByte2        0x98         //mega2560
  37:IAP.c         **** #define kSignatureByte1        0x01         //mega2560      
  38:IAP.c         **** 
  39:IAP.c         **** void butterflyService(void);
  40:IAP.c         **** char BufferLoad(unsigned int size, unsigned char memType);
  41:IAP.c         **** void BlockRead(unsigned int size, unsigned char memType);
  42:IAP.c         **** 
  43:IAP.c         **** unsigned int gAddress=kApplicationStartAddr;      //address to program
  44:IAP.c         **** unsigned char gBuffer[kUSART_RX_BUFFER_SIZE];  //RAM buffer for  
  45:IAP.c         **** unsigned char gDevice;
  46:IAP.c         **** unsigned char gDevType;
  47:IAP.c         **** unsigned int purge;
  48:IAP.c         **** 
  49:IAP.c         **** int main (void)  {
  50:IAP.c         **** 
  51:IAP.c         ****    SerialBegin(9600);
  52:IAP.c         ****    
  53:IAP.c         ****    while(1)
  54:IAP.c         ****    {
  55:IAP.c         ****       butterflyService();
  56:IAP.c         ****    }
  57:IAP.c         **** 
  58:IAP.c         **** }
  59:IAP.c         **** 
  60:IAP.c         **** //*******************************************************************************
  61:IAP.c         **** // Loosely based on the AVR buttery protocol.
  62:IAP.c         **** // Handles the received commands
  63:IAP.c         **** void butterflyService(void)
  64:IAP.c         **** {
  65:IAP.c         ****    char recvCommand;
  66:IAP.c         **** 
  67:IAP.c         ****    /* Get the command character */
  68:IAP.c         ****    recvCommand = SerialRead();
  69:IAP.c         ****    
  70:IAP.c         ****    /* Handle Command Character */
  71:IAP.c         ****    switch(recvCommand)
  72:IAP.c         ****    {
  73:IAP.c         ****    
  74:IAP.c         ****       case 'a':            // Autoincrement?
  75:IAP.c         ****          SerialWrite('Y');
  76:IAP.c         ****       break;
  77:IAP.c         **** 
  78:IAP.c         ****       case 'A':            // Write address
  79:IAP.c         ****          purge  = ( SerialRead() << 8);    // High byte of address
  80:IAP.c         ****          purge |=   SerialRead();          // low byte of address
  81:IAP.c         ****          
  82:IAP.c         ****          purge <<= 2;                      // !! convert from word address to byte address
  83:IAP.c         **** 
  84:IAP.c         ****          SerialWrite('\r');
  85:IAP.c         ****       break;
ARM GAS  C:\DOCUME~1\CHRIST~1.LAD\LOCALS~1\Temp/ccmibaaa.s 			page 3


  86:IAP.c         **** 
  87:IAP.c         ****        case 'H':           // Write address
  88:IAP.c         ****        {
  89:IAP.c         ****        
  90:IAP.c         **** 
  91:IAP.c         ****         purge |= ( SerialRead() << 16);    // High byte of address
  92:IAP.c         ****         purge |= ( SerialRead() << 8);    // 2nd byte of address
  93:IAP.c         ****         purge |=   SerialRead();          // low byte of address
  94:IAP.c         ****         
  95:IAP.c         ****         if(purge == 0)
  96:IAP.c         ****         {
  97:IAP.c         ****          gAddress =  kApplicationStartAddr;
  98:IAP.c         ****         }
  99:IAP.c         **** 
 100:IAP.c         ****          SerialWrite('\r');
 101:IAP.c         ****          }
 102:IAP.c         ****       break;
 103:IAP.c         **** 
 104:IAP.c         ****       case 'b':            // Buffer load support
 105:IAP.c         ****          SerialWrite('Y');                          // Report buffer load supported
 106:IAP.c         ****          SerialWrite((kUSART_RX_BUFFER_SIZE >>8));    // Report buffer size in bytes
 107:IAP.c         ****          SerialWrite(kUSART_RX_BUFFER_SIZE);          // low byte of size
 108:IAP.c         **** 
 109:IAP.c         ****          SerialWrite('\r');
 110:IAP.c         ****       break;
 111:IAP.c         **** 
 112:IAP.c         ****       case 'B':            // Start Buffer load
 113:IAP.c         ****       {
 114:IAP.c         ****          unsigned int bufferSize;
 115:IAP.c         ****          unsigned char memType;
 116:IAP.c         ****          unsigned char res;
 117:IAP.c         **** 
 118:IAP.c         ****          bufferSize = SerialRead() << 8;     // Load high byte of buffersize
 119:IAP.c         ****          bufferSize |= SerialRead();          // Load low byte of buffersize
 120:IAP.c         ****          memType = SerialRead();            // Load memory type ('E' or 'F')
 121:IAP.c         **** 
 122:IAP.c         ****          res = BufferLoad(bufferSize, memType);
 123:IAP.c         **** 
 124:IAP.c         ****          SerialWrite(res);    //return the result
 125:IAP.c         ****       }
 126:IAP.c         ****       break;
 127:IAP.c         **** 
 128:IAP.c         ****       case 'g':            // Block readout
 129:IAP.c         ****       {
 130:IAP.c         ****          unsigned int bufferSize;
 131:IAP.c         ****          unsigned char memType;
 132:IAP.c         **** 
 133:IAP.c         ****          bufferSize = SerialRead() << 8;            // Load high byte of buffersize
 134:IAP.c         ****          bufferSize |= SerialRead();                 // Load low byte of buffersize
 135:IAP.c         ****          memType = SerialRead();            // Load memory type ('E' or 'F')         
 136:IAP.c         **** 
 137:IAP.c         ****         if (bufferSize == 1)
 138:IAP.c         ****         {         
 139:IAP.c         ****             SerialWrite('\r');
 140:IAP.c         ****         }
 141:IAP.c         ****         else
 142:IAP.c         ****         {
ARM GAS  C:\DOCUME~1\CHRIST~1.LAD\LOCALS~1\Temp/ccmibaaa.s 			page 4


 143:IAP.c         ****             BlockRead(bufferSize, memType);
 144:IAP.c         ****         }
 145:IAP.c         **** 
 146:IAP.c         ****         break;
 147:IAP.c         ****       }
 148:IAP.c         ****       case 'e':            // Chip Erase 
 149:IAP.c         ****          erase_user_flash();
 150:IAP.c         ****          //erase(kApplicationStartAddr,kApplicationEndAddr);
 151:IAP.c         **** 
 152:IAP.c         ****          SerialWrite('\r');
 153:IAP.c         ****       break;
 154:IAP.c         **** 
 155:IAP.c         ****       case 'E':            // Exit Upgrade
 156:IAP.c         ****            //jump to application here!!!
 157:IAP.c         ****          SerialWrite('\r');
 158:IAP.c         ****       break;
 159:IAP.c         **** 
 160:IAP.c         ****       case 'P':            // Enter programming mode
 161:IAP.c         ****          SerialWrite('\r');
 162:IAP.c         ****       break;
 163:IAP.c         **** 
 164:IAP.c         ****       case 'F':            // fuse
 165:IAP.c         ****          SerialWrite('\r');
 166:IAP.c         ****       break;
 167:IAP.c         **** 
 168:IAP.c         ****       case 'r':            // fuse
 169:IAP.c         ****          SerialWrite('\r');
 170:IAP.c         ****       break;
 171:IAP.c         **** 
 172:IAP.c         ****       case 'N':            // fuse
 173:IAP.c         ****          SerialWrite('\r');
 174:IAP.c         ****       break;
 175:IAP.c         **** 
 176:IAP.c         ****       case 'Q':            // fuse
 177:IAP.c         ****          SerialWrite('\r');
 178:IAP.c         ****       break;
 179:IAP.c         **** 
 180:IAP.c         ****       case 'L':            // Leave programming mode
 181:IAP.c         ****          SerialWrite('\r');
 182:IAP.c         ****       break;
 183:IAP.c         **** 
 184:IAP.c         ****       case 'p':            // return programmer type
 185:IAP.c         ****          SerialWrite('S');
 186:IAP.c         ****       break;
 187:IAP.c         **** 
 188:IAP.c         ****       case 't':           // return device type
 189:IAP.c         ****          SerialWrite(kDevType);
 190:IAP.c         ****          SerialWrite(0);
 191:IAP.c         ****       break;
 192:IAP.c         **** 
 193:IAP.c         ****       case 'T':           // Set device
 194:IAP.c         ****          gDevice = SerialRead();
 195:IAP.c         ****          SerialWrite('\r');
 196:IAP.c         ****       break;
 197:IAP.c         **** 
 198:IAP.c         ****       case 'S':            //return software identifier
 199:IAP.c         ****          {
ARM GAS  C:\DOCUME~1\CHRIST~1.LAD\LOCALS~1\Temp/ccmibaaa.s 			page 5


 200:IAP.c         ****          volatile long xx;
 201:IAP.c         **** 
 202:IAP.c         ****          //unsigned int res=0;
 203:IAP.c         ****           SerialStr(kSoftwareIdentifier);
 204:IAP.c         ****           
 205:IAP.c         ****          //erase_user_flash();
 206:IAP.c         ****             for(xx=0;xx<20000000;xx++) {;}         
 207:IAP.c         ****          //for(res=0; res<512; res++)
 208:IAP.c         ****          //{
 209:IAP.c         ****         // gBuffer[res] = res;
 210:IAP.c         ****          
 211:IAP.c         ****         // }
 212:IAP.c         ****         // write_flash((unsigned int*)gAddress, gBuffer, 512);
 213:IAP.c         ****          }
 214:IAP.c         ****       break;
 215:IAP.c         **** 
 216:IAP.c         ****       case 'V':            //return software version
 217:IAP.c         ****           SerialWrite(kSoftwareVersionHigh);
 218:IAP.c         ****           SerialWrite(kSoftwareVersionLow);
 219:IAP.c         ****       break;
 220:IAP.c         **** 
 221:IAP.c         ****       case 's':            // Return Signature byte
 222:IAP.c         ****          SerialWrite(kSignatureByte1);
 223:IAP.c         ****          SerialWrite(kSignatureByte2);
 224:IAP.c         ****          SerialWrite(kSignatureByte3);
 225:IAP.c         ****       break;
 226:IAP.c         **** 
 227:IAP.c         ****       default:
 228:IAP.c         ****          SerialStr("?");
 229:IAP.c         ****       break;
 230:IAP.c         ****    }
 231:IAP.c         **** 
 232:IAP.c         **** }
 233:IAP.c         **** 
 234:IAP.c         **** //*******************************************************************************
 235:IAP.c         **** // Send a block of program memory via serial
 236:IAP.c         **** void BlockRead(unsigned int size, unsigned char memType)
 237:IAP.c         **** {
 238:IAP.c         ****     unsigned int cnt=0;
 239:IAP.c         **** 
 240:IAP.c         ****     if (memType == 'F')
 241:IAP.c         ****     {
 242:IAP.c         ****         for(cnt = 0; cnt< size; cnt++)
 243:IAP.c         ****         {
 244:IAP.c         ****            unsigned char *b = (unsigned char*)gAddress;
 245:IAP.c         ****    
 246:IAP.c         ****            unsigned char byte = b[cnt];
 247:IAP.c         ****            SerialWrite(byte);
 248:IAP.c         ****         }
 249:IAP.c         ****     }
 250:IAP.c         **** 
 251:IAP.c         ****     gAddress+=size;
 252:IAP.c         **** }
 253:IAP.c         **** 
 254:IAP.c         **** //*******************************************************************************
 255:IAP.c         **** // Load the RAM buffer with bytes from serial
 256:IAP.c         **** char BufferLoad(unsigned int size, unsigned char memType)
ARM GAS  C:\DOCUME~1\CHRIST~1.LAD\LOCALS~1\Temp/ccmibaaa.s 			page 6


 257:IAP.c         **** {
  26              	 supports interworking.
  27              		@ args = 0, pretend = 0, frame = 0
  28              		@ frame_needed = 1, uses_anonymous_args = 0
  29              	.LVL0:
  30              		mov	ip, sp
  31 0000 0DC0A0E1 	.LCFI0:
  32              		stmfd	sp!, {r4, r5, fp, ip, lr, pc}
  33 0004 30D82DE9 	.LCFI1:
  34              		sub	fp, ip, #4
  35 0008 04B04CE2 	.LCFI2:
  36              		.loc 1 260 0
 258:IAP.c         ****    unsigned int cnt;
 259:IAP.c         **** 
 260:IAP.c         ****     for (cnt=0; cnt < size; cnt++) 
  37              	0, #0
  38 000c 005050E2 		beq	.L2
  39 0010 0600000A 	.LVL1:
  40              		mov	r3, #0
  41 0014 0030A0E3 	.LVL2:
  42              		.loc 1 264 0
 261:IAP.c         ****     {
 262:IAP.c         ****         if (cnt<size)
 263:IAP.c         ****         {    
 264:IAP.c         ****             gBuffer[cnt] = 2;//SerialRead();
  43              	0, .L7
  44 0018 60009FE5 		mov	r2, #2
  45 001c 0220A0E3 	.L3:
  46              		strb	r2, [r0, r3]
  47 0020 0320C0E7 		.loc 1 260 0
  48              		add	r3, r3, #1
  49 0024 013083E2 		cmp	r5, r3
  50 0028 030055E1 		bhi	.L3
  51 002c FBFFFF8A 	.LVL3:
  52              	.L2:
  53              		.loc 1 272 0
 265:IAP.c         ****         }
 266:IAP.c         ****         else
 267:IAP.c         ****         {     
 268:IAP.c         ****             gBuffer[cnt]=0xFF;
 269:IAP.c         ****         }
 270:IAP.c         ****     }
 271:IAP.c         ****    
 272:IAP.c         ****    if (memType == 'F')
  54              	0
  55 0030 460051E3 		bne	.L4
  56 0034 0D00001A 		.loc 1 274 0
 273:IAP.c         ****    {
 274:IAP.c         ****        if (gDevice == gDevType)
  57              	r	r3, .L7+4
  58 0038 44309FE5 	.LVL4:
  59              		ldrb	r2, [r3, #0]	@ zero_extendqisi2
  60 003c 0020D3E5 		ldr	r3, .L7+8
  61 0040 40309FE5 		ldrb	r3, [r3, #0]	@ zero_extendqisi2
  62 0044 0030D3E5 		cmp	r2, r3
  63 0048 030052E1 		bne	.L4
  64 004c 0700001A 		.loc 1 276 0
ARM GAS  C:\DOCUME~1\CHRIST~1.LAD\LOCALS~1\Temp/ccmibaaa.s 			page 7


 275:IAP.c         ****        {
 276:IAP.c         ****            write_flash((unsigned int*)gAddress, gBuffer, 512);
  65              	 .L7+12
  66 0050 34409FE5 		ldr	r0, [r4, #0]
  67 0054 000094E5 		ldr	r1, .L7
  68 0058 20109FE5 	.LVL5:
  69              		mov	r2, #512
  70 005c 022CA0E3 		bl	write_flash
  71 0060 FEFFFFEB 		.loc 1 277 0
 277:IAP.c         ****            gAddress+=size;
  72              	, [r4, #0]
  73 0064 003094E5 		add	r3, r5, r3
  74 0068 033085E0 		str	r3, [r4, #0]
  75 006c 003084E5 	.LVL6:
  76              	.L4:
  77              		.loc 1 282 0
 278:IAP.c         ****        }
 279:IAP.c         ****    }
 280:IAP.c         **** 
 281:IAP.c         ****    return '\r';
 282:IAP.c         **** }
  78              	0, #13
  79 0070 0D00A0E3 		sub	sp, fp, #20
  80 0074 14D04BE2 		ldmfd	sp, {r4, r5, fp, sp, lr}
  81 0078 30689DE8 		bx	lr
  82 007c 1EFF2FE1 	.L8:
  83              		.align	2
  84              	.L7:
  85              		.word	gBuffer
  86 0080 00000000 		.word	gDevice
  87 0084 00000000 		.word	gDevType
  88 0088 00000000 		.word	.LANCHOR0
  89 008c 00000000 	.LFE5:
  90              		.size	BufferLoad, .-BufferLoad
  91              		.align	2
  92              		.global	BlockRead
  93              		.type	BlockRead, %function
  94              	BlockRead:
  95              	.LFB4:
  96              		.loc 1 237 0
  97              		@ Function supports interworking.
  98              		@ args = 0, pretend = 0, frame = 0
  99              		@ frame_needed = 1, uses_anonymous_args = 0
 100              	.LVL7:
 101              		mov	ip, sp
 102 0090 0DC0A0E1 	.LCFI3:
 103              		stmfd	sp!, {r4, r5, r6, r7, fp, ip, lr, pc}
 104 0094 F0D82DE9 	.LCFI4:
 105              		sub	fp, ip, #4
 106 0098 04B04CE2 	.LCFI5:
 107              		mov	r5, r0
 108 009c 0050A0E1 		.loc 1 240 0
 109              		cmp	r1, #70
 110 00a0 460051E3 		bne	.L10
 111 00a4 0900001A 	.LVL8:
 112              		.loc 1 242 0
 113              		cmp	r0, #0
ARM GAS  C:\DOCUME~1\CHRIST~1.LAD\LOCALS~1\Temp/ccmibaaa.s 			page 8


 114 00a8 000050E3 		beq	.L10
 115 00ac 0700000A 	.LVL9:
 116              		mov	r4, #0
 117 00b0 0040A0E3 	.LVL10:
 118              	.LBB2:
 119              		.loc 1 247 0
 120              		ldr	r6, .L14
 121 00b4 30609FE5 	.L11:
 122              		ldr	r3, [r6, #0]
 123 00b8 003096E5 		ldrb	r0, [r3, r4]	@ zero_extendqisi2
 124 00bc 0400D3E7 	.LVL11:
 125              		bl	SerialWrite
 126 00c0 FEFFFFEB 	.LVL12:
 127              	.LBE2:
 128              		.loc 1 242 0
 129              		add	r4, r4, #1
 130 00c4 014084E2 		cmp	r5, r4
 131 00c8 040055E1 		bhi	.L11
 132 00cc F9FFFF8A 	.LVL13:
 133              	.L10:
 134              		.loc 1 251 0
 135              		ldr	r2, .L14
 136 00d0 14209FE5 		ldr	r3, [r2, #0]
 137 00d4 003092E5 		add	r3, r5, r3
 138 00d8 033085E0 		str	r3, [r2, #0]
 139 00dc 003082E5 		.loc 1 252 0
 140              		sub	sp, fp, #28
 141 00e0 1CD04BE2 		ldmfd	sp, {r4, r5, r6, r7, fp, sp, lr}
 142 00e4 F0689DE8 		bx	lr
 143 00e8 1EFF2FE1 	.L15:
 144              		.align	2
 145              	.L14:
 146              		.word	.LANCHOR0
 147 00ec 00000000 	.LFE4:
 148              		.size	BlockRead, .-BlockRead
 149              		.align	2
 150              		.global	butterflyService
 151              		.type	butterflyService, %function
 152              	butterflyService:
 153              	.LFB3:
 154              		.loc 1 64 0
 155              		@ Function supports interworking.
 156              		@ args = 0, pretend = 0, frame = 8
 157              		@ frame_needed = 1, uses_anonymous_args = 0
 158              		mov	ip, sp
 159 00f0 0DC0A0E1 	.LCFI6:
 160              		stmfd	sp!, {r4, r5, fp, ip, lr, pc}
 161 00f4 30D82DE9 	.LCFI7:
 162              		sub	fp, ip, #4
 163 00f8 04B04CE2 	.LCFI8:
 164              		sub	sp, sp, #8
 165 00fc 08D04DE2 	.LCFI9:
 166              		.loc 1 68 0
 167              		bl	SerialRead
 168 0100 FEFFFFEB 		.loc 1 71 0
 169              		and	r0, r0, #255
 170 0104 FF0000E2 		sub	r0, r0, #65
ARM GAS  C:\DOCUME~1\CHRIST~1.LAD\LOCALS~1\Temp/ccmibaaa.s 			page 9


 171 0108 410040E2 		cmp	r0, #51
 172 010c 330050E3 		ldrls	pc, [pc, r0, asl #2]
 173 0110 00F19F97 		b	.L17
 174 0114 BE0000EA 	.L38:
 175              		.word	.L18
 176 0118 F4010000 		.word	.L19
 177 011c 98020000 		.word	.L17
 178 0120 14040000 		.word	.L17
 179 0124 14040000 		.word	.L20
 180 0128 08030000 		.word	.L21
 181 012c 20030000 		.word	.L17
 182 0130 14040000 		.word	.L22
 183 0134 24020000 		.word	.L17
 184 0138 14040000 		.word	.L17
 185 013c 14040000 		.word	.L17
 186 0140 14040000 		.word	.L23
 187 0144 50030000 		.word	.L17
 188 0148 14040000 		.word	.L24
 189 014c 38030000 		.word	.L17
 190 0150 14040000 		.word	.L25
 191 0154 14030000 		.word	.L26
 192 0158 44030000 		.word	.L17
 193 015c 14040000 		.word	.L27
 194 0160 94030000 		.word	.L28
 195 0164 7C030000 		.word	.L17
 196 0168 14040000 		.word	.L29
 197 016c E4030000 		.word	.L17
 198 0170 14040000 		.word	.L17
 199 0174 14040000 		.word	.L17
 200 0178 14040000 		.word	.L17
 201 017c 14040000 		.word	.L17
 202 0180 14040000 		.word	.L17
 203 0184 14040000 		.word	.L17
 204 0188 14040000 		.word	.L17
 205 018c 14040000 		.word	.L17
 206 0190 14040000 		.word	.L17
 207 0194 14040000 		.word	.L30
 208 0198 E8010000 		.word	.L31
 209 019c 74020000 		.word	.L17
 210 01a0 14040000 		.word	.L17
 211 01a4 14040000 		.word	.L32
 212 01a8 F8020000 		.word	.L17
 213 01ac 14040000 		.word	.L33
 214 01b0 C0020000 		.word	.L17
 215 01b4 14040000 		.word	.L17
 216 01b8 14040000 		.word	.L17
 217 01bc 14040000 		.word	.L17
 218 01c0 14040000 		.word	.L17
 219 01c4 14040000 		.word	.L17
 220 01c8 14040000 		.word	.L17
 221 01cc 14040000 		.word	.L17
 222 01d0 14040000 		.word	.L34
 223 01d4 5C030000 		.word	.L17
 224 01d8 14040000 		.word	.L35
 225 01dc 2C030000 		.word	.L36
 226 01e0 F8030000 		.word	.L37
 227 01e4 68030000 	.L30:
ARM GAS  C:\DOCUME~1\CHRIST~1.LAD\LOCALS~1\Temp/ccmibaaa.s 			page 10


 228              		.loc 1 75 0
 229              		mov	r0, #89
 230 01e8 5900A0E3 		bl	SerialWrite
 231 01ec FEFFFFEB 		b	.L43
 232 01f0 890000EA 	.L18:
 233              		.loc 1 79 0
 234              		bl	SerialRead
 235 01f4 FEFFFFEB 		ldr	r4, .L46
 236 01f8 28429FE5 		mov	r0, r0, asl #8
 237 01fc 0004A0E1 		str	r0, [r4, #0]
 238 0200 000084E5 		.loc 1 80 0
 239              		bl	SerialRead
 240 0204 FEFFFFEB 		.loc 1 82 0
 241              		ldr	r3, [r4, #0]
 242 0208 003094E5 		orr	r0, r0, r3
 243 020c 030080E1 		mov	r0, r0, asl #2
 244 0210 0001A0E1 		str	r0, [r4, #0]
 245 0214 000084E5 		.loc 1 84 0
 246              		mov	r0, #13
 247 0218 0D00A0E3 		bl	SerialWrite
 248 021c FEFFFFEB 		b	.L43
 249 0220 7D0000EA 	.L22:
 250              		.loc 1 91 0
 251              		bl	SerialRead
 252 0224 FEFFFFEB 		ldr	r4, .L46
 253 0228 F8419FE5 		ldr	r3, [r4, #0]
 254 022c 003094E5 		orr	r3, r3, r0, asl #16
 255 0230 003883E1 		str	r3, [r4, #0]
 256 0234 003084E5 		.loc 1 92 0
 257              		bl	SerialRead
 258 0238 FEFFFFEB 		ldr	r3, [r4, #0]
 259 023c 003094E5 		orr	r3, r3, r0, asl #8
 260 0240 003483E1 		str	r3, [r4, #0]
 261 0244 003084E5 		.loc 1 93 0
 262              		bl	SerialRead
 263 0248 FEFFFFEB 		ldr	r3, [r4, #0]
 264 024c 003094E5 		orr	r0, r0, r3
 265 0250 030080E1 		str	r0, [r4, #0]
 266 0254 000084E5 		.loc 1 95 0
 267              		cmp	r0, #0
 268 0258 000050E3 		.loc 1 97 0
 269              		moveq	r2, #8192
 270 025c 022AA003 		ldreq	r3, .L46+4
 271 0260 C4319F05 		streq	r2, [r3, #0]
 272 0264 00208305 		.loc 1 100 0
 273              		mov	r0, #13
 274 0268 0D00A0E3 		bl	SerialWrite
 275 026c FEFFFFEB 		b	.L43
 276 0270 690000EA 	.L31:
 277              		.loc 1 105 0
 278              		mov	r0, #89
 279 0274 5900A0E3 		bl	SerialWrite
 280 0278 FEFFFFEB 		.loc 1 106 0
 281              		mov	r0, #2
 282 027c 0200A0E3 		bl	SerialWrite
 283 0280 FEFFFFEB 		.loc 1 107 0
 284              		mov	r0, #512
ARM GAS  C:\DOCUME~1\CHRIST~1.LAD\LOCALS~1\Temp/ccmibaaa.s 			page 11


 285 0284 020CA0E3 		bl	SerialWrite
 286 0288 FEFFFFEB 		.loc 1 109 0
 287              		mov	r0, #13
 288 028c 0D00A0E3 		bl	SerialWrite
 289 0290 FEFFFFEB 		b	.L43
 290 0294 600000EA 	.L19:
 291              	.LBB3:
 292              		.loc 1 118 0
 293              		bl	SerialRead
 294 0298 FEFFFFEB 		mov	r5, r0, asl #8
 295 029c 0054A0E1 	.LVL14:
 296              		.loc 1 119 0
 297              		bl	SerialRead
 298 02a0 FEFFFFEB 		mov	r4, r0
 299 02a4 0040A0E1 		.loc 1 120 0
 300              		bl	SerialRead
 301 02a8 FEFFFFEB 		.loc 1 122 0
 302              		and	r1, r0, #255
 303 02ac FF1000E2 		orr	r0, r5, r4
 304 02b0 040085E1 		bl	BufferLoad
 305 02b4 FEFFFFEB 		.loc 1 124 0
 306              		bl	SerialWrite
 307 02b8 FEFFFFEB 		b	.L43
 308 02bc 560000EA 	.LVL15:
 309              	.L33:
 310              	.LBE3:
 311              	.LBB4:
 312              		.loc 1 133 0
 313              		bl	SerialRead
 314 02c0 FEFFFFEB 		mov	r4, r0, asl #8
 315 02c4 0044A0E1 	.LVL16:
 316              		.loc 1 134 0
 317              		bl	SerialRead
 318 02c8 FEFFFFEB 		orr	r4, r4, r0
 319 02cc 004084E1 	.LVL17:
 320              		.loc 1 135 0
 321              		bl	SerialRead
 322 02d0 FEFFFFEB 		.loc 1 137 0
 323              		cmp	r4, #1
 324 02d4 010054E3 		bne	.L41
 325 02d8 0200001A 		.loc 1 139 0
 326              		mov	r0, #13
 327 02dc 0D00A0E3 		bl	SerialWrite
 328 02e0 FEFFFFEB 		b	.L43
 329 02e4 4C0000EA 	.L41:
 330              		.loc 1 143 0
 331              		and	r1, r0, #255
 332 02e8 FF1000E2 		mov	r0, r4
 333 02ec 0400A0E1 		bl	BlockRead
 334 02f0 FEFFFFEB 		b	.L43
 335 02f4 480000EA 	.LVL18:
 336              	.L32:
 337              	.LBE4:
 338              		.loc 1 149 0
 339              		bl	erase_user_flash
 340 02f8 FEFFFFEB 		.loc 1 152 0
 341              		mov	r0, #13
ARM GAS  C:\DOCUME~1\CHRIST~1.LAD\LOCALS~1\Temp/ccmibaaa.s 			page 12


 342 02fc 0D00A0E3 		bl	SerialWrite
 343 0300 FEFFFFEB 		b	.L43
 344 0304 440000EA 	.L20:
 345              		.loc 1 157 0
 346              		mov	r0, #13
 347 0308 0D00A0E3 		bl	SerialWrite
 348 030c FEFFFFEB 		b	.L43
 349 0310 410000EA 	.L25:
 350              		.loc 1 161 0
 351              		mov	r0, #13
 352 0314 0D00A0E3 		bl	SerialWrite
 353 0318 FEFFFFEB 		b	.L43
 354 031c 3E0000EA 	.L21:
 355              		.loc 1 165 0
 356              		mov	r0, #13
 357 0320 0D00A0E3 		bl	SerialWrite
 358 0324 FEFFFFEB 		b	.L43
 359 0328 3B0000EA 	.L35:
 360              		.loc 1 169 0
 361              		mov	r0, #13
 362 032c 0D00A0E3 		bl	SerialWrite
 363 0330 FEFFFFEB 		b	.L43
 364 0334 380000EA 	.L24:
 365              		.loc 1 173 0
 366              		mov	r0, #13
 367 0338 0D00A0E3 		bl	SerialWrite
 368 033c FEFFFFEB 		b	.L43
 369 0340 350000EA 	.L26:
 370              		.loc 1 177 0
 371              		mov	r0, #13
 372 0344 0D00A0E3 		bl	SerialWrite
 373 0348 FEFFFFEB 		b	.L43
 374 034c 320000EA 	.L23:
 375              		.loc 1 181 0
 376              		mov	r0, #13
 377 0350 0D00A0E3 		bl	SerialWrite
 378 0354 FEFFFFEB 		b	.L43
 379 0358 2F0000EA 	.L34:
 380              		.loc 1 185 0
 381              		mov	r0, #83
 382 035c 5300A0E3 		bl	SerialWrite
 383 0360 FEFFFFEB 		b	.L43
 384 0364 2C0000EA 	.L37:
 385              		.loc 1 189 0
 386              		mov	r0, #116
 387 0368 7400A0E3 		bl	SerialWrite
 388 036c FEFFFFEB 		.loc 1 190 0
 389              		mov	r0, #0
 390 0370 0000A0E3 		bl	SerialWrite
 391 0374 FEFFFFEB 		b	.L43
 392 0378 270000EA 	.L28:
 393              		.loc 1 194 0
 394              		bl	SerialRead
 395 037c FEFFFFEB 		ldr	r3, .L46+8
 396 0380 A8309FE5 		strb	r0, [r3, #0]
 397 0384 0000C3E5 		.loc 1 195 0
 398              		mov	r0, #13
ARM GAS  C:\DOCUME~1\CHRIST~1.LAD\LOCALS~1\Temp/ccmibaaa.s 			page 13


 399 0388 0D00A0E3 		bl	SerialWrite
 400 038c FEFFFFEB 		b	.L43
 401 0390 210000EA 	.L27:
 402              	.LBB5:
 403              		.loc 1 203 0
 404              		ldr	r0, .L46+12
 405 0394 98009FE5 		bl	SerialStr
 406 0398 FEFFFFEB 		.loc 1 206 0
 407              		mov	r3, #0
 408 039c 0030A0E3 		str	r3, [fp, #-24]
 409 03a0 18300BE5 	.LVL19:
 410              		ldr	r2, [fp, #-24]
 411 03a4 18201BE5 		add	r3, r3, #19922944
 412 03a8 133683E2 		add	r3, r3, #76800
 413 03ac 4B3B83E2 		add	r3, r3, #255
 414 03b0 FF3083E2 		cmp	r3, r2
 415 03b4 020053E1 		blt	.L43
 416 03b8 170000BA 		mov	r3, #19922944
 417 03bc 1336A0E3 		add	r3, r3, #76800
 418 03c0 4B3B83E2 		add	r2, r3, #255
 419 03c4 FF2083E2 	.L44:
 420              		ldr	r3, [fp, #-24]
 421 03c8 18301BE5 		add	r3, r3, #1
 422 03cc 013083E2 	.LVL20:
 423              		str	r3, [fp, #-24]
 424 03d0 18300BE5 		ldr	r3, [fp, #-24]
 425 03d4 18301BE5 	.LVL21:
 426              		cmp	r3, r2
 427 03d8 020053E1 		ble	.L44
 428 03dc F9FFFFDA 		b	.L43
 429 03e0 0D0000EA 	.LVL22:
 430              	.L29:
 431              	.LBE5:
 432              		.loc 1 217 0
 433              		mov	r0, #48
 434 03e4 3000A0E3 		bl	SerialWrite
 435 03e8 FEFFFFEB 		.loc 1 218 0
 436              		mov	r0, #55
 437 03ec 3700A0E3 		bl	SerialWrite
 438 03f0 FEFFFFEB 		b	.L43
 439 03f4 080000EA 	.L36:
 440              		.loc 1 222 0
 441              		mov	r0, #1
 442 03f8 0100A0E3 		bl	SerialWrite
 443 03fc FEFFFFEB 		.loc 1 223 0
 444              		mov	r0, #152
 445 0400 9800A0E3 		bl	SerialWrite
 446 0404 FEFFFFEB 		.loc 1 224 0
 447              		mov	r0, #30
 448 0408 1E00A0E3 		bl	SerialWrite
 449 040c FEFFFFEB 		b	.L43
 450 0410 010000EA 	.L17:
 451              		.loc 1 228 0
 452              		ldr	r0, .L46+16
 453 0414 1C009FE5 		bl	SerialStr
 454 0418 FEFFFFEB 	.LVL23:
 455              	.L43:
ARM GAS  C:\DOCUME~1\CHRIST~1.LAD\LOCALS~1\Temp/ccmibaaa.s 			page 14


 456              		.loc 1 232 0
 457              		sub	sp, fp, #20
 458 041c 14D04BE2 		ldmfd	sp, {r4, r5, fp, sp, lr}
 459 0420 30689DE8 		bx	lr
 460 0424 1EFF2FE1 	.L47:
 461              		.align	2
 462              	.L46:
 463              		.word	purge
 464 0428 00000000 		.word	.LANCHOR0
 465 042c 00000000 		.word	gDevice
 466 0430 00000000 		.word	.LC0
 467 0434 00000000 		.word	.LC1
 468 0438 08000000 	.LFE3:
 469              		.size	butterflyService, .-butterflyService
 470              		.align	2
 471              		.global	main
 472              		.type	main, %function
 473              	main:
 474              	.LFB2:
 475              		.loc 1 49 0
 476              		@ Function supports interworking.
 477              		@ args = 0, pretend = 0, frame = 0
 478              		@ frame_needed = 1, uses_anonymous_args = 0
 479              		mov	ip, sp
 480 043c 0DC0A0E1 	.LCFI10:
 481              		stmfd	sp!, {fp, ip, lr, pc}
 482 0440 00D82DE9 	.LCFI11:
 483              		sub	fp, ip, #4
 484 0444 04B04CE2 	.LCFI12:
 485              		.loc 1 51 0
 486              		mov	r0, #9600
 487 0448 960DA0E3 		bl	SerialBegin
 488 044c FEFFFFEB 	.L49:
 489              		.loc 1 55 0
 490              		bl	butterflyService
 491 0450 FEFFFFEB 		b	.L49
 492 0454 FDFFFFEA 	.LFE2:
 493              		.size	main, .-main
 494              		.global	gAddress
 495              		.comm	gBuffer,512,1
 496              		.comm	gDevice,1,1
 497              		.comm	gDevType,1,1
 498              		.comm	purge,4,4
 499              		.data
 500              		.align	2
 501              		.set	.LANCHOR0,. + 0
 502              		.type	gAddress, %object
 503              		.size	gAddress, 4
 504              	gAddress:
 505              		.word	8192
 506 0000 00200000 		.section	.rodata.str1.4,"aMS",%progbits,1
 507              		.align	2
 508              	.LC0:
 509              		.ascii	"AVRBOOT\000"
 510 0000 41565242 	.LC1:
 510      4F4F5400 
 511              		.ascii	"?\000"
ARM GAS  C:\DOCUME~1\CHRIST~1.LAD\LOCALS~1\Temp/ccmibaaa.s 			page 15


 512 0008 3F00     		.section	.debug_frame,"",%progbits
 513 000a 0000     	.Lframe0:
 514              		.4byte	.LECIE0-.LSCIE0
 515 0000 0C000000 	.LSCIE0:
 516              		.4byte	0xffffffff
 517 0004 FFFFFFFF 		.byte	0x1
 518 0008 01       		.ascii	"\000"
 519 0009 00       		.uleb128 0x1
 520 000a 01       		.sleb128 -4
 521 000b 7C       		.byte	0xe
 522 000c 0E       		.byte	0xc
 523 000d 0C       		.uleb128 0xd
 524 000e 0D       		.uleb128 0x0
 525 000f 00       		.align	2
 526              	.LECIE0:
 527              	.LSFDE0:
 528              		.4byte	.LEFDE0-.LASFDE0
 529 0010 20000000 	.LASFDE0:
 530              		.4byte	.Lframe0
 531 0014 00000000 		.4byte	.LFB5
 532 0018 00000000 		.4byte	.LFE5-.LFB5
 533 001c 90000000 		.byte	0x4
 534 0020 44       		.4byte	.LCFI0-.LFB5
 535              		.byte	0xd
 536 0021 0D       		.uleb128 0xc
 537 0022 0C       		.byte	0x4
 538 0023 44       		.4byte	.LCFI1-.LCFI0
 539              		.byte	0x8e
 540 0024 8E       		.uleb128 0x2
 541 0025 02       		.byte	0x8d
 542 0026 8D       		.uleb128 0x3
 543 0027 03       		.byte	0x8b
 544 0028 8B       		.uleb128 0x4
 545 0029 04       		.byte	0x85
 546 002a 85       		.uleb128 0x5
 547 002b 05       		.byte	0x84
 548 002c 84       		.uleb128 0x6
 549 002d 06       		.byte	0x4
 550 002e 44       		.4byte	.LCFI2-.LCFI1
 551              		.byte	0xc
 552 002f 0C       		.uleb128 0xb
 553 0030 0B       		.uleb128 0x4
 554 0031 04       		.align	2
 555 0032 0000     	.LEFDE0:
 556              	.LSFDE2:
 557              		.4byte	.LEFDE2-.LASFDE2
 558 0034 24000000 	.LASFDE2:
 559              		.4byte	.Lframe0
 560 0038 00000000 		.4byte	.LFB4
 561 003c 90000000 		.4byte	.LFE4-.LFB4
 562 0040 60000000 		.byte	0x4
 563 0044 44       		.4byte	.LCFI3-.LFB4
 564              		.byte	0xd
 565 0045 0D       		.uleb128 0xc
 566 0046 0C       		.byte	0x4
 567 0047 44       		.4byte	.LCFI4-.LCFI3
 568              		.byte	0x8e
ARM GAS  C:\DOCUME~1\CHRIST~1.LAD\LOCALS~1\Temp/ccmibaaa.s 			page 16


 569 0048 8E       		.uleb128 0x2
 570 0049 02       		.byte	0x8d
 571 004a 8D       		.uleb128 0x3
 572 004b 03       		.byte	0x8b
 573 004c 8B       		.uleb128 0x4
 574 004d 04       		.byte	0x87
 575 004e 87       		.uleb128 0x5
 576 004f 05       		.byte	0x86
 577 0050 86       		.uleb128 0x6
 578 0051 06       		.byte	0x85
 579 0052 85       		.uleb128 0x7
 580 0053 07       		.byte	0x84
 581 0054 84       		.uleb128 0x8
 582 0055 08       		.byte	0x4
 583 0056 44       		.4byte	.LCFI5-.LCFI4
 584              		.byte	0xc
 585 0057 0C       		.uleb128 0xb
 586 0058 0B       		.uleb128 0x4
 587 0059 04       		.align	2
 588 005a 0000     	.LEFDE2:
 589              	.LSFDE4:
 590              		.4byte	.LEFDE4-.LASFDE4
 591 005c 20000000 	.LASFDE4:
 592              		.4byte	.Lframe0
 593 0060 00000000 		.4byte	.LFB3
 594 0064 F0000000 		.4byte	.LFE3-.LFB3
 595 0068 4C030000 		.byte	0x4
 596 006c 44       		.4byte	.LCFI6-.LFB3
 597              		.byte	0xd
 598 006d 0D       		.uleb128 0xc
 599 006e 0C       		.byte	0x4
 600 006f 44       		.4byte	.LCFI7-.LCFI6
 601              		.byte	0x8e
 602 0070 8E       		.uleb128 0x2
 603 0071 02       		.byte	0x8d
 604 0072 8D       		.uleb128 0x3
 605 0073 03       		.byte	0x8b
 606 0074 8B       		.uleb128 0x4
 607 0075 04       		.byte	0x85
 608 0076 85       		.uleb128 0x5
 609 0077 05       		.byte	0x84
 610 0078 84       		.uleb128 0x6
 611 0079 06       		.byte	0x4
 612 007a 44       		.4byte	.LCFI8-.LCFI7
 613              		.byte	0xc
 614 007b 0C       		.uleb128 0xb
 615 007c 0B       		.uleb128 0x4
 616 007d 04       		.align	2
 617 007e 0000     	.LEFDE4:
 618              	.LSFDE6:
 619              		.4byte	.LEFDE6-.LASFDE6
 620 0080 1C000000 	.LASFDE6:
 621              		.4byte	.Lframe0
 622 0084 00000000 		.4byte	.LFB2
 623 0088 3C040000 		.4byte	.LFE2-.LFB2
 624 008c 1C000000 		.byte	0x4
 625 0090 44       		.4byte	.LCFI10-.LFB2
ARM GAS  C:\DOCUME~1\CHRIST~1.LAD\LOCALS~1\Temp/ccmibaaa.s 			page 17


 626              		.byte	0xd
 627 0091 0D       		.uleb128 0xc
 628 0092 0C       		.byte	0x4
 629 0093 44       		.4byte	.LCFI11-.LCFI10
 630              		.byte	0x8e
 631 0094 8E       		.uleb128 0x2
 632 0095 02       		.byte	0x8d
 633 0096 8D       		.uleb128 0x3
 634 0097 03       		.byte	0x8b
 635 0098 8B       		.uleb128 0x4
 636 0099 04       		.byte	0x4
 637 009a 44       		.4byte	.LCFI12-.LCFI11
 638              		.byte	0xc
 639 009b 0C       		.uleb128 0xb
 640 009c 0B       		.uleb128 0x4
 641 009d 04       		.align	2
 642 009e 0000     	.LEFDE6:
 643              		.text
 644              	.Letext0: