ARM GAS  /cygdrive/c/Users/Chris/AppData/Local/Temp/ccTr68SV.s 			page 1


   1              		.cpu arm7tdmi
   2              		.fpu softvfp
   3              		.eabi_attribute 20, 1
   4              		.eabi_attribute 21, 1
   5              		.eabi_attribute 23, 3
   6              		.eabi_attribute 24, 1
   7              		.eabi_attribute 25, 1
   8              		.eabi_attribute 26, 1
   9              		.eabi_attribute 30, 4
  10              		.eabi_attribute 18, 4
  11              		.file	"main.cpp"
  18 0000 2D030000 		.text
  18      0200BA01 
  18      00000201 
  18      FB0E0D00 
  18      01010101 
  19              	.Ltext0:
  20              		.section	.text._vfprintf_r,"ax",%progbits
  21              		.align	2
  22              		.global	_vfprintf_r
  23              		.type	_vfprintf_r, %function
  24              	_vfprintf_r:
  25              	.LFB2:
  26              		.file 1 "main.cpp"
   1:main.cpp      **** /******************************************************************************/
   2:main.cpp      **** //* Santa Fe Board Secondary Bootloader                                                         
   3:main.cpp      **** //*
   4:main.cpp      **** //*****************************************************************************
   5:main.cpp      **** //*  Description:
   6:main.cpp      **** //*               Santa Fe Board Secondary Bootloader. 
   7:main.cpp      **** //*               Baud: 57600
   8:main.cpp      **** //*
   9:main.cpp      **** //*
  10:main.cpp      **** //*
  11:main.cpp      **** /******************************************************************************/
  12:main.cpp      **** 
  13:main.cpp      **** //************************************************
  14:main.cpp      **** //*	Preprocessor Directives
  15:main.cpp      **** //************************************************
  16:main.cpp      **** 
  17:main.cpp      **** #include <LPC23xx.H>                       /* LPC23xx definitions  */
  18:main.cpp      **** #include <stdint.h>
  19:main.cpp      **** #include <stdio.h>                         /* standard I/O .h-file */
  20:main.cpp      **** #include <math.h>
  21:main.cpp      **** #include <stdlib.h>
  22:main.cpp      **** 
  23:main.cpp      **** #include "fio.h"
  24:main.cpp      **** #include "wiring.h"
  25:main.cpp      **** #include "Serial.h"
  26:main.cpp      **** #include "sbl_iap.h"
  27:main.cpp      **** #include "sbl_config.h"
ARM GAS  /cygdrive/c/Users/Chris/AppData/Local/Temp/ccTr68SV.s 			page 2


  28:main.cpp      **** #include "SFBChecksum.h"
  29:main.cpp      **** #include "eeprom.h"
  30:main.cpp      **** #include "sfboard_tests.h"
  31:main.cpp      **** 
  32:main.cpp      **** #define SWITCH_FIOPIN   FIO1PIN
  33:main.cpp      **** #define SWITCH_MASK     (1<<29)
  34:main.cpp      **** 
  35:main.cpp      **** #define kMCUId "lpc2368"
  36:main.cpp      **** //#define kApplicationStartAddr  USER_FLASH_START    // from sbl_config.h
  37:main.cpp      **** //#define kApplicationEndAddr    USER_FLASH_END      // from sbl_config.h
  38:main.cpp      **** #define kSPM_PAGE_SIZE         512
  39:main.cpp      **** #define kUSART_RX_BUFFER_SIZE  kSPM_PAGE_SIZE               
  40:main.cpp      **** #define kSoftwareIdentifier     "AVRBOOT"
  41:main.cpp      **** #define kSoftwareVersionHigh   '0'
  42:main.cpp      **** #define kSoftwareVersionLow    '7'
  43:main.cpp      **** 
  44:main.cpp      **** #define kDevType               0x74         //mega645
  45:main.cpp      **** #define kSignatureByte3        0x1E         //mega2560
  46:main.cpp      **** #define kSignatureByte2        0x98         //mega2560
  47:main.cpp      **** #define kSignatureByte1        0x01         //mega2560      
  48:main.cpp      **** 
  49:main.cpp      **** 
  50:main.cpp      **** //************************************************
  51:main.cpp      **** //*	Provide our own (dead) libc library functions  
  52:main.cpp      **** //************************************************
  53:main.cpp      **** extern "C" int _vfprintf_r(struct _reent *, FILE*, const char*, __gnuc_va_list) {return 0;} 
  27              		.loc 1 53 0
  28              		@ Function supports interworking.
  29              		@ args = 0, pretend = 0, frame = 0
  30              		@ frame_needed = 0, uses_anonymous_args = 0
  31              		@ link register save eliminated.
  32              		.loc 1 53 0
  33 0000 0000A0E3 		mov	r0, #0
  34 0004 1EFF2FE1 		bx	lr
  35              	.LFE2:
  36              		.size	_vfprintf_r, .-_vfprintf_r
  37              		.section	.text._malloc_r,"ax",%progbits
  38              		.align	2
  39              		.global	_malloc_r
  40              		.type	_malloc_r, %function
  41              	_malloc_r:
  42              	.LFB3:
  54:main.cpp      **** extern "C" void *_malloc_r(struct _reent *, size_t) {return (void *)0; }
  43              		.loc 1 54 0
  44              		@ Function supports interworking.
  45              		@ args = 0, pretend = 0, frame = 0
  46              		@ frame_needed = 0, uses_anonymous_args = 0
  47              		@ link register save eliminated.
  48              		.loc 1 54 0
  49 0000 0000A0E3 		mov	r0, #0
  50 0004 1EFF2FE1 		bx	lr
  51              	.LFE3:
  52              		.size	_malloc_r, .-_malloc_r
  53              		.section	.text._free_r,"ax",%progbits
  54              		.align	2
  55              		.global	_free_r
  56              		.type	_free_r, %function
ARM GAS  /cygdrive/c/Users/Chris/AppData/Local/Temp/ccTr68SV.s 			page 3


  57              	_free_r:
  58              	.LFB4:
  55:main.cpp      **** extern "C" void _free_r(struct _reent *, void*) {}
  59              		.loc 1 55 0
  60              		@ Function supports interworking.
  61              		@ args = 0, pretend = 0, frame = 0
  62              		@ frame_needed = 0, uses_anonymous_args = 0
  63              		@ link register save eliminated.
  64              		.loc 1 55 0
  65 0000 1EFF2FE1 		bx	lr
  66              	.LFE4:
  67              		.size	_free_r, .-_free_r
  68              		.section	.text._realloc_r,"ax",%progbits
  69              		.align	2
  70              		.global	_realloc_r
  71              		.type	_realloc_r, %function
  72              	_realloc_r:
  73              	.LFB5:
  56:main.cpp      **** extern "C" void *_realloc_r(struct _reent *, void*, size_t) {return (void *)0; };
  74              		.loc 1 56 0
  75              		@ Function supports interworking.
  76              		@ args = 0, pretend = 0, frame = 0
  77              		@ frame_needed = 0, uses_anonymous_args = 0
  78              		@ link register save eliminated.
  79              		.loc 1 56 0
  80 0000 0000A0E3 		mov	r0, #0
  81 0004 1EFF2FE1 		bx	lr
  82              	.LFE5:
  83              		.size	_realloc_r, .-_realloc_r
  84              		.section	.text.realloc,"ax",%progbits
  85              		.align	2
  86              		.global	realloc
  87              		.type	realloc, %function
  88              	realloc:
  89              	.LFB6:
  57:main.cpp      **** extern "C" void *realloc(void *, size_t) {return (void *)0; };
  90              		.loc 1 57 0
  91              		@ Function supports interworking.
  92              		@ args = 0, pretend = 0, frame = 0
  93              		@ frame_needed = 0, uses_anonymous_args = 0
  94              		@ link register save eliminated.
  95              		.loc 1 57 0
  96 0000 0000A0E3 		mov	r0, #0
  97 0004 1EFF2FE1 		bx	lr
  98              	.LFE6:
  99              		.size	realloc, .-realloc
 100              		.section	.text._calloc_r,"ax",%progbits
 101              		.align	2
 102              		.global	_calloc_r
 103              		.type	_calloc_r, %function
 104              	_calloc_r:
 105              	.LFB7:
  58:main.cpp      **** extern "C" void *_calloc_r(struct _reent *, size_t, size_t) {return (void *)0; };
 106              		.loc 1 58 0
 107              		@ Function supports interworking.
 108              		@ args = 0, pretend = 0, frame = 0
 109              		@ frame_needed = 0, uses_anonymous_args = 0
ARM GAS  /cygdrive/c/Users/Chris/AppData/Local/Temp/ccTr68SV.s 			page 4


 110              		@ link register save eliminated.
 111              		.loc 1 58 0
 112 0000 0000A0E3 		mov	r0, #0
 113 0004 1EFF2FE1 		bx	lr
 114              	.LFE7:
 115              		.size	_calloc_r, .-_calloc_r
 116              		.section	.text.malloc,"ax",%progbits
 117              		.align	2
 118              		.global	malloc
 119              		.type	malloc, %function
 120              	malloc:
 121              	.LFB8:
  59:main.cpp      **** 
  60:main.cpp      **** extern "C" void *malloc(size_t) { return (void *)0; }
 122              		.loc 1 60 0
 123              		@ Function supports interworking.
 124              		@ args = 0, pretend = 0, frame = 0
 125              		@ frame_needed = 0, uses_anonymous_args = 0
 126              		@ link register save eliminated.
 127              		.loc 1 60 0
 128 0000 0000A0E3 		mov	r0, #0
 129 0004 1EFF2FE1 		bx	lr
 130              	.LFE8:
 131              		.size	malloc, .-malloc
 132              		.section	.text.free,"ax",%progbits
 133              		.align	2
 134              		.global	free
 135              		.type	free, %function
 136              	free:
 137              	.LFB9:
  61:main.cpp      **** extern "C" void  free(void*) {  }
 138              		.loc 1 61 0
 139              		@ Function supports interworking.
 140              		@ args = 0, pretend = 0, frame = 0
 141              		@ frame_needed = 0, uses_anonymous_args = 0
 142              		@ link register save eliminated.
 143              		.loc 1 61 0
 144 0000 1EFF2FE1 		bx	lr
 145              	.LFE9:
 146              		.size	free, .-free
 147              		.section	.text._GLOBAL__I__vfprintf_r,"ax",%progbits
 148              		.align	2
 149              		.type	_GLOBAL__I__vfprintf_r, %function
 150              	_GLOBAL__I__vfprintf_r:
 151              	.LFB15:
  62:main.cpp      **** //extern "C" int __aeabi_atexit(void *object,
  63:main.cpp      **** //							void (*destructor)(void *),
  64:main.cpp      **** //							void *dso_handle)
  65:main.cpp      **** //							{
  66:main.cpp      **** //							return 0;
  67:main.cpp      **** //							}
  68:main.cpp      **** 
  69:main.cpp      **** extern void sysInit(void);
  70:main.cpp      **** 
  71:main.cpp      **** //************************************************
  72:main.cpp      **** //*	Type Definitions 
  73:main.cpp      **** //************************************************
ARM GAS  /cygdrive/c/Users/Chris/AppData/Local/Temp/ccTr68SV.s 			page 5


  74:main.cpp      **** 
  75:main.cpp      **** /* SFB Bootloader Config Memory in Flash */ 
  76:main.cpp      **** typedef struct {
  77:main.cpp      ****    SFBChecksum AppChecksum;
  78:main.cpp      ****    uint64_t    AppBurnCount;
  79:main.cpp      ****    uint32_t    AppLength;
  80:main.cpp      **** } SFB_CONFIG_MEM_T;
  81:main.cpp      **** 
  82:main.cpp      **** //************************************************
  83:main.cpp      **** //*	Global Variables 
  84:main.cpp      **** //************************************************
  85:main.cpp      **** 
  86:main.cpp      **** unsigned char  *kApplicationStartAddr = (unsigned char*)0x2200;  
  87:main.cpp      **** 
  88:main.cpp      **** unsigned char *gAddress=0;                                          // Running butterfly address 
  89:main.cpp      **** unsigned char *gAddressPgm=(unsigned char*)kApplicationStartAddr;   // Real flash address to progra
  90:main.cpp      **** unsigned char gBuffer[kUSART_RX_BUFFER_SIZE];                       //RAM buffer for incoming data
  91:main.cpp      **** unsigned char gDevice;
  92:main.cpp      **** unsigned char gDevType;
  93:main.cpp      **** char gRecvCommand;
  94:main.cpp      **** volatile unsigned int purge;
  95:main.cpp      **** 
  96:main.cpp      **** /* Configuration Memory */
  97:main.cpp      **** SFB_CONFIG_MEM_T * gConfigMemPtr = (SFB_CONFIG_MEM_T*)(0x2000); // Flash Location of Configuration 
  98:main.cpp      **** SFB_CONFIG_MEM_T gConfigMem;                                    // RAM structure for the config
  99:main.cpp      **** 
 100:main.cpp      **** 
 101:main.cpp      **** static SFBChecksum gRunning;
 102:main.cpp      **** void (*app_code_entry)(void);
 103:main.cpp      **** 
 104:main.cpp      **** bool gSFBootValidChecksum;
 105:main.cpp      **** uint64_t wait;
 106:main.cpp      **** uint8_t pin;
 107:main.cpp      **** uint8_t x;
 108:main.cpp      **** uint8_t uart;
 109:main.cpp      **** uint8_t index;
 110:main.cpp      **** 
 111:main.cpp      **** //************************************************
 112:main.cpp      **** //*	Local Function Prototypes
 113:main.cpp      **** //************************************************
 114:main.cpp      **** void ButterflyService(char recvCommand);
 115:main.cpp      **** char BufferLoad(unsigned int size, unsigned char memType);
 116:main.cpp      **** void BlockRead(unsigned int size, unsigned char memType);
 117:main.cpp      **** 
 118:main.cpp      **** int main (void)  {
 119:main.cpp      **** 
 120:main.cpp      **** 
 121:main.cpp      **** 	/* System Init */
 122:main.cpp      **** 	sysInit();
 123:main.cpp      **** 
 124:main.cpp      ****    /* Make the switch pin an input */
 125:main.cpp      ****    pinMode(42, INPUT);
 126:main.cpp      ****        
 127:main.cpp      ****    /* Read the flash burn counter */
 128:main.cpp      ****    gConfigMem.AppChecksum[0]  = gConfigMemPtr->AppChecksum[0];
 129:main.cpp      ****    gConfigMem.AppChecksum[1]  = gConfigMemPtr->AppChecksum[1];
 130:main.cpp      ****    gConfigMem.AppBurnCount = gConfigMemPtr->AppBurnCount;
ARM GAS  /cygdrive/c/Users/Chris/AppData/Local/Temp/ccTr68SV.s 			page 6


 131:main.cpp      ****    gConfigMem.AppLength =   gConfigMemPtr->AppLength; 
 132:main.cpp      **** 
 133:main.cpp      ****    /* Calculate the checksum on the entire user application space */
 134:main.cpp      ****    SFBChecksumInit(gRunning);
 135:main.cpp      ****    SFBChecksumAddBytes(gRunning,
 136:main.cpp      ****                        (const char*)kApplicationStartAddr,
 137:main.cpp      ****                        gConfigMem.AppLength);
 138:main.cpp      **** 
 139:main.cpp      ****    /* Read the stored Flash checksum with RAM checksum */
 140:main.cpp      **** 	gSFBootValidChecksum = SFBChecksumEqual(gConfigMem.AppChecksum, gRunning);
 141:main.cpp      **** 
 142:main.cpp      ****    /* Should we start the App? */ 
 143:main.cpp      ****    if (gSFBootValidChecksum && digitalRead(42) )
 144:main.cpp      ****    {
 145:main.cpp      ****       /* Start the app!! */
 146:main.cpp      ****       app_code_entry =  (void (*)(void))kApplicationStartAddr;
 147:main.cpp      ****       app_code_entry();
 148:main.cpp      ****    }
 149:main.cpp      **** 
 150:main.cpp      ****    /* Start the bootloader */ 
 151:main.cpp      ****    SerialBegin(0,115200);
 152:main.cpp      ****    turnOnAllLEDs();
 153:main.cpp      ****  
 154:main.cpp      ****    /* Startup effects */
 155:main.cpp      ****    spinLEDs(2);  
 156:main.cpp      **** 
 157:main.cpp      **** 
 158:main.cpp      **** 
 159:main.cpp      ****    /* Wait in the Bootloader */
 160:main.cpp      ****    while(1)
 161:main.cpp      ****    {
 162:main.cpp      **** 
 163:main.cpp      ****       /* Check for an incoming byte to be read from UART 0 */
 164:main.cpp      ****       if (U0LSR & 0x01)
 165:main.cpp      ****       {
 166:main.cpp      ****          /* Get the command character */
 167:main.cpp      ****          gRecvCommand = SerialBusyRead(0);
 168:main.cpp      ****    
 169:main.cpp      ****          /* Handle the butterfly command */
 170:main.cpp      ****          ButterflyService(gRecvCommand);
 171:main.cpp      ****       }
 172:main.cpp      ****    }
 173:main.cpp      **** 
 174:main.cpp      **** }
 175:main.cpp      **** 
 176:main.cpp      **** 
 177:main.cpp      **** //*******************************************************************************
 178:main.cpp      **** // Loosely based on the AVR buttery protocol.
 179:main.cpp      **** // Handles the received commands
 180:main.cpp      **** void ButterflyService(char recvCommand)
 181:main.cpp      **** {
 182:main.cpp      ****    
 183:main.cpp      ****    /* Handle Command Character */
 184:main.cpp      ****    switch(recvCommand)
 185:main.cpp      ****    {
 186:main.cpp      ****    
 187:main.cpp      ****       case 'a':            // Autoincrement?
ARM GAS  /cygdrive/c/Users/Chris/AppData/Local/Temp/ccTr68SV.s 			page 7


 188:main.cpp      ****          SerialWrite(0, 'Y');
 189:main.cpp      ****       break;
 190:main.cpp      **** 
 191:main.cpp      ****       case 'A':            // Write address
 192:main.cpp      ****          purge  = ( SerialBusyRead(0) << 8);    // High byte of address
 193:main.cpp      ****          purge |=   SerialBusyRead(0);          // low byte of address
 194:main.cpp      ****          
 195:main.cpp      ****          purge <<= 2;                      // !! convert from word address to byte address
 196:main.cpp      **** 
 197:main.cpp      ****          SerialWrite(0, '\r');
 198:main.cpp      ****       break;
 199:main.cpp      **** 
 200:main.cpp      ****        case 'H':           // Write address
 201:main.cpp      ****        {
 202:main.cpp      ****        
 203:main.cpp      **** 
 204:main.cpp      ****         purge |= ( SerialBusyRead(0) << 16);    // High byte of address
 205:main.cpp      ****         purge |= ( SerialBusyRead(0) << 8);    // 2nd byte of address
 206:main.cpp      ****         purge |=   SerialBusyRead(0);          // low byte of address
 207:main.cpp      ****         
 208:main.cpp      ****          gAddress =  0;
 209:main.cpp      ****          gAddressPgm = (unsigned char*)kApplicationStartAddr;
 210:main.cpp      **** 
 211:main.cpp      ****          SerialWrite(0, '\r');
 212:main.cpp      ****          }
 213:main.cpp      ****       break;
 214:main.cpp      **** 
 215:main.cpp      ****       case 'b':            // Buffer load support
 216:main.cpp      ****          SerialWrite(0, 'Y');                          // Report buffer load supported
 217:main.cpp      ****          SerialWrite(0, (kUSART_RX_BUFFER_SIZE >>8));    // Report buffer size in bytes
 218:main.cpp      ****          SerialWrite(0, kUSART_RX_BUFFER_SIZE);          // low byte of size
 219:main.cpp      **** 
 220:main.cpp      ****          SerialWrite(0, '\r');
 221:main.cpp      ****       break;
 222:main.cpp      **** 
 223:main.cpp      ****       case 'B':            // Start Buffer load
 224:main.cpp      ****       {
 225:main.cpp      ****          unsigned int bufferSize;
 226:main.cpp      ****          unsigned char memType;
 227:main.cpp      ****          unsigned char res;
 228:main.cpp      **** 
 229:main.cpp      ****          bufferSize = SerialBusyRead(0) << 8;     // Load high byte of buffersize
 230:main.cpp      ****          bufferSize |= SerialBusyRead(0);          // Load low byte of buffersize
 231:main.cpp      ****          memType = SerialBusyRead(0);            // Load memory type ('E' or 'F')
 232:main.cpp      **** 
 233:main.cpp      ****          res = BufferLoad(bufferSize, memType);
 234:main.cpp      **** 
 235:main.cpp      ****          SerialWrite(0,res);    //return the result
 236:main.cpp      ****                      //SerialWrite('\r');
 237:main.cpp      ****       }
 238:main.cpp      ****       break;
 239:main.cpp      **** 
 240:main.cpp      ****       case 'g':            // Block readout
 241:main.cpp      ****       {
 242:main.cpp      ****          unsigned int bufferSize;
 243:main.cpp      ****          unsigned char memType;
 244:main.cpp      **** 
ARM GAS  /cygdrive/c/Users/Chris/AppData/Local/Temp/ccTr68SV.s 			page 8


 245:main.cpp      ****          bufferSize = SerialBusyRead(0) << 8;            // Load high byte of buffersize
 246:main.cpp      ****          bufferSize |= SerialBusyRead(0);                 // Load low byte of buffersize
 247:main.cpp      ****          memType = SerialBusyRead(0);            // Load memory type ('E' or 'F')         
 248:main.cpp      **** 
 249:main.cpp      ****         if (bufferSize == 1)
 250:main.cpp      ****         {         
 251:main.cpp      ****             SerialWrite(0,'\r');
 252:main.cpp      ****         }
 253:main.cpp      ****         else
 254:main.cpp      ****         {
 255:main.cpp      ****             BlockRead(bufferSize, memType);
 256:main.cpp      ****         }
 257:main.cpp      **** 
 258:main.cpp      ****         break;
 259:main.cpp      ****       }
 260:main.cpp      ****       case 'e':            // Chip Erase 
 261:main.cpp      ****          erase_user_flash();
 262:main.cpp      **** 
 263:main.cpp      ****          SerialWrite(0, '\r');
 264:main.cpp      ****       break;
 265:main.cpp      **** 
 266:main.cpp      ****       case 'E':            // Exit Upgrade
 267:main.cpp      ****       {
 268:main.cpp      **** 
 269:main.cpp      ****          /* Increment the Burn Counter */
 270:main.cpp      ****          gConfigMem.AppBurnCount++;
 271:main.cpp      ****          gConfigMem.AppLength =  gAddressPgm - kApplicationStartAddr;
 272:main.cpp      **** 
 273:main.cpp      ****          /* Calculate the checksum */
 274:main.cpp      ****          SFBChecksumInit(gConfigMem.AppChecksum);
 275:main.cpp      ****          SFBChecksumAddBytes(gConfigMem.AppChecksum,
 276:main.cpp      ****                              (const char*)kApplicationStartAddr,
 277:main.cpp      ****                              gConfigMem.AppLength);
 278:main.cpp      **** 
 279:main.cpp      ****          /* Store the Configuration to Flash */
 280:main.cpp      ****          write_flash((unsigned int*)&gConfigMemPtr->AppChecksum,
 281:main.cpp      ****                      (unsigned char*)&gConfigMem.AppChecksum,
 282:main.cpp      ****                       512,
 283:main.cpp      ****                       false);
 284:main.cpp      **** 
 285:main.cpp      ****          /* Respond  */
 286:main.cpp      ****          SerialWrite(0, '\r');
 287:main.cpp      ****          SerialWrite(0, '\r'); 
 288:main.cpp      ****          
 289:main.cpp      ****          app_code_entry =  (void (*)(void))kApplicationStartAddr;
 290:main.cpp      ****          app_code_entry();
 291:main.cpp      **** 
 292:main.cpp      ****       }
 293:main.cpp      ****       break;
 294:main.cpp      **** 
 295:main.cpp      ****       case 'P':            // Enter programming mode
 296:main.cpp      ****          SerialWrite(0, '\r');
 297:main.cpp      ****       break;
 298:main.cpp      **** 
 299:main.cpp      ****       case 'F':            // fuse
 300:main.cpp      ****          //execute_user_code();
 301:main.cpp      ****          SerialWrite(0, '\r');
ARM GAS  /cygdrive/c/Users/Chris/AppData/Local/Temp/ccTr68SV.s 			page 9


 302:main.cpp      ****       break;
 303:main.cpp      **** 
 304:main.cpp      ****       case 'r':            // fuse
 305:main.cpp      ****          SerialWrite(0, '\r');
 306:main.cpp      ****       break;
 307:main.cpp      **** 
 308:main.cpp      ****       case 'N':            // fuse
 309:main.cpp      ****          SerialWrite(0, '\r');
 310:main.cpp      ****       break;
 311:main.cpp      **** 
 312:main.cpp      ****       case 'Q':            // fuse
 313:main.cpp      ****          SerialWrite(0, '\r');
 314:main.cpp      ****       break;
 315:main.cpp      **** 
 316:main.cpp      ****       case 'L':            // Leave programming mode
 317:main.cpp      ****          SerialWrite(0, '\r');
 318:main.cpp      ****       break;
 319:main.cpp      **** 
 320:main.cpp      ****       case 'p':            // return programmer type
 321:main.cpp      ****          SerialWrite(0, 'S');
 322:main.cpp      ****       break;
 323:main.cpp      **** 
 324:main.cpp      ****       case 't':           // return device type
 325:main.cpp      ****          SerialWrite(0, kDevType);
 326:main.cpp      ****          SerialWrite(0, 0);
 327:main.cpp      ****       break;
 328:main.cpp      **** 
 329:main.cpp      ****       case 'T':           // Set device
 330:main.cpp      ****          gDevice = SerialBusyRead(0);
 331:main.cpp      ****          SerialWrite(0, '\r');
 332:main.cpp      ****       break;
 333:main.cpp      **** 
 334:main.cpp      ****       case 'S':            //return software identifier
 335:main.cpp      ****          {
 336:main.cpp      ****          /* Note, we don't see an erase 
 337:main.cpp      ****             through AVRdude, so this hack is required. */
 338:main.cpp      ****          erase_user_flash();
 339:main.cpp      ****          SerialStr(0, kSoftwareIdentifier);
 340:main.cpp      ****           
 341:main.cpp      ****          }
 342:main.cpp      ****       break;
 343:main.cpp      **** 
 344:main.cpp      ****       case 'V':            //return software version
 345:main.cpp      ****           SerialWrite(0, kSoftwareVersionHigh);
 346:main.cpp      ****           SerialWrite(0, kSoftwareVersionLow);
 347:main.cpp      ****       break;
 348:main.cpp      **** 
 349:main.cpp      ****       case 's':            // Return Signature byte
 350:main.cpp      ****          SerialWrite(0, kSignatureByte1);
 351:main.cpp      ****          SerialWrite(0, kSignatureByte2);
 352:main.cpp      ****          SerialWrite(0, kSignatureByte3);
 353:main.cpp      ****       break;
 354:main.cpp      **** 
 355:main.cpp      ****       default:
 356:main.cpp      ****          SerialStr(0, "?");
 357:main.cpp      ****       break;
 358:main.cpp      ****    }
ARM GAS  /cygdrive/c/Users/Chris/AppData/Local/Temp/ccTr68SV.s 			page 10


 359:main.cpp      **** 
 360:main.cpp      **** }
 361:main.cpp      **** 
 362:main.cpp      **** //*******************************************************************************
 363:main.cpp      **** // Send a block of program memory via serial
 364:main.cpp      **** void BlockRead(unsigned int size, unsigned char memType)
 365:main.cpp      **** {
 366:main.cpp      **** 
 367:main.cpp      **** unsigned int cnt=0;
 368:main.cpp      **** unsigned int byteCntPgm=0;
 369:main.cpp      **** unsigned int byteCntDumb=0;
 370:main.cpp      **** 
 371:main.cpp      ****    if (gAddressPgm >= (unsigned char*)0x7800)
 372:main.cpp      ****    {
 373:main.cpp      ****       byteCntPgm=0;
 374:main.cpp      ****    }
 375:main.cpp      ****    
 376:main.cpp      ****    for(cnt = 0; cnt< size; cnt++)
 377:main.cpp      ****    {
 378:main.cpp      ****       unsigned char *b = (unsigned char*)gAddressPgm;
 379:main.cpp      ****       unsigned char byte;
 380:main.cpp      ****       
 381:main.cpp      ****       /* test for in app range */
 382:main.cpp      ****       if (gAddress >= (unsigned char*)(kApplicationStartAddr))
 383:main.cpp      ****       { 
 384:main.cpp      ****          byte = b[cnt];
 385:main.cpp      ****          byteCntPgm++;
 386:main.cpp      ****       }
 387:main.cpp      ****       else
 388:main.cpp      ****       {
 389:main.cpp      ****          /* Send dummy data */
 390:main.cpp      ****          byte = 0xFF;
 391:main.cpp      ****          byteCntDumb++;
 392:main.cpp      ****       }
 393:main.cpp      ****       
 394:main.cpp      ****       SerialWrite(0, byte);
 395:main.cpp      ****    }
 396:main.cpp      **** 
 397:main.cpp      ****     gAddress+= byteCntDumb;
 398:main.cpp      ****     gAddressPgm+= byteCntPgm;
 399:main.cpp      **** }
 400:main.cpp      **** 
 401:main.cpp      **** //*******************************************************************************
 402:main.cpp      **** // Load the RAM buffer with bytes from serial
 403:main.cpp      **** char BufferLoad(unsigned int size, unsigned char memType)
 404:main.cpp      **** {
 405:main.cpp      ****    unsigned int cnt;
 406:main.cpp      **** 
 407:main.cpp      ****    /* Fill up an entire page in RAM from Serial */
 408:main.cpp      ****     for (cnt=0; cnt < kSPM_PAGE_SIZE; cnt++) 
 409:main.cpp      ****     {
 410:main.cpp      ****         if (cnt<size)
 411:main.cpp      ****         {    
 412:main.cpp      ****             gBuffer[cnt] = SerialBusyRead(0);
 413:main.cpp      ****         }
 414:main.cpp      ****         else
 415:main.cpp      ****         {     
ARM GAS  /cygdrive/c/Users/Chris/AppData/Local/Temp/ccTr68SV.s 			page 11


 416:main.cpp      ****            gBuffer[cnt]=0xFF;
 417:main.cpp      ****         }
 418:main.cpp      ****     }
 419:main.cpp      **** 
 420:main.cpp      ****    /* Since AVRdude sends us blank data to start off, 
 421:main.cpp      ****       check to see if we've hit the APP start address */
 422:main.cpp      ****    if (gAddress >= (unsigned char*)(kApplicationStartAddr))
 423:main.cpp      ****    {
 424:main.cpp      ****       
 425:main.cpp      ****       write_flash((unsigned int*)(gAddressPgm), 
 426:main.cpp      ****                   gBuffer, 
 427:main.cpp      ****                   kSPM_PAGE_SIZE, 
 428:main.cpp      ****                   true);
 429:main.cpp      **** 
 430:main.cpp      ****       /* Increment the real programming address */
 431:main.cpp      ****       gAddressPgm+=size;
 432:main.cpp      **** 
 433:main.cpp      ****    }
 434:main.cpp      **** 
 435:main.cpp      ****    /* Increment the Butterfly address  */
 436:main.cpp      ****    gAddress+=size;
 437:main.cpp      ****    
 438:main.cpp      ****    return '\r';
 439:main.cpp      **** }...
 152              		.loc 1 439 0
 153              		@ Function supports interworking.
 154              		@ args = 0, pretend = 0, frame = 0
 155              		@ frame_needed = 0, uses_anonymous_args = 0
 156              		@ link register save eliminated.
 157              	.LBB4:
 158              	.LBB5:
 159              		.loc 1 89 0
 160 0000 0C309FE5 		ldr	r3, .L19
 161 0004 002093E5 		ldr	r2, [r3, #0]
 162 0008 08309FE5 		ldr	r3, .L19+4
 163 000c 002083E5 		str	r2, [r3, #0]
 164              	.LBE5:
 165              	.LBE4:
 166              		.loc 1 439 0
 167 0010 1EFF2FE1 		bx	lr
 168              	.L20:
 169              		.align	2
 170              	.L19:
 171 0014 00000000 		.word	.LANCHOR1
 172 0018 00000000 		.word	.LANCHOR0
 173              	.LFE15:
 174              		.size	_GLOBAL__I__vfprintf_r, .-_GLOBAL__I__vfprintf_r
 175              		.section	.init_array,"aw",%init_array
 176              		.align	2
 177 0000 00000000 		.word	_GLOBAL__I__vfprintf_r(target1)
 178              		.section	.text._Z10BufferLoadjh,"ax",%progbits
 179              		.align	2
 180              		.global	_Z10BufferLoadjh
 181              		.type	_Z10BufferLoadjh, %function
 182              	_Z10BufferLoadjh:
 183              	.LFB13:
 184              		.loc 1 403 0
ARM GAS  /cygdrive/c/Users/Chris/AppData/Local/Temp/ccTr68SV.s 			page 12


 185              		@ Function supports interworking.
 186              		@ args = 0, pretend = 0, frame = 0
 187              		@ frame_needed = 0, uses_anonymous_args = 0
 188              	.LVL0:
 189 0000 70402DE9 		stmfd	sp!, {r4, r5, r6, lr}
 190              	.LCFI0:
 191              		.loc 1 403 0
 192 0004 0060A0E1 		mov	r6, r0
 193 0008 0050A0E3 		mov	r5, #0
 194              	.LVL1:
 195              	.L24:
 196              	.LBB6:
 197              		.loc 1 410 0
 198 000c 060055E1 		cmp	r5, r6
 199 0010 78409FE5 		ldr	r4, .L27
 200              		.loc 1 416 0
 201 0014 0030E023 		mvncs	r3, #0
 202 0018 0530C427 		strcsb	r3, [r4, r5]
 203              		.loc 1 410 0
 204 001c 0200002A 		bcs	.L23
 205              		.loc 1 412 0
 206 0020 0000A0E3 		mov	r0, #0
 207 0024 FEFFFFEB 		bl	_Z14SerialBusyReadh
 208              	.LVL2:
 209 0028 0500C4E7 		strb	r0, [r4, r5]
 210              	.LVL3:
 211              	.L23:
 212              		.loc 1 408 0
 213 002c 015085E2 		add	r5, r5, #1
 214 0030 020C55E3 		cmp	r5, #512
 215 0034 F4FFFF1A 		bne	.L24
 216              		.loc 1 422 0
 217 0038 54309FE5 		ldr	r3, .L27+4
 218 003c 002093E5 		ldr	r2, [r3, #0]
 219 0040 50309FE5 		ldr	r3, .L27+8
 220 0044 003093E5 		ldr	r3, [r3, #0]
 221 0048 030052E1 		cmp	r2, r3
 222 004c 0800003A 		bcc	.L25
 223              		.loc 1 428 0
 224 0050 44409FE5 		ldr	r4, .L27+12
 225 0054 0130A0E3 		mov	r3, #1
 226 0058 0520A0E1 		mov	r2, r5
 227 005c 000094E5 		ldr	r0, [r4, #0]
 228 0060 28109FE5 		ldr	r1, .L27
 229              	.LVL4:
 230 0064 FEFFFFEB 		bl	_Z11write_flashPjPhjb
 231              		.loc 1 431 0
 232 0068 003094E5 		ldr	r3, [r4, #0]
 233 006c 063083E0 		add	r3, r3, r6
 234 0070 003084E5 		str	r3, [r4, #0]
 235              	.LVL5:
 236              	.L25:
 237              		.loc 1 436 0
 238 0074 18209FE5 		ldr	r2, .L27+4
 239 0078 003092E5 		ldr	r3, [r2, #0]
 240 007c 063083E0 		add	r3, r3, r6
 241 0080 003082E5 		str	r3, [r2, #0]
ARM GAS  /cygdrive/c/Users/Chris/AppData/Local/Temp/ccTr68SV.s 			page 13


 242              	.LBE6:
 243              		.loc 1 439 0
 244 0084 0D00A0E3 		mov	r0, #13
 245 0088 7040BDE8 		ldmfd	sp!, {r4, r5, r6, lr}
 246 008c 1EFF2FE1 		bx	lr
 247              	.L28:
 248              		.align	2
 249              	.L27:
 250 0090 00000000 		.word	.LANCHOR2
 251 0094 00000000 		.word	.LANCHOR3
 252 0098 00000000 		.word	.LANCHOR1
 253 009c 00000000 		.word	.LANCHOR0
 254              	.LFE13:
 255              		.size	_Z10BufferLoadjh, .-_Z10BufferLoadjh
 256              		.section	.text._Z9BlockReadjh,"ax",%progbits
 257              		.align	2
 258              		.global	_Z9BlockReadjh
 259              		.type	_Z9BlockReadjh, %function
 260              	_Z9BlockReadjh:
 261              	.LFB12:
 262              		.loc 1 364 0
 263              		@ Function supports interworking.
 264              		@ args = 0, pretend = 0, frame = 0
 265              		@ frame_needed = 0, uses_anonymous_args = 0
 266              	.LVL6:
 267 0000 F0412DE9 		stmfd	sp!, {r4, r5, r6, r7, r8, lr}
 268              	.LCFI1:
 269              		.loc 1 364 0
 270 0004 0040A0E3 		mov	r4, #0
 271              	.LVL7:
 272 0008 0070A0E1 		mov	r7, r0
 273 000c 0460A0E1 		mov	r6, r4
 274              	.LVL8:
 275 0010 0450A0E1 		mov	r5, r4
 276              	.LVL9:
 277 0014 0B0000EA 		b	.L30
 278              	.LVL10:
 279              	.L33:
 280              	.LBB7:
 281              	.LBB8:
 282              		.loc 1 382 0
 283 0018 58209FE5 		ldr	r2, .L35
 284 001c 003091E5 		ldr	r3, [r1, #0]
 285 0020 002092E5 		ldr	r2, [r2, #0]
 286              		.loc 1 378 0
 287 0024 001090E5 		ldr	r1, [r0, #0]
 288              	.LVL11:
 289              		.loc 1 382 0
 290 0028 020053E1 		cmp	r3, r2
 291              		.loc 1 384 0
 292 002c 0410D127 		ldrcsb	r1, [r1, r4]	@ zero_extendqisi2
 293              	.LVL12:
 294              		.loc 1 391 0
 295 0030 FF10A033 		movcc	r1, #255
 296              	.LVL13:
 297              		.loc 1 394 0
 298 0034 0000A0E3 		mov	r0, #0
ARM GAS  /cygdrive/c/Users/Chris/AppData/Local/Temp/ccTr68SV.s 			page 14


 299              		.loc 1 385 0
 300 0038 01608622 		addcs	r6, r6, #1
 301              		.loc 1 391 0
 302 003c 01508532 		addcc	r5, r5, #1
 303              		.loc 1 394 0
 304 0040 FEFFFFEB 		bl	_Z11SerialWritehi
 305              	.LVL14:
 306              	.LBE8:
 307              		.loc 1 376 0
 308 0044 014084E2 		add	r4, r4, #1
 309              	.LVL15:
 310              	.L30:
 311 0048 070054E1 		cmp	r4, r7
 312 004c 28009FE5 		ldr	r0, .L35+4
 313 0050 28109FE5 		ldr	r1, .L35+8
 314              	.LVL16:
 315 0054 EFFFFF3A 		bcc	.L33
 316              		.loc 1 397 0
 317 0058 003091E5 		ldr	r3, [r1, #0]
 318              		.loc 1 398 0
 319 005c 002090E5 		ldr	r2, [r0, #0]
 320              		.loc 1 397 0
 321 0060 053083E0 		add	r3, r3, r5
 322              		.loc 1 398 0
 323 0064 062082E0 		add	r2, r2, r6
 324              		.loc 1 397 0
 325 0068 003081E5 		str	r3, [r1, #0]
 326              		.loc 1 398 0
 327 006c 002080E5 		str	r2, [r0, #0]
 328              	.LBE7:
 329              		.loc 1 399 0
 330 0070 F041BDE8 		ldmfd	sp!, {r4, r5, r6, r7, r8, lr}
 331 0074 1EFF2FE1 		bx	lr
 332              	.L36:
 333              		.align	2
 334              	.L35:
 335 0078 00000000 		.word	.LANCHOR1
 336 007c 00000000 		.word	.LANCHOR0
 337 0080 00000000 		.word	.LANCHOR3
 338              	.LFE12:
 339              		.size	_Z9BlockReadjh, .-_Z9BlockReadjh
 340              		.section	.text._Z16ButterflyServicec,"ax",%progbits
 341              		.align	2
 342              		.global	_Z16ButterflyServicec
 343              		.type	_Z16ButterflyServicec, %function
 344              	_Z16ButterflyServicec:
 345              	.LFB11:
 346              		.loc 1 180 0
 347              		@ Function supports interworking.
 348              		@ args = 0, pretend = 0, frame = 0
 349              		@ frame_needed = 0, uses_anonymous_args = 0
 350              	.LVL17:
 351              	.LBB9:
 352              		.loc 1 184 0
 353 0000 410040E2 		sub	r0, r0, #65
 354              	.LVL18:
 355              	.LBE9:
ARM GAS  /cygdrive/c/Users/Chris/AppData/Local/Temp/ccTr68SV.s 			page 15


 356              		.loc 1 180 0
 357 0004 70402DE9 		stmfd	sp!, {r4, r5, r6, lr}
 358              	.LCFI2:
 359              	.LBB13:
 360              		.loc 1 184 0
 361 0008 330050E3 		cmp	r0, #51
 362 000c 00F19F97 		ldrls	pc, [pc, r0, asl #2]
 363 0010 CE0000EA 		b	.L38
 364              	.L59:
 365 0014 EC000000 		.word	.L39
 366 0018 BC010000 		.word	.L40
 367 001c 50030000 		.word	.L38
 368 0020 50030000 		.word	.L38
 369 0024 30020000 		.word	.L41
 370 0028 FC020000 		.word	.L66
 371 002c 50030000 		.word	.L38
 372 0030 2C010000 		.word	.L43
 373 0034 50030000 		.word	.L38
 374 0038 50030000 		.word	.L38
 375 003c 50030000 		.word	.L38
 376 0040 FC020000 		.word	.L66
 377 0044 50030000 		.word	.L38
 378 0048 FC020000 		.word	.L66
 379 004c 50030000 		.word	.L38
 380 0050 FC020000 		.word	.L66
 381 0054 FC020000 		.word	.L66
 382 0058 50030000 		.word	.L38
 383 005c 04030000 		.word	.L48
 384 0060 EC020000 		.word	.L49
 385 0064 50030000 		.word	.L38
 386 0068 14030000 		.word	.L50
 387 006c 50030000 		.word	.L38
 388 0070 50030000 		.word	.L38
 389 0074 50030000 		.word	.L38
 390 0078 50030000 		.word	.L38
 391 007c 50030000 		.word	.L38
 392 0080 50030000 		.word	.L38
 393 0084 50030000 		.word	.L38
 394 0088 50030000 		.word	.L38
 395 008c 50030000 		.word	.L38
 396 0090 50030000 		.word	.L38
 397 0094 E4000000 		.word	.L51
 398 0098 94010000 		.word	.L52
 399 009c 50030000 		.word	.L38
 400 00a0 50030000 		.word	.L38
 401 00a4 28020000 		.word	.L53
 402 00a8 50030000 		.word	.L38
 403 00ac F0010000 		.word	.L54
 404 00b0 50030000 		.word	.L38
 405 00b4 50030000 		.word	.L38
 406 00b8 50030000 		.word	.L38
 407 00bc 50030000 		.word	.L38
 408 00c0 50030000 		.word	.L38
 409 00c4 50030000 		.word	.L38
 410 00c8 50030000 		.word	.L38
 411 00cc 50030000 		.word	.L38
 412 00d0 CC020000 		.word	.L55
ARM GAS  /cygdrive/c/Users/Chris/AppData/Local/Temp/ccTr68SV.s 			page 16


 413 00d4 50030000 		.word	.L38
 414 00d8 FC020000 		.word	.L66
 415 00dc 28030000 		.word	.L57
 416 00e0 D4020000 		.word	.L58
 417              	.L51:
 418              		.loc 1 188 0
 419 00e4 5910A0E3 		mov	r1, #89
 420 00e8 950000EA 		b	.L63
 421              	.L39:
 422              		.loc 1 192 0
 423 00ec 0000A0E3 		mov	r0, #0
 424 00f0 FEFFFFEB 		bl	_Z14SerialBusyReadh
 425 00f4 68429FE5 		ldr	r4, .L67
 426 00f8 0004A0E1 		mov	r0, r0, asl #8
 427 00fc 000084E5 		str	r0, [r4, #0]
 428              		.loc 1 193 0
 429 0100 0000A0E3 		mov	r0, #0
 430 0104 005094E5 		ldr	r5, [r4, #0]
 431 0108 FEFFFFEB 		bl	_Z14SerialBusyReadh
 432 010c 050080E1 		orr	r0, r0, r5
 433 0110 000084E5 		str	r0, [r4, #0]
 434              		.loc 1 195 0
 435 0114 003094E5 		ldr	r3, [r4, #0]
 436 0118 0331A0E1 		mov	r3, r3, asl #2
 437              		.loc 1 197 0
 438 011c 0D10A0E3 		mov	r1, #13
 439 0120 0000A0E3 		mov	r0, #0
 440              		.loc 1 195 0
 441 0124 003084E5 		str	r3, [r4, #0]
 442 0128 860000EA 		b	.L65
 443              	.L43:
 444              		.loc 1 204 0
 445 012c 30529FE5 		ldr	r5, .L67
 446 0130 0000A0E3 		mov	r0, #0
 447 0134 004095E5 		ldr	r4, [r5, #0]
 448 0138 FEFFFFEB 		bl	_Z14SerialBusyReadh
 449 013c 004884E1 		orr	r4, r4, r0, asl #16
 450 0140 004085E5 		str	r4, [r5, #0]
 451              		.loc 1 205 0
 452 0144 0000A0E3 		mov	r0, #0
 453 0148 004095E5 		ldr	r4, [r5, #0]
 454 014c FEFFFFEB 		bl	_Z14SerialBusyReadh
 455 0150 004484E1 		orr	r4, r4, r0, asl #8
 456 0154 004085E5 		str	r4, [r5, #0]
 457              		.loc 1 206 0
 458 0158 0000A0E3 		mov	r0, #0
 459 015c 004095E5 		ldr	r4, [r5, #0]
 460 0160 FEFFFFEB 		bl	_Z14SerialBusyReadh
 461              		.loc 1 209 0
 462 0164 FC319FE5 		ldr	r3, .L67+4
 463 0168 00C093E5 		ldr	ip, [r3, #0]
 464              		.loc 1 206 0
 465 016c 043080E1 		orr	r3, r0, r4
 466 0170 003085E5 		str	r3, [r5, #0]
 467              		.loc 1 209 0
 468 0174 F0319FE5 		ldr	r3, .L67+8
 469 0178 00C083E5 		str	ip, [r3, #0]
ARM GAS  /cygdrive/c/Users/Chris/AppData/Local/Temp/ccTr68SV.s 			page 17


 470              		.loc 1 208 0
 471 017c EC319FE5 		ldr	r3, .L67+12
 472 0180 0020A0E3 		mov	r2, #0
 473              		.loc 1 211 0
 474 0184 0200A0E1 		mov	r0, r2
 475 0188 0D10A0E3 		mov	r1, #13
 476              		.loc 1 208 0
 477 018c 002083E5 		str	r2, [r3, #0]
 478 0190 6C0000EA 		b	.L65
 479              	.L52:
 480              		.loc 1 216 0
 481 0194 5910A0E3 		mov	r1, #89
 482 0198 0000A0E3 		mov	r0, #0
 483 019c FEFFFFEB 		bl	_Z11SerialWritehi
 484              		.loc 1 217 0
 485 01a0 0210A0E3 		mov	r1, #2
 486 01a4 0000A0E3 		mov	r0, #0
 487 01a8 FEFFFFEB 		bl	_Z11SerialWritehi
 488              		.loc 1 218 0
 489 01ac 021CA0E3 		mov	r1, #512
 490 01b0 0000A0E3 		mov	r0, #0
 491 01b4 FEFFFFEB 		bl	_Z11SerialWritehi
 492 01b8 4F0000EA 		b	.L66
 493              	.L40:
 494              	.LBB11:
 495              		.loc 1 229 0
 496 01bc 0000A0E3 		mov	r0, #0
 497 01c0 FEFFFFEB 		bl	_Z14SerialBusyReadh
 498 01c4 0054A0E1 		mov	r5, r0, asl #8
 499              	.LVL19:
 500              		.loc 1 230 0
 501 01c8 0000A0E3 		mov	r0, #0
 502 01cc FEFFFFEB 		bl	_Z14SerialBusyReadh
 503 01d0 0040A0E1 		mov	r4, r0
 504              		.loc 1 231 0
 505 01d4 0000A0E3 		mov	r0, #0
 506 01d8 FEFFFFEB 		bl	_Z14SerialBusyReadh
 507              		.loc 1 233 0
 508 01dc FF1000E2 		and	r1, r0, #255
 509 01e0 040085E1 		orr	r0, r5, r4
 510 01e4 FEFFFFEB 		bl	_Z10BufferLoadjh
 511 01e8 0010A0E1 		mov	r1, r0
 512 01ec 540000EA 		b	.L63
 513              	.LVL20:
 514              	.L54:
 515              	.LBE11:
 516              	.LBB10:
 517              		.loc 1 245 0
 518 01f0 0000A0E3 		mov	r0, #0
 519 01f4 FEFFFFEB 		bl	_Z14SerialBusyReadh
 520 01f8 0044A0E1 		mov	r4, r0, asl #8
 521              	.LVL21:
 522              		.loc 1 246 0
 523 01fc 0000A0E3 		mov	r0, #0
 524 0200 FEFFFFEB 		bl	_Z14SerialBusyReadh
 525 0204 004084E1 		orr	r4, r4, r0
 526              	.LVL22:
ARM GAS  /cygdrive/c/Users/Chris/AppData/Local/Temp/ccTr68SV.s 			page 18


 527              		.loc 1 247 0
 528 0208 0000A0E3 		mov	r0, #0
 529 020c FEFFFFEB 		bl	_Z14SerialBusyReadh
 530              		.loc 1 249 0
 531 0210 010054E3 		cmp	r4, #1
 532 0214 3800000A 		beq	.L66
 533              	.L61:
 534              		.loc 1 255 0
 535 0218 FF1000E2 		and	r1, r0, #255
 536 021c 0400A0E1 		mov	r0, r4
 537              	.LBE10:
 538              	.LBE13:
 539              		.loc 1 360 0
 540 0220 7040BDE8 		ldmfd	sp!, {r4, r5, r6, lr}
 541              	.LBB14:
 542              	.LBB12:
 543              		.loc 1 255 0
 544 0224 FEFFFFEA 		b	_Z9BlockReadjh
 545              	.LVL23:
 546              	.L53:
 547              	.LBE12:
 548              		.loc 1 261 0
 549 0228 FEFFFFEB 		bl	_Z16erase_user_flashv
 550 022c 320000EA 		b	.L66
 551              	.L41:
 552              		.loc 1 270 0
 553 0230 3C519FE5 		ldr	r5, .L67+16
 554              		.loc 1 271 0
 555 0234 2C619FE5 		ldr	r6, .L67+4
 556 0238 2C319FE5 		ldr	r3, .L67+8
 557              		.loc 1 270 0
 558 023c 082085E2 		add	r2, r5, #8
 559 0240 060092E8 		ldmia	r2, {r1-r2}
 560              		.loc 1 271 0
 561 0244 000096E5 		ldr	r0, [r6, #0]
 562 0248 00C093E5 		ldr	ip, [r3, #0]
 563              		.loc 1 270 0
 564 024c 0130A0E3 		mov	r3, #1
 565 0250 031091E0 		adds	r1, r1, r3
 566 0254 0040A0E3 		mov	r4, #0
 567 0258 0420A2E0 		adc	r2, r2, r4
 568              		.loc 1 271 0
 569 025c 0CC060E0 		rsb	ip, r0, ip
 570 0260 10C085E5 		str	ip, [r5, #16]
 571              		.loc 1 270 0
 572 0264 081085E5 		str	r1, [r5, #8]
 573 0268 0C2085E5 		str	r2, [r5, #12]
 574              		.loc 1 274 0
 575 026c 0500A0E1 		mov	r0, r5
 576 0270 FEFFFFEB 		bl	_Z15SFBChecksumInitPm
 577              		.loc 1 277 0
 578 0274 0500A0E1 		mov	r0, r5
 579 0278 001096E5 		ldr	r1, [r6, #0]
 580 027c 102095E5 		ldr	r2, [r5, #16]
 581 0280 FEFFFFEB 		bl	_Z19SFBChecksumAddBytesPmPKci
 582              		.loc 1 283 0
 583 0284 EC309FE5 		ldr	r3, .L67+20
ARM GAS  /cygdrive/c/Users/Chris/AppData/Local/Temp/ccTr68SV.s 			page 19


 584 0288 022CA0E3 		mov	r2, #512
 585 028c 0510A0E1 		mov	r1, r5
 586 0290 000093E5 		ldr	r0, [r3, #0]
 587 0294 0030A0E3 		mov	r3, #0
 588 0298 FEFFFFEB 		bl	_Z11write_flashPjPhjb
 589              		.loc 1 286 0
 590 029c 0D10A0E3 		mov	r1, #13
 591 02a0 0000A0E3 		mov	r0, #0
 592 02a4 FEFFFFEB 		bl	_Z11SerialWritehi
 593              		.loc 1 287 0
 594 02a8 0D10A0E3 		mov	r1, #13
 595 02ac 0000A0E3 		mov	r0, #0
 596 02b0 FEFFFFEB 		bl	_Z11SerialWritehi
 597              		.loc 1 289 0
 598 02b4 002096E5 		ldr	r2, [r6, #0]
 599 02b8 BC309FE5 		ldr	r3, .L67+24
 600 02bc 002083E5 		str	r2, [r3, #0]
 601              		.loc 1 290 0
 602 02c0 0FE0A0E1 		mov	lr, pc
 603 02c4 12FF2FE1 		bx	r2
 604 02c8 230000EA 		b	.L62
 605              	.L55:
 606              		.loc 1 321 0
 607 02cc 5310A0E3 		mov	r1, #83
 608 02d0 1B0000EA 		b	.L63
 609              	.L58:
 610              		.loc 1 325 0
 611 02d4 7410A0E3 		mov	r1, #116
 612 02d8 0000A0E3 		mov	r0, #0
 613 02dc FEFFFFEB 		bl	_Z11SerialWritehi
 614              		.loc 1 326 0
 615 02e0 0000A0E3 		mov	r0, #0
 616 02e4 0010A0E1 		mov	r1, r0
 617 02e8 160000EA 		b	.L65
 618              	.L49:
 619              		.loc 1 330 0
 620 02ec 0000A0E3 		mov	r0, #0
 621 02f0 FEFFFFEB 		bl	_Z14SerialBusyReadh
 622 02f4 84309FE5 		ldr	r3, .L67+28
 623 02f8 0000C3E5 		strb	r0, [r3, #0]
 624              	.LVL24:
 625              	.L66:
 626              		.loc 1 331 0
 627 02fc 0D10A0E3 		mov	r1, #13
 628 0300 0F0000EA 		b	.L63
 629              	.LVL25:
 630              	.L48:
 631              		.loc 1 338 0
 632 0304 FEFFFFEB 		bl	_Z16erase_user_flashv
 633              		.loc 1 339 0
 634 0308 0000A0E3 		mov	r0, #0
 635 030c 70109FE5 		ldr	r1, .L67+32
 636 0310 100000EA 		b	.L64
 637              	.L50:
 638              		.loc 1 345 0
 639 0314 3010A0E3 		mov	r1, #48
 640 0318 0000A0E3 		mov	r0, #0
ARM GAS  /cygdrive/c/Users/Chris/AppData/Local/Temp/ccTr68SV.s 			page 20


 641 031c FEFFFFEB 		bl	_Z11SerialWritehi
 642              		.loc 1 346 0
 643 0320 3710A0E3 		mov	r1, #55
 644 0324 060000EA 		b	.L63
 645              	.L57:
 646              		.loc 1 350 0
 647 0328 0110A0E3 		mov	r1, #1
 648 032c 0000A0E3 		mov	r0, #0
 649 0330 FEFFFFEB 		bl	_Z11SerialWritehi
 650              		.loc 1 351 0
 651 0334 9810A0E3 		mov	r1, #152
 652 0338 0000A0E3 		mov	r0, #0
 653 033c FEFFFFEB 		bl	_Z11SerialWritehi
 654              		.loc 1 352 0
 655 0340 1E10A0E3 		mov	r1, #30
 656              	.LVL26:
 657              	.L63:
 658 0344 0000A0E3 		mov	r0, #0
 659              	.L65:
 660 0348 FEFFFFEB 		bl	_Z11SerialWritehi
 661 034c 020000EA 		b	.L62
 662              	.LVL27:
 663              	.L38:
 664              		.loc 1 356 0
 665 0350 30109FE5 		ldr	r1, .L67+36
 666 0354 0000A0E3 		mov	r0, #0
 667              	.L64:
 668 0358 FEFFFFEB 		bl	_Z9SerialStrhPc
 669              	.LVL28:
 670              	.L62:
 671              	.LBE14:
 672              		.loc 1 360 0
 673 035c 7040BDE8 		ldmfd	sp!, {r4, r5, r6, lr}
 674 0360 1EFF2FE1 		bx	lr
 675              	.L68:
 676              		.align	2
 677              	.L67:
 678 0364 00000000 		.word	.LANCHOR4
 679 0368 00000000 		.word	.LANCHOR1
 680 036c 00000000 		.word	.LANCHOR0
 681 0370 00000000 		.word	.LANCHOR3
 682 0374 00000000 		.word	.LANCHOR5
 683 0378 00000000 		.word	.LANCHOR6
 684 037c 00000000 		.word	.LANCHOR7
 685 0380 00000000 		.word	.LANCHOR8
 686 0384 00000000 		.word	.LC0
 687 0388 08000000 		.word	.LC1
 688              	.LFE11:
 689              		.size	_Z16ButterflyServicec, .-_Z16ButterflyServicec
 690              		.section	.text.main,"ax",%progbits
 691              		.align	2
 692              		.global	main
 693              		.type	main, %function
 694              	main:
 695              	.LFB10:
 696              		.loc 1 118 0
 697              		@ Function supports interworking.
ARM GAS  /cygdrive/c/Users/Chris/AppData/Local/Temp/ccTr68SV.s 			page 21


 698              		@ args = 0, pretend = 0, frame = 0
 699              		@ frame_needed = 0, uses_anonymous_args = 0
 700 0000 70402DE9 		stmfd	sp!, {r4, r5, r6, lr}
 701              	.LCFI3:
 702              		.loc 1 122 0
 703 0004 FEFFFFEB 		bl	_Z7sysInitv
 704              		.loc 1 125 0
 705 0008 0010A0E3 		mov	r1, #0
 706 000c 2A00A0E3 		mov	r0, #42
 707 0010 FEFFFFEB 		bl	_Z7pinModehh
 708              		.loc 1 128 0
 709 0014 D4309FE5 		ldr	r3, .L75
 710 0018 002093E5 		ldr	r2, [r3, #0]
 711 001c D0509FE5 		ldr	r5, .L75+4
 712 0020 003092E5 		ldr	r3, [r2, #0]
 713 0024 003085E5 		str	r3, [r5, #0]
 714              		.loc 1 131 0
 715 0028 10C092E5 		ldr	ip, [r2, #16]
 716              		.loc 1 130 0
 717 002c 084082E2 		add	r4, r2, #8
 718 0030 180094E8 		ldmia	r4, {r3-r4}
 719              		.loc 1 129 0
 720 0034 041092E5 		ldr	r1, [r2, #4]
 721              		.loc 1 137 0
 722 0038 B8609FE5 		ldr	r6, .L75+8
 723              		.loc 1 134 0
 724 003c B8009FE5 		ldr	r0, .L75+12
 725              		.loc 1 130 0
 726 0040 083085E5 		str	r3, [r5, #8]
 727 0044 0C4085E5 		str	r4, [r5, #12]
 728              		.loc 1 131 0
 729 0048 10C085E5 		str	ip, [r5, #16]
 730              		.loc 1 129 0
 731 004c 041085E5 		str	r1, [r5, #4]
 732              		.loc 1 134 0
 733 0050 FEFFFFEB 		bl	_Z15SFBChecksumInitPm
 734              		.loc 1 137 0
 735 0054 001096E5 		ldr	r1, [r6, #0]
 736 0058 102095E5 		ldr	r2, [r5, #16]
 737 005c 98009FE5 		ldr	r0, .L75+12
 738 0060 FEFFFFEB 		bl	_Z19SFBChecksumAddBytesPmPKci
 739              		.loc 1 140 0
 740 0064 0500A0E1 		mov	r0, r5
 741 0068 8C109FE5 		ldr	r1, .L75+12
 742 006c FEFFFFEB 		bl	_Z16SFBChecksumEqualPKmS0_
 743 0070 88309FE5 		ldr	r3, .L75+16
 744 0074 000050E2 		subs	r0, r0, #0
 745 0078 0100A013 		movne	r0, #1
 746              		.loc 1 143 0
 747 007c 000050E3 		cmp	r0, #0
 748              		.loc 1 140 0
 749 0080 0000C3E5 		strb	r0, [r3, #0]
 750              		.loc 1 143 0
 751 0084 0700000A 		beq	.L70
 752 0088 2A00A0E3 		mov	r0, #42
 753 008c FEFFFFEB 		bl	_Z11digitalReadh
 754 0090 000050E3 		cmp	r0, #0
ARM GAS  /cygdrive/c/Users/Chris/AppData/Local/Temp/ccTr68SV.s 			page 22


 755              		.loc 1 146 0
 756 0094 00209615 		ldrne	r2, [r6, #0]
 757 0098 64309F15 		ldrne	r3, .L75+20
 758 009c 00208315 		strne	r2, [r3, #0]
 759              		.loc 1 147 0
 760 00a0 0FE0A011 		movne	lr, pc
 761 00a4 12FF2F11 		bxne	r2
 762              	.L70:
 763              		.loc 1 151 0
 764 00a8 0000A0E3 		mov	r0, #0
 765 00ac 54109FE5 		ldr	r1, .L75+24
 766 00b0 FEFFFFEB 		bl	_Z11SerialBeginhm
 767              		.loc 1 152 0
 768 00b4 FEFFFFEB 		bl	_Z13turnOnAllLEDsv
 769              		.loc 1 155 0
 770 00b8 0200A0E3 		mov	r0, #2
 771 00bc FEFFFFEB 		bl	_Z8spinLEDsj
 772              	.L74:
 773              		.loc 1 164 0
 774 00c0 44309FE5 		ldr	r3, .L75+28
 775 00c4 143093E5 		ldr	r3, [r3, #20]
 776 00c8 010013E3 		tst	r3, #1
 777 00cc FBFFFF0A 		beq	.L74
 778              		.loc 1 167 0
 779 00d0 0000A0E3 		mov	r0, #0
 780 00d4 FEFFFFEB 		bl	_Z14SerialBusyReadh
 781 00d8 30209FE5 		ldr	r2, .L75+32
 782 00dc FF3000E2 		and	r3, r0, #255
 783              		.loc 1 170 0
 784 00e0 0300A0E1 		mov	r0, r3
 785              		.loc 1 167 0
 786 00e4 0030C2E5 		strb	r3, [r2, #0]
 787              		.loc 1 170 0
 788 00e8 FEFFFFEB 		bl	_Z16ButterflyServicec
 789 00ec F3FFFFEA 		b	.L74
 790              	.L76:
 791              		.align	2
 792              	.L75:
 793 00f0 00000000 		.word	.LANCHOR6
 794 00f4 00000000 		.word	.LANCHOR5
 795 00f8 00000000 		.word	.LANCHOR1
 796 00fc 00000000 		.word	.LANCHOR9
 797 0100 00000000 		.word	.LANCHOR10
 798 0104 00000000 		.word	.LANCHOR7
 799 0108 00C20100 		.word	115200
 800 010c 00C000E0 		.word	-536821760
 801 0110 00000000 		.word	.LANCHOR11
 802              	.LFE10:
 803              		.size	main, .-main
 804              		.global	kApplicationStartAddr
 805              		.global	gAddress
 806              		.global	gAddressPgm
 807              		.global	gBuffer
 808              		.global	gDevice
 809              		.global	gDevType
 810              		.global	gRecvCommand
 811              		.global	purge
ARM GAS  /cygdrive/c/Users/Chris/AppData/Local/Temp/ccTr68SV.s 			page 23


 812              		.global	gConfigMemPtr
 813              		.global	gConfigMem
 814              		.global	app_code_entry
 815              		.global	gSFBootValidChecksum
 816              		.global	wait
 817              		.global	pin
 818              		.global	x
 819              		.global	uart
 820              		.global	index
 821              		.section	.bss.gDevType,"aw",%nobits
 822              		.type	gDevType, %object
 823              		.size	gDevType, 1
 824              	gDevType:
 825 0000 00       		.space	1
 826              		.section	.bss.wait,"aw",%nobits
 827              		.align	3
 828              		.type	wait, %object
 829              		.size	wait, 8
 830              	wait:
 831 0000 00000000 		.space	8
 831      00000000 
 832              		.section	.bss.uart,"aw",%nobits
 833              		.type	uart, %object
 834              		.size	uart, 1
 835              	uart:
 836 0000 00       		.space	1
 837              		.section	.bss.gRecvCommand,"aw",%nobits
 838              		.set	.LANCHOR11,. + 0
 839              		.type	gRecvCommand, %object
 840              		.size	gRecvCommand, 1
 841              	gRecvCommand:
 842 0000 00       		.space	1
 843              		.section	.bss.gBuffer,"aw",%nobits
 844              		.set	.LANCHOR2,. + 0
 845              		.type	gBuffer, %object
 846              		.size	gBuffer, 512
 847              	gBuffer:
 848 0000 00000000 		.space	512
 848      00000000 
 848      00000000 
 848      00000000 
 848      00000000 
 849              		.section	.bss.gAddress,"aw",%nobits
 850              		.align	2
 851              		.set	.LANCHOR3,. + 0
 852              		.type	gAddress, %object
 853              		.size	gAddress, 4
 854              	gAddress:
 855 0000 00000000 		.space	4
 856              		.section	.data.kApplicationStartAddr,"aw",%progbits
 857              		.align	2
 858              		.set	.LANCHOR1,. + 0
 859              		.type	kApplicationStartAddr, %object
 860              		.size	kApplicationStartAddr, 4
 861              	kApplicationStartAddr:
 862 0000 00220000 		.word	8704
 863              		.section	.bss.gConfigMem,"aw",%nobits
ARM GAS  /cygdrive/c/Users/Chris/AppData/Local/Temp/ccTr68SV.s 			page 24


 864              		.align	3
 865              		.set	.LANCHOR5,. + 0
 866              		.type	gConfigMem, %object
 867              		.size	gConfigMem, 24
 868              	gConfigMem:
 869 0000 00000000 		.space	24
 869      00000000 
 869      00000000 
 869      00000000 
 869      00000000 
 870              		.section	.bss.gSFBootValidChecksum,"aw",%nobits
 871              		.set	.LANCHOR10,. + 0
 872              		.type	gSFBootValidChecksum, %object
 873              		.size	gSFBootValidChecksum, 1
 874              	gSFBootValidChecksum:
 875 0000 00       		.space	1
 876              		.section	.bss.purge,"aw",%nobits
 877              		.align	2
 878              		.set	.LANCHOR4,. + 0
 879              		.type	purge, %object
 880              		.size	purge, 4
 881              	purge:
 882 0000 00000000 		.space	4
 883              		.section	.bss.x,"aw",%nobits
 884              		.type	x, %object
 885              		.size	x, 1
 886              	x:
 887 0000 00       		.space	1
 888              		.section	.bss.gDevice,"aw",%nobits
 889              		.set	.LANCHOR8,. + 0
 890              		.type	gDevice, %object
 891              		.size	gDevice, 1
 892              	gDevice:
 893 0000 00       		.space	1
 894              		.section	.rodata.str1.1,"aMS",%progbits,1
 895              	.LC0:
 896 0000 41565242 		.ascii	"AVRBOOT\000"
 896      4F4F5400 
 897              	.LC1:
 898 0008 3F00     		.ascii	"?\000"
 899              		.section	.data.gConfigMemPtr,"aw",%progbits
 900              		.align	2
 901              		.set	.LANCHOR6,. + 0
 902              		.type	gConfigMemPtr, %object
 903              		.size	gConfigMemPtr, 4
 904              	gConfigMemPtr:
 905 0000 00200000 		.word	8192
 906              		.section	.bss._ZL8gRunning,"aw",%nobits
 907              		.align	2
 908              		.set	.LANCHOR9,. + 0
 909              		.type	_ZL8gRunning, %object
 910              		.size	_ZL8gRunning, 8
 911              	_ZL8gRunning:
 912 0000 00000000 		.space	8
 912      00000000 
 913              		.section	.bss.pin,"aw",%nobits
 914              		.type	pin, %object
ARM GAS  /cygdrive/c/Users/Chris/AppData/Local/Temp/ccTr68SV.s 			page 25


 915              		.size	pin, 1
 916              	pin:
 917 0000 00       		.space	1
 918              		.section	.bss.index,"aw",%nobits
 919              		.type	index, %object
 920              		.size	index, 1
 921              	index:
 922 0000 00       		.space	1
 923              		.section	.bss.gAddressPgm,"aw",%nobits
 924              		.align	2
 925              		.set	.LANCHOR0,. + 0
 926              		.type	gAddressPgm, %object
 927              		.size	gAddressPgm, 4
 928              	gAddressPgm:
 929 0000 00000000 		.space	4
 930              		.section	.bss.app_code_entry,"aw",%nobits
 931              		.align	2
 932              		.set	.LANCHOR7,. + 0
 933              		.type	app_code_entry, %object
 934              		.size	app_code_entry, 4
 935              	app_code_entry:
 936 0000 00000000 		.space	4
 937              		.section	.debug_frame,"",%progbits
 938              	.Lframe0:
 939 0000 0C000000 		.4byte	.LECIE0-.LSCIE0
 940              	.LSCIE0:
 941 0004 FFFFFFFF 		.4byte	0xffffffff
 942 0008 01       		.byte	0x1
 943 0009 00       		.ascii	"\000"
 944 000a 01       		.uleb128 0x1
 945 000b 7C       		.sleb128 -4
 946 000c 0E       		.byte	0xe
 947 000d 0C       		.byte	0xc
 948 000e 0D       		.uleb128 0xd
 949 000f 00       		.uleb128 0x0
 950              		.align	2
 951              	.LECIE0:
 952              	.LSFDE0:
 953 0010 0C000000 		.4byte	.LEFDE0-.LASFDE0
 954              	.LASFDE0:
 955 0014 00000000 		.4byte	.Lframe0
 956 0018 00000000 		.4byte	.LFB2
 957 001c 08000000 		.4byte	.LFE2-.LFB2
 958              		.align	2
 959              	.LEFDE0:
 960              	.LSFDE2:
 961 0020 0C000000 		.4byte	.LEFDE2-.LASFDE2
 962              	.LASFDE2:
 963 0024 00000000 		.4byte	.Lframe0
 964 0028 00000000 		.4byte	.LFB3
 965 002c 08000000 		.4byte	.LFE3-.LFB3
 966              		.align	2
 967              	.LEFDE2:
 968              	.LSFDE4:
 969 0030 0C000000 		.4byte	.LEFDE4-.LASFDE4
 970              	.LASFDE4:
 971 0034 00000000 		.4byte	.Lframe0
ARM GAS  /cygdrive/c/Users/Chris/AppData/Local/Temp/ccTr68SV.s 			page 26


 972 0038 00000000 		.4byte	.LFB4
 973 003c 04000000 		.4byte	.LFE4-.LFB4
 974              		.align	2
 975              	.LEFDE4:
 976              	.LSFDE6:
 977 0040 0C000000 		.4byte	.LEFDE6-.LASFDE6
 978              	.LASFDE6:
 979 0044 00000000 		.4byte	.Lframe0
 980 0048 00000000 		.4byte	.LFB5
 981 004c 08000000 		.4byte	.LFE5-.LFB5
 982              		.align	2
 983              	.LEFDE6:
 984              	.LSFDE8:
 985 0050 0C000000 		.4byte	.LEFDE8-.LASFDE8
 986              	.LASFDE8:
 987 0054 00000000 		.4byte	.Lframe0
 988 0058 00000000 		.4byte	.LFB6
 989 005c 08000000 		.4byte	.LFE6-.LFB6
 990              		.align	2
 991              	.LEFDE8:
 992              	.LSFDE10:
 993 0060 0C000000 		.4byte	.LEFDE10-.LASFDE10
 994              	.LASFDE10:
 995 0064 00000000 		.4byte	.Lframe0
 996 0068 00000000 		.4byte	.LFB7
 997 006c 08000000 		.4byte	.LFE7-.LFB7
 998              		.align	2
 999              	.LEFDE10:
 1000              	.LSFDE12:
 1001 0070 0C000000 		.4byte	.LEFDE12-.LASFDE12
 1002              	.LASFDE12:
 1003 0074 00000000 		.4byte	.Lframe0
 1004 0078 00000000 		.4byte	.LFB8
 1005 007c 08000000 		.4byte	.LFE8-.LFB8
 1006              		.align	2
 1007              	.LEFDE12:
 1008              	.LSFDE14:
 1009 0080 0C000000 		.4byte	.LEFDE14-.LASFDE14
 1010              	.LASFDE14:
 1011 0084 00000000 		.4byte	.Lframe0
 1012 0088 00000000 		.4byte	.LFB9
 1013 008c 04000000 		.4byte	.LFE9-.LFB9
 1014              		.align	2
 1015              	.LEFDE14:
 1016              	.LSFDE16:
 1017 0090 0C000000 		.4byte	.LEFDE16-.LASFDE16
 1018              	.LASFDE16:
 1019 0094 00000000 		.4byte	.Lframe0
 1020 0098 00000000 		.4byte	.LFB15
 1021 009c 1C000000 		.4byte	.LFE15-.LFB15
 1022              		.align	2
 1023              	.LEFDE16:
 1024              	.LSFDE18:
 1025 00a0 18000000 		.4byte	.LEFDE18-.LASFDE18
 1026              	.LASFDE18:
 1027 00a4 00000000 		.4byte	.Lframe0
 1028 00a8 00000000 		.4byte	.LFB13
ARM GAS  /cygdrive/c/Users/Chris/AppData/Local/Temp/ccTr68SV.s 			page 27


 1029 00ac A0000000 		.4byte	.LFE13-.LFB13
 1030 00b0 44       		.byte	0x4
 1031              		.4byte	.LCFI0-.LFB13
 1032 00b1 0E       		.byte	0xe
 1033 00b2 10       		.uleb128 0x10
 1034 00b3 8E       		.byte	0x8e
 1035 00b4 01       		.uleb128 0x1
 1036 00b5 86       		.byte	0x86
 1037 00b6 02       		.uleb128 0x2
 1038 00b7 85       		.byte	0x85
 1039 00b8 03       		.uleb128 0x3
 1040 00b9 84       		.byte	0x84
 1041 00ba 04       		.uleb128 0x4
 1042 00bb 00       		.align	2
 1043              	.LEFDE18:
 1044              	.LSFDE20:
 1045 00bc 1C000000 		.4byte	.LEFDE20-.LASFDE20
 1046              	.LASFDE20:
 1047 00c0 00000000 		.4byte	.Lframe0
 1048 00c4 00000000 		.4byte	.LFB12
 1049 00c8 84000000 		.4byte	.LFE12-.LFB12
 1050 00cc 44       		.byte	0x4
 1051              		.4byte	.LCFI1-.LFB12
 1052 00cd 0E       		.byte	0xe
 1053 00ce 18       		.uleb128 0x18
 1054 00cf 8E       		.byte	0x8e
 1055 00d0 01       		.uleb128 0x1
 1056 00d1 88       		.byte	0x88
 1057 00d2 02       		.uleb128 0x2
 1058 00d3 87       		.byte	0x87
 1059 00d4 03       		.uleb128 0x3
 1060 00d5 86       		.byte	0x86
 1061 00d6 04       		.uleb128 0x4
 1062 00d7 85       		.byte	0x85
 1063 00d8 05       		.uleb128 0x5
 1064 00d9 84       		.byte	0x84
 1065 00da 06       		.uleb128 0x6
 1066 00db 00       		.align	2
 1067              	.LEFDE20:
 1068              	.LSFDE22:
 1069 00dc 18000000 		.4byte	.LEFDE22-.LASFDE22
 1070              	.LASFDE22:
 1071 00e0 00000000 		.4byte	.Lframe0
 1072 00e4 00000000 		.4byte	.LFB11
 1073 00e8 8C030000 		.4byte	.LFE11-.LFB11
 1074 00ec 48       		.byte	0x4
 1075              		.4byte	.LCFI2-.LFB11
 1076 00ed 0E       		.byte	0xe
 1077 00ee 10       		.uleb128 0x10
 1078 00ef 8E       		.byte	0x8e
 1079 00f0 01       		.uleb128 0x1
 1080 00f1 86       		.byte	0x86
 1081 00f2 02       		.uleb128 0x2
 1082 00f3 85       		.byte	0x85
 1083 00f4 03       		.uleb128 0x3
 1084 00f5 84       		.byte	0x84
 1085 00f6 04       		.uleb128 0x4
ARM GAS  /cygdrive/c/Users/Chris/AppData/Local/Temp/ccTr68SV.s 			page 28


 1086 00f7 00       		.align	2
 1087              	.LEFDE22:
 1088              	.LSFDE24:
 1089 00f8 18000000 		.4byte	.LEFDE24-.LASFDE24
 1090              	.LASFDE24:
 1091 00fc 00000000 		.4byte	.Lframe0
 1092 0100 00000000 		.4byte	.LFB10
 1093 0104 14010000 		.4byte	.LFE10-.LFB10
 1094 0108 44       		.byte	0x4
 1095              		.4byte	.LCFI3-.LFB10
 1096 0109 0E       		.byte	0xe
 1097 010a 10       		.uleb128 0x10
 1098 010b 8E       		.byte	0x8e
 1099 010c 01       		.uleb128 0x1
 1100 010d 86       		.byte	0x86
 1101 010e 02       		.uleb128 0x2
 1102 010f 85       		.byte	0x85
 1103 0110 03       		.uleb128 0x3
 1104 0111 84       		.byte	0x84
 1105 0112 04       		.uleb128 0x4
 1106 0113 00       		.align	2
 1107              	.LEFDE24:
 1108              		.text
 1109              	.Letext0: