ARM GAS  /cygdrive/c/Users/Chris/AppData/Local/Temp/cc7xwWEZ.s 			page 1


   1              		.cpu arm7tdmi
   2              		.fpu softvfp
   3              		.eabi_attribute 20, 1
   4              		.eabi_attribute 21, 1
   5              		.eabi_attribute 23, 3
   6              		.eabi_attribute 24, 1
   7              		.eabi_attribute 25, 1
   8              		.eabi_attribute 26, 1
   9              		.eabi_attribute 30, 4
  10              		.eabi_attribute 18, 4
  11              		.file	"main.cpp"
  12              		.section	.debug_abbrev,"",%progbits
  13              	.Ldebug_abbrev0:
  14              		.section	.debug_info,"",%progbits
  15              	.Ldebug_info0:
  16              		.section	.debug_line,"",%progbits
  17              	.Ldebug_line0:
  18 0000 35030000 		.text
  18      0200C701 
  18      00000201 
  18      FB0E0D00 
  18      01010101 
  19              	.Ltext0:
  20              		.section	.text._vfprintf_r,"ax",%progbits
  21              		.align	2
  22              		.global	_vfprintf_r
  23              		.type	_vfprintf_r, %function
  24              	_vfprintf_r:
  25              	.LFB2:
  26              		.file 1 "main.cpp"
   1:main.cpp      **** /******************************************************************************/
   2:main.cpp      **** /* IAP In-System Application Programming Demo                                 */
   3:main.cpp      **** /******************************************************************************/
   4:main.cpp      **** /* This file is part of the uVision/ARM development tools.                    */
   5:main.cpp      **** /* Copyright (c) 2005-2006 Keil Software. All rights reserved.                */
   6:main.cpp      **** /* This software may only be used under the terms of a valid, current,        */
   7:main.cpp      **** /* end user licence from KEIL for a compatible version of KEIL software       */
   8:main.cpp      **** /* development tools. Nothing else gives you the right to use this software.  */
   9:main.cpp      **** /******************************************************************************/
  10:main.cpp      **** 
  11:main.cpp      **** //************************************************
  12:main.cpp      **** //*	Preprocessor Directives
  13:main.cpp      **** //************************************************
  14:main.cpp      **** 
  15:main.cpp      **** #include <LPC23xx.H>                       /* LPC23xx definitions  */
  16:main.cpp      **** #include <stdint.h>
  17:main.cpp      **** #include <stdio.h>                         /* standard I/O .h-file */
  18:main.cpp      **** #include <math.h>
  19:main.cpp      **** #include <stdlib.h>
  20:main.cpp      **** 
  21:main.cpp      **** 
  22:main.cpp      **** #include "fio.h"
  23:main.cpp      **** #include "wiring.h"
  24:main.cpp      **** #include "Serial.h"
  25:main.cpp      **** #include "sbl_iap.h"
  26:main.cpp      **** #include "sbl_config.h"
  27:main.cpp      **** #include "SFBChecksum.h"
ARM GAS  /cygdrive/c/Users/Chris/AppData/Local/Temp/cc7xwWEZ.s 			page 2


  28:main.cpp      **** #include "eeprom.h"
  29:main.cpp      **** #include "sfboard_tests.h"
  30:main.cpp      **** 
  31:main.cpp      **** #define SWITCH_FIOPIN   FIO1PIN
  32:main.cpp      **** #define SWITCH_MASK     (1<<29)
  33:main.cpp      **** 
  34:main.cpp      **** #define kMCUId "lpc2368"
  35:main.cpp      **** //#define kApplicationStartAddr  USER_FLASH_START    // from sbl_config.h
  36:main.cpp      **** #define kApplicationEndAddr    USER_FLASH_END      // from sbl_config.h
  37:main.cpp      **** #define kSPM_PAGE_SIZE         512
  38:main.cpp      **** #define kUSART_RX_BUFFER_SIZE  kSPM_PAGE_SIZE               
  39:main.cpp      **** #define kSoftwareIdentifier     "AVRBOOT"
  40:main.cpp      **** #define kSoftwareVersionHigh   '0'
  41:main.cpp      **** #define kSoftwareVersionLow    '7'
  42:main.cpp      **** 
  43:main.cpp      **** #define kDevType               0x74         //mega645
  44:main.cpp      **** #define kSignatureByte3        0x1E         //mega2560
  45:main.cpp      **** #define kSignatureByte2        0x98         //mega2560
  46:main.cpp      **** #define kSignatureByte1        0x01         //mega2560      
  47:main.cpp      **** 
  48:main.cpp      **** 
  49:main.cpp      **** //************************************************
  50:main.cpp      **** //*	Provide our own (dead) libc library functions  
  51:main.cpp      **** //************************************************
  52:main.cpp      **** extern "C" int _vfprintf_r(struct _reent *, FILE*, const char*, __gnuc_va_list) {return 0;} 
  27              		.loc 1 52 0
  28              		@ Function supports interworking.
  29              		@ args = 0, pretend = 0, frame = 0
  30              		@ frame_needed = 0, uses_anonymous_args = 0
  31              		@ link register save eliminated.
  32              		.loc 1 52 0
  33 0000 0000A0E3 		mov	r0, #0
  34 0004 1EFF2FE1 		bx	lr
  35              	.LFE2:
  36              		.size	_vfprintf_r, .-_vfprintf_r
  37              		.section	.text._malloc_r,"ax",%progbits
  38              		.align	2
  39              		.global	_malloc_r
  40              		.type	_malloc_r, %function
  41              	_malloc_r:
  42              	.LFB3:
  53:main.cpp      **** extern "C" void *_malloc_r(struct _reent *, size_t) {return (void *)0; }
  43              		.loc 1 53 0
  44              		@ Function supports interworking.
  45              		@ args = 0, pretend = 0, frame = 0
  46              		@ frame_needed = 0, uses_anonymous_args = 0
  47              		@ link register save eliminated.
  48              		.loc 1 53 0
  49 0000 0000A0E3 		mov	r0, #0
  50 0004 1EFF2FE1 		bx	lr
  51              	.LFE3:
  52              		.size	_malloc_r, .-_malloc_r
  53              		.section	.text._free_r,"ax",%progbits
  54              		.align	2
  55              		.global	_free_r
  56              		.type	_free_r, %function
  57              	_free_r:
ARM GAS  /cygdrive/c/Users/Chris/AppData/Local/Temp/cc7xwWEZ.s 			page 3


  58              	.LFB4:
  54:main.cpp      **** extern "C" void _free_r(struct _reent *, void*) {}
  59              		.loc 1 54 0
  60              		@ Function supports interworking.
  61              		@ args = 0, pretend = 0, frame = 0
  62              		@ frame_needed = 0, uses_anonymous_args = 0
  63              		@ link register save eliminated.
  64              		.loc 1 54 0
  65 0000 1EFF2FE1 		bx	lr
  66              	.LFE4:
  67              		.size	_free_r, .-_free_r
  68              		.section	.text._realloc_r,"ax",%progbits
  69              		.align	2
  70              		.global	_realloc_r
  71              		.type	_realloc_r, %function
  72              	_realloc_r:
  73              	.LFB5:
  55:main.cpp      **** extern "C" void *_realloc_r(struct _reent *, void*, size_t) {return (void *)0; };
  74              		.loc 1 55 0
  75              		@ Function supports interworking.
  76              		@ args = 0, pretend = 0, frame = 0
  77              		@ frame_needed = 0, uses_anonymous_args = 0
  78              		@ link register save eliminated.
  79              		.loc 1 55 0
  80 0000 0000A0E3 		mov	r0, #0
  81 0004 1EFF2FE1 		bx	lr
  82              	.LFE5:
  83              		.size	_realloc_r, .-_realloc_r
  84              		.section	.text.realloc,"ax",%progbits
  85              		.align	2
  86              		.global	realloc
  87              		.type	realloc, %function
  88              	realloc:
  89              	.LFB6:
  56:main.cpp      **** extern "C" void *realloc(void *, size_t) {return (void *)0; };
  90              		.loc 1 56 0
  91              		@ Function supports interworking.
  92              		@ args = 0, pretend = 0, frame = 0
  93              		@ frame_needed = 0, uses_anonymous_args = 0
  94              		@ link register save eliminated.
  95              		.loc 1 56 0
  96 0000 0000A0E3 		mov	r0, #0
  97 0004 1EFF2FE1 		bx	lr
  98              	.LFE6:
  99              		.size	realloc, .-realloc
 100              		.section	.text._calloc_r,"ax",%progbits
 101              		.align	2
 102              		.global	_calloc_r
 103              		.type	_calloc_r, %function
 104              	_calloc_r:
 105              	.LFB7:
  57:main.cpp      **** extern "C" void *_calloc_r(struct _reent *, size_t, size_t) {return (void *)0; };
 106              		.loc 1 57 0
 107              		@ Function supports interworking.
 108              		@ args = 0, pretend = 0, frame = 0
 109              		@ frame_needed = 0, uses_anonymous_args = 0
 110              		@ link register save eliminated.
ARM GAS  /cygdrive/c/Users/Chris/AppData/Local/Temp/cc7xwWEZ.s 			page 4


 111              		.loc 1 57 0
 112 0000 0000A0E3 		mov	r0, #0
 113 0004 1EFF2FE1 		bx	lr
 114              	.LFE7:
 115              		.size	_calloc_r, .-_calloc_r
 116              		.section	.text.malloc,"ax",%progbits
 117              		.align	2
 118              		.global	malloc
 119              		.type	malloc, %function
 120              	malloc:
 121              	.LFB8:
  58:main.cpp      **** 
  59:main.cpp      **** extern "C" void *malloc(size_t) { return (void *)0; }
 122              		.loc 1 59 0
 123              		@ Function supports interworking.
 124              		@ args = 0, pretend = 0, frame = 0
 125              		@ frame_needed = 0, uses_anonymous_args = 0
 126              		@ link register save eliminated.
 127              		.loc 1 59 0
 128 0000 0000A0E3 		mov	r0, #0
 129 0004 1EFF2FE1 		bx	lr
 130              	.LFE8:
 131              		.size	malloc, .-malloc
 132              		.section	.text.free,"ax",%progbits
 133              		.align	2
 134              		.global	free
 135              		.type	free, %function
 136              	free:
 137              	.LFB9:
  60:main.cpp      **** extern "C" void  free(void*) {  }
 138              		.loc 1 60 0
 139              		@ Function supports interworking.
 140              		@ args = 0, pretend = 0, frame = 0
 141              		@ frame_needed = 0, uses_anonymous_args = 0
 142              		@ link register save eliminated.
 143              		.loc 1 60 0
 144 0000 1EFF2FE1 		bx	lr
 145              	.LFE9:
 146              		.size	free, .-free
 147              		.section	.text._GLOBAL__I__vfprintf_r,"ax",%progbits
 148              		.align	2
 149              		.type	_GLOBAL__I__vfprintf_r, %function
 150              	_GLOBAL__I__vfprintf_r:
 151              	.LFB15:
  61:main.cpp      **** //extern "C" int __aeabi_atexit(void *object,
  62:main.cpp      **** //							void (*destructor)(void *),
  63:main.cpp      **** //							void *dso_handle)
  64:main.cpp      **** //							{
  65:main.cpp      **** //							return 0;
  66:main.cpp      **** //							}
  67:main.cpp      **** 
  68:main.cpp      **** extern void sysInit(void);
  69:main.cpp      **** 
  70:main.cpp      **** /* SFB Bootloader Config Memory in Flash */ 
  71:main.cpp      **** typedef struct {
  72:main.cpp      ****    SFBChecksum AppChecksum;
  73:main.cpp      ****    uint8_t     SpareConfigData[24];
ARM GAS  /cygdrive/c/Users/Chris/AppData/Local/Temp/cc7xwWEZ.s 			page 5


  74:main.cpp      ****    uint8_t     AppData[kSPM_PAGE_SIZE];
  75:main.cpp      **** } SFB_CONFIG_MEM_T;
  76:main.cpp      **** 
  77:main.cpp      **** //************************************************
  78:main.cpp      **** //*	Global Variables 
  79:main.cpp      **** //************************************************
  80:main.cpp      ****  
  81:main.cpp      **** unsigned char  kConfigMemLength = 0x100;
  82:main.cpp      **** unsigned char  *kApplicationStartAddr = (unsigned char*)0x2020;
  83:main.cpp      **** 
  84:main.cpp      **** unsigned char *gAddress=0; // butterfly address 
  85:main.cpp      **** unsigned char *gAddressPgm=(unsigned char*)kApplicationStartAddr;   //address to program
  86:main.cpp      **** unsigned char gBuffer[kUSART_RX_BUFFER_SIZE];           //RAM buffer for incoming data
  87:main.cpp      **** SFB_CONFIG_MEM_T gConfigMem;                            // RAM structure for the config + first pag
  88:main.cpp      **** 
  89:main.cpp      **** unsigned char gDevice;
  90:main.cpp      **** unsigned char gDevType;
  91:main.cpp      **** char gRecvCommand;
  92:main.cpp      **** volatile unsigned int purge;
  93:main.cpp      **** 
  94:main.cpp      **** static SFBChecksum gRunning;
  95:main.cpp      **** const  SFBChecksum *gConfigCs = (SFBChecksum *)(0x2400);        //1 sector behind the user app
  96:main.cpp      **** bool   gSFBootValidChecksum   = false;
  97:main.cpp      **** void (*app_code_entry)(void);
  98:main.cpp      **** 
  99:main.cpp      **** //************************************************
 100:main.cpp      **** //*	Local Function Prototypes
 101:main.cpp      **** //************************************************
 102:main.cpp      **** void ButterflyService(char recvCommand);
 103:main.cpp      **** char BufferLoad(unsigned int size, unsigned char memType);
 104:main.cpp      **** void BlockRead(unsigned int size, unsigned char memType);
 105:main.cpp      **** 
 106:main.cpp      **** uint64_t wait;
 107:main.cpp      **** uint8_t pin;
 108:main.cpp      **** uint8_t x;
 109:main.cpp      **** uint8_t uart;
 110:main.cpp      **** uint8_t index;
 111:main.cpp      **** bool gGotFirstPage = false;
 112:main.cpp      **** 
 113:main.cpp      **** int main (void)  {
 114:main.cpp      **** 
 115:main.cpp      **** 	/* System Init */
 116:main.cpp      **** 	sysInit();
 117:main.cpp      **** 
 118:main.cpp      ****    for (int x=0; x<kPinCount; x++) {
 119:main.cpp      ****       pinMode(x, OUTPUT);
 120:main.cpp      ****    }
 121:main.cpp      **** 
 122:main.cpp      ****    turnOnAllLEDs();
 123:main.cpp      **** 
 124:main.cpp      ****    /* Startup effects, don't be annoying here */
 125:main.cpp      ****    spinLEDs(2);  
 126:main.cpp      **** 
 127:main.cpp      ****    while(1) {
 128:main.cpp      ****    wiggleAllPins();
 129:main.cpp      **** 
 130:main.cpp      ****    toggleOutboundPower();
ARM GAS  /cygdrive/c/Users/Chris/AppData/Local/Temp/cc7xwWEZ.s 			page 6


 131:main.cpp      ****    }
 132:main.cpp      **** 
 133:main.cpp      ****    SerialBegin(0,57600);
 134:main.cpp      **** 
 135:main.cpp      ****    /* Calculate the checksum on the entire user application space */
 136:main.cpp      ****    SFBChecksumInit(gRunning);
 137:main.cpp      ****    SFBChecksumAddBytes(gRunning,
 138:main.cpp      ****                        (const char*)kApplicationStartAddr,
 139:main.cpp      ****                        (kApplicationEndAddr - (int)kApplicationStartAddr));
 140:main.cpp      **** 
 141:main.cpp      ****    /* Compare stored Flash checksum with RAM checksum */
 142:main.cpp      **** 	if (SFBChecksumEqual(*gConfigCs, gRunning))
 143:main.cpp      **** 	{
 144:main.cpp      **** 		/* Got a valid checksum */
 145:main.cpp      **** 		gSFBootValidChecksum = true;
 146:main.cpp      **** 	}
 147:main.cpp      **** 
 148:main.cpp      ****    while(1)
 149:main.cpp      ****    {
 150:main.cpp      ****       
 151:main.cpp      ****       /* Check for an app start */ 
 152:main.cpp      ****       if (gSFBootValidChecksum && (SWITCH_FIOPIN & SWITCH_MASK))
 153:main.cpp      ****       {
 154:main.cpp      ****          /* Start the app!! */
 155:main.cpp      ****          app_code_entry =  (void (*)(void))kApplicationStartAddr;
 156:main.cpp      ****          app_code_entry();
 157:main.cpp      ****       }
 158:main.cpp      **** 
 159:main.cpp      ****       /* Check for an incoming byte to be read from UART 0 */
 160:main.cpp      ****       if (U0LSR & 0x01)
 161:main.cpp      ****       {
 162:main.cpp      ****          /* Get the command character */
 163:main.cpp      ****          gRecvCommand = SerialBusyRead(0);
 164:main.cpp      ****    
 165:main.cpp      ****          /* Handle the butterfly command */
 166:main.cpp      ****          ButterflyService(gRecvCommand);
 167:main.cpp      ****       }
 168:main.cpp      ****    }
 169:main.cpp      **** 
 170:main.cpp      **** }
 171:main.cpp      **** 
 172:main.cpp      **** 
 173:main.cpp      **** //*******************************************************************************
 174:main.cpp      **** // Loosely based on the AVR buttery protocol.
 175:main.cpp      **** // Handles the received commands
 176:main.cpp      **** void ButterflyService(char recvCommand)
 177:main.cpp      **** {
 178:main.cpp      ****    
 179:main.cpp      ****    /* Handle Command Character */
 180:main.cpp      ****    switch(recvCommand)
 181:main.cpp      ****    {
 182:main.cpp      ****    
 183:main.cpp      ****       case 'a':            // Autoincrement?
 184:main.cpp      ****          SerialWrite(0, 'Y');
 185:main.cpp      ****       break;
 186:main.cpp      **** 
 187:main.cpp      ****       case 'A':            // Write address
ARM GAS  /cygdrive/c/Users/Chris/AppData/Local/Temp/cc7xwWEZ.s 			page 7


 188:main.cpp      ****          purge  = ( SerialBusyRead(0) << 8);    // High byte of address
 189:main.cpp      ****          purge |=   SerialBusyRead(0);          // low byte of address
 190:main.cpp      ****          
 191:main.cpp      ****          purge <<= 2;                      // !! convert from word address to byte address
 192:main.cpp      **** 
 193:main.cpp      ****          SerialWrite(0, '\r');
 194:main.cpp      ****       break;
 195:main.cpp      **** 
 196:main.cpp      ****        case 'H':           // Write address
 197:main.cpp      ****        {
 198:main.cpp      ****        
 199:main.cpp      **** 
 200:main.cpp      ****         purge |= ( SerialBusyRead(0) << 16);    // High byte of address
 201:main.cpp      ****         purge |= ( SerialBusyRead(0) << 8);    // 2nd byte of address
 202:main.cpp      ****         purge |=   SerialBusyRead(0);          // low byte of address
 203:main.cpp      ****         
 204:main.cpp      ****  //       if(purge == 0)
 205:main.cpp      ****  //       {
 206:main.cpp      ****          gAddress =  0;
 207:main.cpp      ****          gAddressPgm = (unsigned char*)kApplicationStartAddr;
 208:main.cpp      ****   //      }
 209:main.cpp      **** 
 210:main.cpp      ****          SerialWrite(0, '\r');
 211:main.cpp      ****          }
 212:main.cpp      ****       break;
 213:main.cpp      **** 
 214:main.cpp      ****       case 'b':            // Buffer load support
 215:main.cpp      ****          SerialWrite(0, 'Y');                          // Report buffer load supported
 216:main.cpp      ****          SerialWrite(0, (kUSART_RX_BUFFER_SIZE >>8));    // Report buffer size in bytes
 217:main.cpp      ****          SerialWrite(0, kUSART_RX_BUFFER_SIZE);          // low byte of size
 218:main.cpp      **** 
 219:main.cpp      ****          SerialWrite(0, '\r');
 220:main.cpp      ****       break;
 221:main.cpp      **** 
 222:main.cpp      ****       case 'B':            // Start Buffer load
 223:main.cpp      ****       {
 224:main.cpp      ****          unsigned int bufferSize;
 225:main.cpp      ****          unsigned char memType;
 226:main.cpp      ****          unsigned char res;
 227:main.cpp      **** 
 228:main.cpp      ****          bufferSize = SerialBusyRead(0) << 8;     // Load high byte of buffersize
 229:main.cpp      ****          bufferSize |= SerialBusyRead(0);          // Load low byte of buffersize
 230:main.cpp      ****          memType = SerialBusyRead(0);            // Load memory type ('E' or 'F')
 231:main.cpp      **** 
 232:main.cpp      ****          res = BufferLoad(bufferSize, memType);
 233:main.cpp      **** 
 234:main.cpp      ****          SerialWrite(0,res);    //return the result
 235:main.cpp      ****                      //SerialWrite('\r');
 236:main.cpp      ****       }
 237:main.cpp      ****       break;
 238:main.cpp      **** 
 239:main.cpp      ****       case 'g':            // Block readout
 240:main.cpp      ****       {
 241:main.cpp      ****          unsigned int bufferSize;
 242:main.cpp      ****          unsigned char memType;
 243:main.cpp      **** 
 244:main.cpp      ****          bufferSize = SerialBusyRead(0) << 8;            // Load high byte of buffersize
ARM GAS  /cygdrive/c/Users/Chris/AppData/Local/Temp/cc7xwWEZ.s 			page 8


 245:main.cpp      ****          bufferSize |= SerialBusyRead(0);                 // Load low byte of buffersize
 246:main.cpp      ****          memType = SerialBusyRead(0);            // Load memory type ('E' or 'F')         
 247:main.cpp      **** 
 248:main.cpp      ****         if (bufferSize == 1)
 249:main.cpp      ****         {         
 250:main.cpp      ****             SerialWrite(0,'\r');
 251:main.cpp      ****         }
 252:main.cpp      ****         else
 253:main.cpp      ****         {
 254:main.cpp      ****             BlockRead(bufferSize, memType);
 255:main.cpp      ****         }
 256:main.cpp      **** 
 257:main.cpp      ****         break;
 258:main.cpp      ****       }
 259:main.cpp      ****       case 'e':            // Chip Erase 
 260:main.cpp      ****          erase_user_flash();
 261:main.cpp      ****          //erase(kApplicationStartAddr,kApplicationEndAddr);
 262:main.cpp      **** 
 263:main.cpp      ****          SerialWrite(0, '\r');
 264:main.cpp      ****       break;
 265:main.cpp      **** 
 266:main.cpp      ****       case 'E':            // Exit Upgrade
 267:main.cpp      ****       {
 268:main.cpp      **** 
 269:main.cpp      ****          /* Calculate the checksum */
 270:main.cpp      ****          SFBChecksumInit(gRunning);
 271:main.cpp      ****          SFBChecksumAddBytes(gRunning,
 272:main.cpp      ****                             (const char*)kApplicationStartAddr,
 273:main.cpp      ****                             (kApplicationEndAddr - (int)kApplicationStartAddr));
 274:main.cpp      ****          
 275:main.cpp      ****          /* Store the Checksum to RAM */
 276:main.cpp      ****          gConfigMem.AppChecksum[0] = gRunning[0];
 277:main.cpp      ****          gConfigMem.AppChecksum[1] = gRunning[1];
 278:main.cpp      **** 
 279:main.cpp      ****          /* Store the Configuration to Flash */
 280:main.cpp      ****          write_flash((unsigned int*)(kApplicationStartAddr - kConfigMemLength),
 281:main.cpp      ****                      (unsigned char*)&gConfigMem,
 282:main.cpp      ****                      kConfigMemLength+kSPM_PAGE_SIZE);
 283:main.cpp      **** 
 284:main.cpp      ****          SerialWrite(0, '\r');
 285:main.cpp      ****          SerialWrite(0, '\r');
 286:main.cpp      ****           
 287:main.cpp      ****          app_code_entry =  (void (*)(void))kApplicationStartAddr;
 288:main.cpp      ****          app_code_entry();
 289:main.cpp      **** 
 290:main.cpp      **** 
 291:main.cpp      ****       }
 292:main.cpp      ****       break;
 293:main.cpp      **** 
 294:main.cpp      ****       case 'P':            // Enter programming mode
 295:main.cpp      ****          SerialWrite(0, '\r');
 296:main.cpp      ****       break;
 297:main.cpp      **** 
 298:main.cpp      ****       case 'F':            // fuse
 299:main.cpp      ****          //execute_user_code();
 300:main.cpp      ****          SerialWrite(0, '\r');
 301:main.cpp      ****       break;
ARM GAS  /cygdrive/c/Users/Chris/AppData/Local/Temp/cc7xwWEZ.s 			page 9


 302:main.cpp      **** 
 303:main.cpp      ****       case 'r':            // fuse
 304:main.cpp      ****          SerialWrite(0, '\r');
 305:main.cpp      ****       break;
 306:main.cpp      **** 
 307:main.cpp      ****       case 'N':            // fuse
 308:main.cpp      ****          SerialWrite(0, '\r');
 309:main.cpp      ****       break;
 310:main.cpp      **** 
 311:main.cpp      ****       case 'Q':            // fuse
 312:main.cpp      ****          SerialWrite(0, '\r');
 313:main.cpp      ****       break;
 314:main.cpp      **** 
 315:main.cpp      ****       case 'L':            // Leave programming mode
 316:main.cpp      ****          SerialWrite(0, '\r');
 317:main.cpp      ****       break;
 318:main.cpp      **** 
 319:main.cpp      ****       case 'p':            // return programmer type
 320:main.cpp      ****          SerialWrite(0, 'S');
 321:main.cpp      ****       break;
 322:main.cpp      **** 
 323:main.cpp      ****       case 't':           // return device type
 324:main.cpp      ****          SerialWrite(0, kDevType);
 325:main.cpp      ****          SerialWrite(0, 0);
 326:main.cpp      ****       break;
 327:main.cpp      **** 
 328:main.cpp      ****       case 'T':           // Set device
 329:main.cpp      ****          gDevice = SerialBusyRead(0);
 330:main.cpp      ****          SerialWrite(0, '\r');
 331:main.cpp      ****       break;
 332:main.cpp      **** 
 333:main.cpp      ****       case 'S':            //return software identifier
 334:main.cpp      ****          {
 335:main.cpp      ****          //volatile long xx;
 336:main.cpp      **** 
 337:main.cpp      ****          //unsigned int res=0;
 338:main.cpp      **** 
 339:main.cpp      ****          erase_user_flash();
 340:main.cpp      **** 
 341:main.cpp      ****           SerialStr(0, kSoftwareIdentifier);
 342:main.cpp      ****           
 343:main.cpp      ****          
 344:main.cpp      ****             //for(xx=0;xx<20000000;xx++) {;}         
 345:main.cpp      ****          //for(res=0; res<512; res++)
 346:main.cpp      ****          //{
 347:main.cpp      ****         // gBuffer[res] = res;
 348:main.cpp      ****          
 349:main.cpp      ****         // }
 350:main.cpp      ****         // write_flash((unsigned int*)gAddress, gBuffer, 512);
 351:main.cpp      ****          }
 352:main.cpp      ****       break;
 353:main.cpp      **** 
 354:main.cpp      ****       case 'V':            //return software version
 355:main.cpp      ****           SerialWrite(0, kSoftwareVersionHigh);
 356:main.cpp      ****           SerialWrite(0, kSoftwareVersionLow);
 357:main.cpp      ****       break;
 358:main.cpp      **** 
ARM GAS  /cygdrive/c/Users/Chris/AppData/Local/Temp/cc7xwWEZ.s 			page 10


 359:main.cpp      ****       case 's':            // Return Signature byte
 360:main.cpp      ****          SerialWrite(0, kSignatureByte1);
 361:main.cpp      ****          SerialWrite(0, kSignatureByte2);
 362:main.cpp      ****          SerialWrite(0, kSignatureByte3);
 363:main.cpp      ****       break;
 364:main.cpp      **** 
 365:main.cpp      ****       default:
 366:main.cpp      ****          SerialStr(0, "?");
 367:main.cpp      ****       break;
 368:main.cpp      ****    }
 369:main.cpp      **** 
 370:main.cpp      **** }
 371:main.cpp      **** 
 372:main.cpp      **** //*******************************************************************************
 373:main.cpp      **** // Send a block of program memory via serial
 374:main.cpp      **** void BlockRead(unsigned int size, unsigned char memType)
 375:main.cpp      **** {
 376:main.cpp      ****     unsigned int cnt=0;
 377:main.cpp      **** 
 378:main.cpp      **** //    if (memType == 'F')
 379:main.cpp      **** //    {
 380:main.cpp      **** //volatile unsigned int sz = size;
 381:main.cpp      **** unsigned int byteCntPgm=0;
 382:main.cpp      **** unsigned int byteCntDumb=0;
 383:main.cpp      **** 
 384:main.cpp      **** if (gAddressPgm >= (unsigned char*)0x7800)
 385:main.cpp      **** {
 386:main.cpp      **** byteCntPgm=0;
 387:main.cpp      **** }
 388:main.cpp      **** 
 389:main.cpp      ****         for(cnt = 0; cnt< size; cnt++)
 390:main.cpp      ****         {
 391:main.cpp      ****            unsigned char *b = (unsigned char*)gAddressPgm;
 392:main.cpp      ****            unsigned char byte;
 393:main.cpp      **** 
 394:main.cpp      ****            /* test for in app range */
 395:main.cpp      ****           if (gAddress >= (unsigned char*)(kApplicationStartAddr))
 396:main.cpp      ****            { 
 397:main.cpp      ****             byte = b[cnt];
 398:main.cpp      ****             byteCntPgm++;
 399:main.cpp      ****            }
 400:main.cpp      ****            else
 401:main.cpp      ****            {
 402:main.cpp      ****             /* Send dummy data */
 403:main.cpp      ****             byte = 0xFF;
 404:main.cpp      ****             byteCntDumb++;
 405:main.cpp      ****            }
 406:main.cpp      **** 
 407:main.cpp      ****            SerialWrite(0, byte);
 408:main.cpp      ****         }
 409:main.cpp      **** //    }
 410:main.cpp      **** 
 411:main.cpp      ****     gAddress+= byteCntDumb;
 412:main.cpp      ****     gAddressPgm+= byteCntPgm;
 413:main.cpp      **** }
 414:main.cpp      **** 
 415:main.cpp      **** //*******************************************************************************
ARM GAS  /cygdrive/c/Users/Chris/AppData/Local/Temp/cc7xwWEZ.s 			page 11


 416:main.cpp      **** // Load the RAM buffer with bytes from serial
 417:main.cpp      **** // !!!need to fix
 418:main.cpp      **** char BufferLoad(unsigned int size, unsigned char memType)
 419:main.cpp      **** {
 420:main.cpp      ****    unsigned int cnt;
 421:main.cpp      **** 
 422:main.cpp      **** /* Fill up an entire page */
 423:main.cpp      ****     for (cnt=0; cnt < kSPM_PAGE_SIZE; cnt++) 
 424:main.cpp      ****     {
 425:main.cpp      ****         if (cnt<size)
 426:main.cpp      ****         {    
 427:main.cpp      ****             gBuffer[cnt] = SerialBusyRead(0);
 428:main.cpp      ****         }
 429:main.cpp      ****         else
 430:main.cpp      ****         {     
 431:main.cpp      ****            gBuffer[cnt]=0xFF;
 432:main.cpp      ****         }
 433:main.cpp      ****     }
 434:main.cpp      **** 
 435:main.cpp      **** /* Since AVRdude sends us blank data, 
 436:main.cpp      ****    check to see if we've hit the APP start address */
 437:main.cpp      ****    if (gAddress >= (unsigned char*)(kApplicationStartAddr))
 438:main.cpp      ****    {
 439:main.cpp      ****    
 440:main.cpp      ****     //  if (gGotFirstPage) {
 441:main.cpp      ****          /* Normally Burn the data */
 442:main.cpp      ****          write_flash((unsigned int*)(gAddressPgm), gBuffer, kSPM_PAGE_SIZE);
 443:main.cpp      ****    
 444:main.cpp      ****     //  } else {
 445:main.cpp      ****          /* Copy the data into RAM */
 446:main.cpp      ****      //    for(int x=0; x< kSPM_PAGE_SIZE; x++) {
 447:main.cpp      ****      //       gConfigMem.AppData[x] = gBuffer[x];
 448:main.cpp      ****       //   }
 449:main.cpp      ****    
 450:main.cpp      ****       gAddressPgm+=size;
 451:main.cpp      ****    
 452:main.cpp      ****       /* Latch this on */
 453:main.cpp      ****       //gGotFirstPage = true;
 454:main.cpp      ****    }
 455:main.cpp      **** 
 456:main.cpp      ****    gAddress+=size;
 457:main.cpp      ****    
 458:main.cpp      ****    
 459:main.cpp      ****    return '\r';
 460:main.cpp      **** }...
 152              		.loc 1 460 0
 153              		@ Function supports interworking.
 154              		@ args = 0, pretend = 0, frame = 0
 155              		@ frame_needed = 0, uses_anonymous_args = 0
 156              		@ link register save eliminated.
 157              	.LBB4:
 158              	.LBB5:
 159              		.loc 1 85 0
 160 0000 0C309FE5 		ldr	r3, .L19
 161 0004 002093E5 		ldr	r2, [r3, #0]
 162 0008 08309FE5 		ldr	r3, .L19+4
 163 000c 002083E5 		str	r2, [r3, #0]
ARM GAS  /cygdrive/c/Users/Chris/AppData/Local/Temp/cc7xwWEZ.s 			page 12


 164              	.LBE5:
 165              	.LBE4:
 166              		.loc 1 460 0
 167 0010 1EFF2FE1 		bx	lr
 168              	.L20:
 169              		.align	2
 170              	.L19:
 171 0014 00000000 		.word	.LANCHOR1
 172 0018 00000000 		.word	.LANCHOR0
 173              	.LFE15:
 174              		.size	_GLOBAL__I__vfprintf_r, .-_GLOBAL__I__vfprintf_r
 175              		.section	.init_array,"aw",%init_array
 176              		.align	2
 177 0000 00000000 		.word	_GLOBAL__I__vfprintf_r(target1)
 178              		.section	.text._Z10BufferLoadjh,"ax",%progbits
 179              		.align	2
 180              		.global	_Z10BufferLoadjh
 181              		.type	_Z10BufferLoadjh, %function
 182              	_Z10BufferLoadjh:
 183              	.LFB13:
 184              		.loc 1 418 0
 185              		@ Function supports interworking.
 186              		@ args = 0, pretend = 0, frame = 0
 187              		@ frame_needed = 0, uses_anonymous_args = 0
 188              	.LVL0:
 189 0000 70402DE9 		stmfd	sp!, {r4, r5, r6, lr}
 190              	.LCFI0:
 191              		.loc 1 418 0
 192 0004 0060A0E1 		mov	r6, r0
 193 0008 0050A0E3 		mov	r5, #0
 194              	.LVL1:
 195              	.L24:
 196              	.LBB6:
 197              		.loc 1 425 0
 198 000c 060055E1 		cmp	r5, r6
 199 0010 74409FE5 		ldr	r4, .L27
 200              		.loc 1 431 0
 201 0014 0030E023 		mvncs	r3, #0
 202 0018 0530C427 		strcsb	r3, [r4, r5]
 203              		.loc 1 425 0
 204 001c 0200002A 		bcs	.L23
 205              		.loc 1 427 0
 206 0020 0000A0E3 		mov	r0, #0
 207 0024 FEFFFFEB 		bl	_Z14SerialBusyReadh
 208              	.LVL2:
 209 0028 0500C4E7 		strb	r0, [r4, r5]
 210              	.LVL3:
 211              	.L23:
 212              		.loc 1 423 0
 213 002c 015085E2 		add	r5, r5, #1
 214 0030 020C55E3 		cmp	r5, #512
 215 0034 F4FFFF1A 		bne	.L24
 216              		.loc 1 437 0
 217 0038 50309FE5 		ldr	r3, .L27+4
 218 003c 002093E5 		ldr	r2, [r3, #0]
 219 0040 4C309FE5 		ldr	r3, .L27+8
 220 0044 003093E5 		ldr	r3, [r3, #0]
ARM GAS  /cygdrive/c/Users/Chris/AppData/Local/Temp/cc7xwWEZ.s 			page 13


 221 0048 030052E1 		cmp	r2, r3
 222 004c 0700003A 		bcc	.L25
 223              		.loc 1 442 0
 224 0050 40409FE5 		ldr	r4, .L27+12
 225 0054 0520A0E1 		mov	r2, r5
 226 0058 000094E5 		ldr	r0, [r4, #0]
 227 005c 28109FE5 		ldr	r1, .L27
 228              	.LVL4:
 229 0060 FEFFFFEB 		bl	_Z11write_flashPjPhj
 230              		.loc 1 450 0
 231 0064 003094E5 		ldr	r3, [r4, #0]
 232 0068 063083E0 		add	r3, r3, r6
 233 006c 003084E5 		str	r3, [r4, #0]
 234              	.LVL5:
 235              	.L25:
 236              		.loc 1 456 0
 237 0070 18209FE5 		ldr	r2, .L27+4
 238 0074 003092E5 		ldr	r3, [r2, #0]
 239 0078 063083E0 		add	r3, r3, r6
 240 007c 003082E5 		str	r3, [r2, #0]
 241              	.LBE6:
 242              		.loc 1 460 0
 243 0080 0D00A0E3 		mov	r0, #13
 244 0084 7040BDE8 		ldmfd	sp!, {r4, r5, r6, lr}
 245 0088 1EFF2FE1 		bx	lr
 246              	.L28:
 247              		.align	2
 248              	.L27:
 249 008c 00000000 		.word	.LANCHOR2
 250 0090 00000000 		.word	.LANCHOR3
 251 0094 00000000 		.word	.LANCHOR1
 252 0098 00000000 		.word	.LANCHOR0
 253              	.LFE13:
 254              		.size	_Z10BufferLoadjh, .-_Z10BufferLoadjh
 255              		.section	.text._Z9BlockReadjh,"ax",%progbits
 256              		.align	2
 257              		.global	_Z9BlockReadjh
 258              		.type	_Z9BlockReadjh, %function
 259              	_Z9BlockReadjh:
 260              	.LFB12:
 261              		.loc 1 374 0
 262              		@ Function supports interworking.
 263              		@ args = 0, pretend = 0, frame = 0
 264              		@ frame_needed = 0, uses_anonymous_args = 0
 265              	.LVL6:
 266 0000 F0412DE9 		stmfd	sp!, {r4, r5, r6, r7, r8, lr}
 267              	.LCFI1:
 268              		.loc 1 374 0
 269 0004 0040A0E3 		mov	r4, #0
 270              	.LVL7:
 271 0008 0070A0E1 		mov	r7, r0
 272 000c 0460A0E1 		mov	r6, r4
 273              	.LVL8:
 274 0010 0450A0E1 		mov	r5, r4
 275              	.LVL9:
 276 0014 0B0000EA 		b	.L30
 277              	.LVL10:
ARM GAS  /cygdrive/c/Users/Chris/AppData/Local/Temp/cc7xwWEZ.s 			page 14


 278              	.L33:
 279              	.LBB7:
 280              	.LBB8:
 281              		.loc 1 395 0
 282 0018 58209FE5 		ldr	r2, .L35
 283 001c 003091E5 		ldr	r3, [r1, #0]
 284 0020 002092E5 		ldr	r2, [r2, #0]
 285              		.loc 1 391 0
 286 0024 001090E5 		ldr	r1, [r0, #0]
 287              	.LVL11:
 288              		.loc 1 395 0
 289 0028 020053E1 		cmp	r3, r2
 290              		.loc 1 397 0
 291 002c 0410D127 		ldrcsb	r1, [r1, r4]	@ zero_extendqisi2
 292              	.LVL12:
 293              		.loc 1 404 0
 294 0030 FF10A033 		movcc	r1, #255
 295              	.LVL13:
 296              		.loc 1 407 0
 297 0034 0000A0E3 		mov	r0, #0
 298              		.loc 1 398 0
 299 0038 01608622 		addcs	r6, r6, #1
 300              		.loc 1 404 0
 301 003c 01508532 		addcc	r5, r5, #1
 302              		.loc 1 407 0
 303 0040 FEFFFFEB 		bl	_Z11SerialWritehi
 304              	.LVL14:
 305              	.LBE8:
 306              		.loc 1 389 0
 307 0044 014084E2 		add	r4, r4, #1
 308              	.LVL15:
 309              	.L30:
 310 0048 070054E1 		cmp	r4, r7
 311 004c 28009FE5 		ldr	r0, .L35+4
 312 0050 28109FE5 		ldr	r1, .L35+8
 313              	.LVL16:
 314 0054 EFFFFF3A 		bcc	.L33
 315              		.loc 1 411 0
 316 0058 003091E5 		ldr	r3, [r1, #0]
 317              		.loc 1 412 0
 318 005c 002090E5 		ldr	r2, [r0, #0]
 319              		.loc 1 411 0
 320 0060 053083E0 		add	r3, r3, r5
 321              		.loc 1 412 0
 322 0064 062082E0 		add	r2, r2, r6
 323              		.loc 1 411 0
 324 0068 003081E5 		str	r3, [r1, #0]
 325              		.loc 1 412 0
 326 006c 002080E5 		str	r2, [r0, #0]
 327              	.LBE7:
 328              		.loc 1 413 0
 329 0070 F041BDE8 		ldmfd	sp!, {r4, r5, r6, r7, r8, lr}
 330 0074 1EFF2FE1 		bx	lr
 331              	.L36:
 332              		.align	2
 333              	.L35:
 334 0078 00000000 		.word	.LANCHOR1
ARM GAS  /cygdrive/c/Users/Chris/AppData/Local/Temp/cc7xwWEZ.s 			page 15


 335 007c 00000000 		.word	.LANCHOR0
 336 0080 00000000 		.word	.LANCHOR3
 337              	.LFE12:
 338              		.size	_Z9BlockReadjh, .-_Z9BlockReadjh
 339              		.section	.text._Z16ButterflyServicec,"ax",%progbits
 340              		.align	2
 341              		.global	_Z16ButterflyServicec
 342              		.type	_Z16ButterflyServicec, %function
 343              	_Z16ButterflyServicec:
 344              	.LFB11:
 345              		.loc 1 176 0
 346              		@ Function supports interworking.
 347              		@ args = 0, pretend = 0, frame = 0
 348              		@ frame_needed = 0, uses_anonymous_args = 0
 349              	.LVL17:
 350              	.LBB9:
 351              		.loc 1 180 0
 352 0000 410040E2 		sub	r0, r0, #65
 353              	.LVL18:
 354              	.LBE9:
 355              		.loc 1 176 0
 356 0004 F0412DE9 		stmfd	sp!, {r4, r5, r6, r7, r8, lr}
 357              	.LCFI2:
 358              	.LBB13:
 359              		.loc 1 180 0
 360 0008 330050E3 		cmp	r0, #51
 361 000c 00F19F97 		ldrls	pc, [pc, r0, asl #2]
 362 0010 C90000EA 		b	.L38
 363              	.L59:
 364 0014 EC000000 		.word	.L39
 365 0018 BC010000 		.word	.L40
 366 001c 3C030000 		.word	.L38
 367 0020 3C030000 		.word	.L38
 368 0024 30020000 		.word	.L41
 369 0028 E8020000 		.word	.L66
 370 002c 3C030000 		.word	.L38
 371 0030 2C010000 		.word	.L43
 372 0034 3C030000 		.word	.L38
 373 0038 3C030000 		.word	.L38
 374 003c 3C030000 		.word	.L38
 375 0040 E8020000 		.word	.L66
 376 0044 3C030000 		.word	.L38
 377 0048 E8020000 		.word	.L66
 378 004c 3C030000 		.word	.L38
 379 0050 E8020000 		.word	.L66
 380 0054 E8020000 		.word	.L66
 381 0058 3C030000 		.word	.L38
 382 005c F0020000 		.word	.L48
 383 0060 D8020000 		.word	.L49
 384 0064 3C030000 		.word	.L38
 385 0068 00030000 		.word	.L50
 386 006c 3C030000 		.word	.L38
 387 0070 3C030000 		.word	.L38
 388 0074 3C030000 		.word	.L38
 389 0078 3C030000 		.word	.L38
 390 007c 3C030000 		.word	.L38
 391 0080 3C030000 		.word	.L38
ARM GAS  /cygdrive/c/Users/Chris/AppData/Local/Temp/cc7xwWEZ.s 			page 16


 392 0084 3C030000 		.word	.L38
 393 0088 3C030000 		.word	.L38
 394 008c 3C030000 		.word	.L38
 395 0090 3C030000 		.word	.L38
 396 0094 E4000000 		.word	.L51
 397 0098 94010000 		.word	.L52
 398 009c 3C030000 		.word	.L38
 399 00a0 3C030000 		.word	.L38
 400 00a4 28020000 		.word	.L53
 401 00a8 3C030000 		.word	.L38
 402 00ac F0010000 		.word	.L54
 403 00b0 3C030000 		.word	.L38
 404 00b4 3C030000 		.word	.L38
 405 00b8 3C030000 		.word	.L38
 406 00bc 3C030000 		.word	.L38
 407 00c0 3C030000 		.word	.L38
 408 00c4 3C030000 		.word	.L38
 409 00c8 3C030000 		.word	.L38
 410 00cc 3C030000 		.word	.L38
 411 00d0 B8020000 		.word	.L55
 412 00d4 3C030000 		.word	.L38
 413 00d8 E8020000 		.word	.L66
 414 00dc 14030000 		.word	.L57
 415 00e0 C0020000 		.word	.L58
 416              	.L51:
 417              		.loc 1 184 0
 418 00e4 5910A0E3 		mov	r1, #89
 419 00e8 900000EA 		b	.L63
 420              	.L39:
 421              		.loc 1 188 0
 422 00ec 0000A0E3 		mov	r0, #0
 423 00f0 FEFFFFEB 		bl	_Z14SerialBusyReadh
 424 00f4 54429FE5 		ldr	r4, .L67
 425 00f8 0004A0E1 		mov	r0, r0, asl #8
 426 00fc 000084E5 		str	r0, [r4, #0]
 427              		.loc 1 189 0
 428 0100 0000A0E3 		mov	r0, #0
 429 0104 005094E5 		ldr	r5, [r4, #0]
 430 0108 FEFFFFEB 		bl	_Z14SerialBusyReadh
 431 010c 050080E1 		orr	r0, r0, r5
 432 0110 000084E5 		str	r0, [r4, #0]
 433              		.loc 1 191 0
 434 0114 003094E5 		ldr	r3, [r4, #0]
 435 0118 0331A0E1 		mov	r3, r3, asl #2
 436              		.loc 1 193 0
 437 011c 0D10A0E3 		mov	r1, #13
 438 0120 0000A0E3 		mov	r0, #0
 439              		.loc 1 191 0
 440 0124 003084E5 		str	r3, [r4, #0]
 441 0128 810000EA 		b	.L65
 442              	.L43:
 443              		.loc 1 200 0
 444 012c 1C529FE5 		ldr	r5, .L67
 445 0130 0000A0E3 		mov	r0, #0
 446 0134 004095E5 		ldr	r4, [r5, #0]
 447 0138 FEFFFFEB 		bl	_Z14SerialBusyReadh
 448 013c 004884E1 		orr	r4, r4, r0, asl #16
ARM GAS  /cygdrive/c/Users/Chris/AppData/Local/Temp/cc7xwWEZ.s 			page 17


 449 0140 004085E5 		str	r4, [r5, #0]
 450              		.loc 1 201 0
 451 0144 0000A0E3 		mov	r0, #0
 452 0148 004095E5 		ldr	r4, [r5, #0]
 453 014c FEFFFFEB 		bl	_Z14SerialBusyReadh
 454 0150 004484E1 		orr	r4, r4, r0, asl #8
 455 0154 004085E5 		str	r4, [r5, #0]
 456              		.loc 1 202 0
 457 0158 0000A0E3 		mov	r0, #0
 458 015c 004095E5 		ldr	r4, [r5, #0]
 459 0160 FEFFFFEB 		bl	_Z14SerialBusyReadh
 460              		.loc 1 207 0
 461 0164 E8319FE5 		ldr	r3, .L67+4
 462 0168 00C093E5 		ldr	ip, [r3, #0]
 463              		.loc 1 202 0
 464 016c 043080E1 		orr	r3, r0, r4
 465 0170 003085E5 		str	r3, [r5, #0]
 466              		.loc 1 207 0
 467 0174 DC319FE5 		ldr	r3, .L67+8
 468 0178 00C083E5 		str	ip, [r3, #0]
 469              		.loc 1 206 0
 470 017c D8319FE5 		ldr	r3, .L67+12
 471 0180 0020A0E3 		mov	r2, #0
 472              		.loc 1 210 0
 473 0184 0200A0E1 		mov	r0, r2
 474 0188 0D10A0E3 		mov	r1, #13
 475              		.loc 1 206 0
 476 018c 002083E5 		str	r2, [r3, #0]
 477 0190 670000EA 		b	.L65
 478              	.L52:
 479              		.loc 1 215 0
 480 0194 5910A0E3 		mov	r1, #89
 481 0198 0000A0E3 		mov	r0, #0
 482 019c FEFFFFEB 		bl	_Z11SerialWritehi
 483              		.loc 1 216 0
 484 01a0 0210A0E3 		mov	r1, #2
 485 01a4 0000A0E3 		mov	r0, #0
 486 01a8 FEFFFFEB 		bl	_Z11SerialWritehi
 487              		.loc 1 217 0
 488 01ac 021CA0E3 		mov	r1, #512
 489 01b0 0000A0E3 		mov	r0, #0
 490 01b4 FEFFFFEB 		bl	_Z11SerialWritehi
 491 01b8 4A0000EA 		b	.L66
 492              	.L40:
 493              	.LBB11:
 494              		.loc 1 228 0
 495 01bc 0000A0E3 		mov	r0, #0
 496 01c0 FEFFFFEB 		bl	_Z14SerialBusyReadh
 497 01c4 0054A0E1 		mov	r5, r0, asl #8
 498              	.LVL19:
 499              		.loc 1 229 0
 500 01c8 0000A0E3 		mov	r0, #0
 501 01cc FEFFFFEB 		bl	_Z14SerialBusyReadh
 502 01d0 0040A0E1 		mov	r4, r0
 503              		.loc 1 230 0
 504 01d4 0000A0E3 		mov	r0, #0
 505 01d8 FEFFFFEB 		bl	_Z14SerialBusyReadh
ARM GAS  /cygdrive/c/Users/Chris/AppData/Local/Temp/cc7xwWEZ.s 			page 18


 506              		.loc 1 232 0
 507 01dc FF1000E2 		and	r1, r0, #255
 508 01e0 040085E1 		orr	r0, r5, r4
 509 01e4 FEFFFFEB 		bl	_Z10BufferLoadjh
 510 01e8 0010A0E1 		mov	r1, r0
 511 01ec 4F0000EA 		b	.L63
 512              	.LVL20:
 513              	.L54:
 514              	.LBE11:
 515              	.LBB10:
 516              		.loc 1 244 0
 517 01f0 0000A0E3 		mov	r0, #0
 518 01f4 FEFFFFEB 		bl	_Z14SerialBusyReadh
 519 01f8 0044A0E1 		mov	r4, r0, asl #8
 520              	.LVL21:
 521              		.loc 1 245 0
 522 01fc 0000A0E3 		mov	r0, #0
 523 0200 FEFFFFEB 		bl	_Z14SerialBusyReadh
 524 0204 004084E1 		orr	r4, r4, r0
 525              	.LVL22:
 526              		.loc 1 246 0
 527 0208 0000A0E3 		mov	r0, #0
 528 020c FEFFFFEB 		bl	_Z14SerialBusyReadh
 529              		.loc 1 248 0
 530 0210 010054E3 		cmp	r4, #1
 531 0214 3300000A 		beq	.L66
 532              	.L61:
 533              		.loc 1 254 0
 534 0218 FF1000E2 		and	r1, r0, #255
 535 021c 0400A0E1 		mov	r0, r4
 536              	.LBE10:
 537              	.LBE13:
 538              		.loc 1 370 0
 539 0220 F041BDE8 		ldmfd	sp!, {r4, r5, r6, r7, r8, lr}
 540              	.LBB14:
 541              	.LBB12:
 542              		.loc 1 254 0
 543 0224 FEFFFFEA 		b	_Z9BlockReadjh
 544              	.LVL23:
 545              	.L53:
 546              	.LBE12:
 547              		.loc 1 260 0
 548 0228 FEFFFFEB 		bl	_Z16erase_user_flashv
 549 022c 2D0000EA 		b	.L66
 550              	.L41:
 551              		.loc 1 270 0
 552 0230 28419FE5 		ldr	r4, .L67+16
 553 0234 0400A0E1 		mov	r0, r4
 554 0238 FEFFFFEB 		bl	_Z15SFBChecksumInitPm
 555              		.loc 1 273 0
 556 023c 10719FE5 		ldr	r7, .L67+4
 557 0240 1C319FE5 		ldr	r3, .L67+20
 558 0244 001097E5 		ldr	r1, [r7, #0]
 559 0248 682093E5 		ldr	r2, [r3, #104]
 560 024c 0400A0E1 		mov	r0, r4
 561 0250 022061E0 		rsb	r2, r1, r2
 562 0254 FEFFFFEB 		bl	_Z19SFBChecksumAddBytesPmPKci
ARM GAS  /cygdrive/c/Users/Chris/AppData/Local/Temp/cc7xwWEZ.s 			page 19


 563              		.loc 1 282 0
 564 0258 08319FE5 		ldr	r3, .L67+24
 565              		.loc 1 276 0
 566 025c 00C094E5 		ldr	ip, [r4, #0]
 567              		.loc 1 282 0
 568 0260 0050D3E5 		ldrb	r5, [r3, #0]	@ zero_extendqisi2
 569 0264 000097E5 		ldr	r0, [r7, #0]
 570              		.loc 1 276 0
 571 0268 FC309FE5 		ldr	r3, .L67+28
 572              		.loc 1 277 0
 573 026c 046094E5 		ldr	r6, [r4, #4]
 574              		.loc 1 282 0
 575 0270 022C85E2 		add	r2, r5, #512
 576 0274 0310A0E1 		mov	r1, r3
 577              		.loc 1 276 0
 578 0278 00C083E5 		str	ip, [r3, #0]
 579              		.loc 1 277 0
 580 027c 046083E5 		str	r6, [r3, #4]
 581              		.loc 1 282 0
 582 0280 000065E0 		rsb	r0, r5, r0
 583 0284 FEFFFFEB 		bl	_Z11write_flashPjPhj
 584              		.loc 1 284 0
 585 0288 0D10A0E3 		mov	r1, #13
 586 028c 0000A0E3 		mov	r0, #0
 587 0290 FEFFFFEB 		bl	_Z11SerialWritehi
 588              		.loc 1 285 0
 589 0294 0D10A0E3 		mov	r1, #13
 590 0298 0000A0E3 		mov	r0, #0
 591 029c FEFFFFEB 		bl	_Z11SerialWritehi
 592              		.loc 1 287 0
 593 02a0 002097E5 		ldr	r2, [r7, #0]
 594 02a4 C4309FE5 		ldr	r3, .L67+32
 595 02a8 002083E5 		str	r2, [r3, #0]
 596              		.loc 1 288 0
 597 02ac 0FE0A0E1 		mov	lr, pc
 598 02b0 12FF2FE1 		bx	r2
 599 02b4 230000EA 		b	.L62
 600              	.L55:
 601              		.loc 1 320 0
 602 02b8 5310A0E3 		mov	r1, #83
 603 02bc 1B0000EA 		b	.L63
 604              	.L58:
 605              		.loc 1 324 0
 606 02c0 7410A0E3 		mov	r1, #116
 607 02c4 0000A0E3 		mov	r0, #0
 608 02c8 FEFFFFEB 		bl	_Z11SerialWritehi
 609              		.loc 1 325 0
 610 02cc 0000A0E3 		mov	r0, #0
 611 02d0 0010A0E1 		mov	r1, r0
 612 02d4 160000EA 		b	.L65
 613              	.L49:
 614              		.loc 1 329 0
 615 02d8 0000A0E3 		mov	r0, #0
 616 02dc FEFFFFEB 		bl	_Z14SerialBusyReadh
 617 02e0 8C309FE5 		ldr	r3, .L67+36
 618 02e4 0000C3E5 		strb	r0, [r3, #0]
 619              	.LVL24:
ARM GAS  /cygdrive/c/Users/Chris/AppData/Local/Temp/cc7xwWEZ.s 			page 20


 620              	.L66:
 621              		.loc 1 330 0
 622 02e8 0D10A0E3 		mov	r1, #13
 623 02ec 0F0000EA 		b	.L63
 624              	.LVL25:
 625              	.L48:
 626              		.loc 1 339 0
 627 02f0 FEFFFFEB 		bl	_Z16erase_user_flashv
 628              		.loc 1 341 0
 629 02f4 0000A0E3 		mov	r0, #0
 630 02f8 78109FE5 		ldr	r1, .L67+40
 631 02fc 100000EA 		b	.L64
 632              	.L50:
 633              		.loc 1 355 0
 634 0300 3010A0E3 		mov	r1, #48
 635 0304 0000A0E3 		mov	r0, #0
 636 0308 FEFFFFEB 		bl	_Z11SerialWritehi
 637              		.loc 1 356 0
 638 030c 3710A0E3 		mov	r1, #55
 639 0310 060000EA 		b	.L63
 640              	.L57:
 641              		.loc 1 360 0
 642 0314 0110A0E3 		mov	r1, #1
 643 0318 0000A0E3 		mov	r0, #0
 644 031c FEFFFFEB 		bl	_Z11SerialWritehi
 645              		.loc 1 361 0
 646 0320 9810A0E3 		mov	r1, #152
 647 0324 0000A0E3 		mov	r0, #0
 648 0328 FEFFFFEB 		bl	_Z11SerialWritehi
 649              		.loc 1 362 0
 650 032c 1E10A0E3 		mov	r1, #30
 651              	.LVL26:
 652              	.L63:
 653 0330 0000A0E3 		mov	r0, #0
 654              	.L65:
 655 0334 FEFFFFEB 		bl	_Z11SerialWritehi
 656 0338 020000EA 		b	.L62
 657              	.LVL27:
 658              	.L38:
 659              		.loc 1 366 0
 660 033c 38109FE5 		ldr	r1, .L67+44
 661 0340 0000A0E3 		mov	r0, #0
 662              	.L64:
 663 0344 FEFFFFEB 		bl	_Z9SerialStrhPc
 664              	.LVL28:
 665              	.L62:
 666              	.LBE14:
 667              		.loc 1 370 0
 668 0348 F041BDE8 		ldmfd	sp!, {r4, r5, r6, r7, r8, lr}
 669 034c 1EFF2FE1 		bx	lr
 670              	.L68:
 671              		.align	2
 672              	.L67:
 673 0350 00000000 		.word	.LANCHOR4
 674 0354 00000000 		.word	.LANCHOR1
 675 0358 00000000 		.word	.LANCHOR0
 676 035c 00000000 		.word	.LANCHOR3
ARM GAS  /cygdrive/c/Users/Chris/AppData/Local/Temp/cc7xwWEZ.s 			page 21


 677 0360 00000000 		.word	.LANCHOR5
 678 0364 00000000 		.word	sector_end_map
 679 0368 00000000 		.word	.LANCHOR7
 680 036c 00000000 		.word	.LANCHOR6
 681 0370 00000000 		.word	.LANCHOR8
 682 0374 00000000 		.word	.LANCHOR9
 683 0378 00000000 		.word	.LC0
 684 037c 08000000 		.word	.LC1
 685              	.LFE11:
 686              		.size	_Z16ButterflyServicec, .-_Z16ButterflyServicec
 687              		.section	.text.main,"ax",%progbits
 688              		.align	2
 689              		.global	main
 690              		.type	main, %function
 691              	main:
 692              	.LFB10:
 693              		.loc 1 113 0
 694              		@ Function supports interworking.
 695              		@ args = 0, pretend = 0, frame = 0
 696              		@ frame_needed = 0, uses_anonymous_args = 0
 697 0000 10402DE9 		stmfd	sp!, {r4, lr}
 698              	.LCFI3:
 699              		.loc 1 116 0
 700 0004 FEFFFFEB 		bl	_Z7sysInitv
 701 0008 0040A0E3 		mov	r4, #0
 702              	.LVL29:
 703              	.L70:
 704              	.LBB15:
 705              		.loc 1 119 0
 706 000c FF0004E2 		and	r0, r4, #255
 707 0010 0110A0E3 		mov	r1, #1
 708              		.loc 1 118 0
 709 0014 014084E2 		add	r4, r4, #1
 710              		.loc 1 119 0
 711 0018 FEFFFFEB 		bl	_Z7pinModehh
 712              		.loc 1 118 0
 713 001c 260054E3 		cmp	r4, #38
 714 0020 F9FFFF1A 		bne	.L70
 715              	.LBE15:
 716              		.loc 1 122 0
 717 0024 FEFFFFEB 		bl	_Z13turnOnAllLEDsv
 718              		.loc 1 125 0
 719 0028 0200A0E3 		mov	r0, #2
 720 002c FEFFFFEB 		bl	_Z8spinLEDsj
 721              	.L71:
 722              		.loc 1 128 0
 723 0030 FEFFFFEB 		bl	_Z13wiggleAllPinsv
 724              		.loc 1 130 0
 725 0034 FEFFFFEB 		bl	_Z19toggleOutboundPowerv
 726 0038 FCFFFFEA 		b	.L71
 727              	.LFE10:
 728              		.size	main, .-main
 729              		.global	kConfigMemLength
 730              		.global	kApplicationStartAddr
 731              		.global	gAddress
 732              		.global	gAddressPgm
 733              		.global	gBuffer
ARM GAS  /cygdrive/c/Users/Chris/AppData/Local/Temp/cc7xwWEZ.s 			page 22


 734              		.global	gConfigMem
 735              		.global	gDevice
 736              		.global	gDevType
 737              		.global	gRecvCommand
 738              		.global	purge
 739              		.global	gConfigCs
 740              		.global	gSFBootValidChecksum
 741              		.global	app_code_entry
 742              		.global	wait
 743              		.global	pin
 744              		.global	x
 745              		.global	uart
 746              		.global	index
 747              		.global	gGotFirstPage
 748              		.section	.bss.kConfigMemLength,"aw",%nobits
 749              		.set	.LANCHOR7,. + 0
 750              		.type	kConfigMemLength, %object
 751              		.size	kConfigMemLength, 1
 752              	kConfigMemLength:
 753 0000 00       		.space	1
 754              		.section	.data.gConfigCs,"aw",%progbits
 755              		.align	2
 756              		.type	gConfigCs, %object
 757              		.size	gConfigCs, 4
 758              	gConfigCs:
 759 0000 00240000 		.word	9216
 760              		.section	.bss.gDevType,"aw",%nobits
 761              		.type	gDevType, %object
 762              		.size	gDevType, 1
 763              	gDevType:
 764 0000 00       		.space	1
 765              		.section	.bss.wait,"aw",%nobits
 766              		.align	3
 767              		.type	wait, %object
 768              		.size	wait, 8
 769              	wait:
 770 0000 00000000 		.space	8
 770      00000000 
 771              		.section	.bss.uart,"aw",%nobits
 772              		.type	uart, %object
 773              		.size	uart, 1
 774              	uart:
 775 0000 00       		.space	1
 776              		.section	.bss.gRecvCommand,"aw",%nobits
 777              		.type	gRecvCommand, %object
 778              		.size	gRecvCommand, 1
 779              	gRecvCommand:
 780 0000 00       		.space	1
 781              		.section	.bss.gBuffer,"aw",%nobits
 782              		.set	.LANCHOR2,. + 0
 783              		.type	gBuffer, %object
 784              		.size	gBuffer, 512
 785              	gBuffer:
 786 0000 00000000 		.space	512
 786      00000000 
 786      00000000 
 786      00000000 
ARM GAS  /cygdrive/c/Users/Chris/AppData/Local/Temp/cc7xwWEZ.s 			page 23


 786      00000000 
 787              		.section	.bss.gAddress,"aw",%nobits
 788              		.align	2
 789              		.set	.LANCHOR3,. + 0
 790              		.type	gAddress, %object
 791              		.size	gAddress, 4
 792              	gAddress:
 793 0000 00000000 		.space	4
 794              		.section	.data.kApplicationStartAddr,"aw",%progbits
 795              		.align	2
 796              		.set	.LANCHOR1,. + 0
 797              		.type	kApplicationStartAddr, %object
 798              		.size	kApplicationStartAddr, 4
 799              	kApplicationStartAddr:
 800 0000 20200000 		.word	8224
 801              		.section	.bss.gConfigMem,"aw",%nobits
 802              		.align	2
 803              		.set	.LANCHOR6,. + 0
 804              		.type	gConfigMem, %object
 805              		.size	gConfigMem, 544
 806              	gConfigMem:
 807 0000 00000000 		.space	544
 807      00000000 
 807      00000000 
 807      00000000 
 807      00000000 
 808              		.section	.bss.gSFBootValidChecksum,"aw",%nobits
 809              		.type	gSFBootValidChecksum, %object
 810              		.size	gSFBootValidChecksum, 1
 811              	gSFBootValidChecksum:
 812 0000 00       		.space	1
 813              		.section	.bss.purge,"aw",%nobits
 814              		.align	2
 815              		.set	.LANCHOR4,. + 0
 816              		.type	purge, %object
 817              		.size	purge, 4
 818              	purge:
 819 0000 00000000 		.space	4
 820              		.section	.bss.x,"aw",%nobits
 821              		.type	x, %object
 822              		.size	x, 1
 823              	x:
 824 0000 00       		.space	1
 825              		.section	.bss.gDevice,"aw",%nobits
 826              		.set	.LANCHOR9,. + 0
 827              		.type	gDevice, %object
 828              		.size	gDevice, 1
 829              	gDevice:
 830 0000 00       		.space	1
 831              		.section	.rodata.str1.1,"aMS",%progbits,1
 832              	.LC0:
 833 0000 41565242 		.ascii	"AVRBOOT\000"
 833      4F4F5400 
 834              	.LC1:
 835 0008 3F00     		.ascii	"?\000"
 836              		.section	.bss.gGotFirstPage,"aw",%nobits
 837              		.type	gGotFirstPage, %object
ARM GAS  /cygdrive/c/Users/Chris/AppData/Local/Temp/cc7xwWEZ.s 			page 24


 838              		.size	gGotFirstPage, 1
 839              	gGotFirstPage:
 840 0000 00       		.space	1
 841              		.section	.bss._ZL8gRunning,"aw",%nobits
 842              		.align	2
 843              		.set	.LANCHOR5,. + 0
 844              		.type	_ZL8gRunning, %object
 845              		.size	_ZL8gRunning, 8
 846              	_ZL8gRunning:
 847 0000 00000000 		.space	8
 847      00000000 
 848              		.section	.bss.pin,"aw",%nobits
 849              		.type	pin, %object
 850              		.size	pin, 1
 851              	pin:
 852 0000 00       		.space	1
 853              		.section	.bss.index,"aw",%nobits
 854              		.type	index, %object
 855              		.size	index, 1
 856              	index:
 857 0000 00       		.space	1
 858              		.section	.bss.gAddressPgm,"aw",%nobits
 859              		.align	2
 860              		.set	.LANCHOR0,. + 0
 861              		.type	gAddressPgm, %object
 862              		.size	gAddressPgm, 4
 863              	gAddressPgm:
 864 0000 00000000 		.space	4
 865              		.section	.bss.app_code_entry,"aw",%nobits
 866              		.align	2
 867              		.set	.LANCHOR8,. + 0
 868              		.type	app_code_entry, %object
 869              		.size	app_code_entry, 4
 870              	app_code_entry:
 871 0000 00000000 		.space	4
 872              		.section	.debug_frame,"",%progbits
 873              	.Lframe0:
 874 0000 0C000000 		.4byte	.LECIE0-.LSCIE0
 875              	.LSCIE0:
 876 0004 FFFFFFFF 		.4byte	0xffffffff
 877 0008 01       		.byte	0x1
 878 0009 00       		.ascii	"\000"
 879 000a 01       		.uleb128 0x1
 880 000b 7C       		.sleb128 -4
 881 000c 0E       		.byte	0xe
 882 000d 0C       		.byte	0xc
 883 000e 0D       		.uleb128 0xd
 884 000f 00       		.uleb128 0x0
 885              		.align	2
 886              	.LECIE0:
 887              	.LSFDE0:
 888 0010 0C000000 		.4byte	.LEFDE0-.LASFDE0
 889              	.LASFDE0:
 890 0014 00000000 		.4byte	.Lframe0
 891 0018 00000000 		.4byte	.LFB2
 892 001c 08000000 		.4byte	.LFE2-.LFB2
 893              		.align	2
ARM GAS  /cygdrive/c/Users/Chris/AppData/Local/Temp/cc7xwWEZ.s 			page 25


 894              	.LEFDE0:
 895              	.LSFDE2:
 896 0020 0C000000 		.4byte	.LEFDE2-.LASFDE2
 897              	.LASFDE2:
 898 0024 00000000 		.4byte	.Lframe0
 899 0028 00000000 		.4byte	.LFB3
 900 002c 08000000 		.4byte	.LFE3-.LFB3
 901              		.align	2
 902              	.LEFDE2:
 903              	.LSFDE4:
 904 0030 0C000000 		.4byte	.LEFDE4-.LASFDE4
 905              	.LASFDE4:
 906 0034 00000000 		.4byte	.Lframe0
 907 0038 00000000 		.4byte	.LFB4
 908 003c 04000000 		.4byte	.LFE4-.LFB4
 909              		.align	2
 910              	.LEFDE4:
 911              	.LSFDE6:
 912 0040 0C000000 		.4byte	.LEFDE6-.LASFDE6
 913              	.LASFDE6:
 914 0044 00000000 		.4byte	.Lframe0
 915 0048 00000000 		.4byte	.LFB5
 916 004c 08000000 		.4byte	.LFE5-.LFB5
 917              		.align	2
 918              	.LEFDE6:
 919              	.LSFDE8:
 920 0050 0C000000 		.4byte	.LEFDE8-.LASFDE8
 921              	.LASFDE8:
 922 0054 00000000 		.4byte	.Lframe0
 923 0058 00000000 		.4byte	.LFB6
 924 005c 08000000 		.4byte	.LFE6-.LFB6
 925              		.align	2
 926              	.LEFDE8:
 927              	.LSFDE10:
 928 0060 0C000000 		.4byte	.LEFDE10-.LASFDE10
 929              	.LASFDE10:
 930 0064 00000000 		.4byte	.Lframe0
 931 0068 00000000 		.4byte	.LFB7
 932 006c 08000000 		.4byte	.LFE7-.LFB7
 933              		.align	2
 934              	.LEFDE10:
 935              	.LSFDE12:
 936 0070 0C000000 		.4byte	.LEFDE12-.LASFDE12
 937              	.LASFDE12:
 938 0074 00000000 		.4byte	.Lframe0
 939 0078 00000000 		.4byte	.LFB8
 940 007c 08000000 		.4byte	.LFE8-.LFB8
 941              		.align	2
 942              	.LEFDE12:
 943              	.LSFDE14:
 944 0080 0C000000 		.4byte	.LEFDE14-.LASFDE14
 945              	.LASFDE14:
 946 0084 00000000 		.4byte	.Lframe0
 947 0088 00000000 		.4byte	.LFB9
 948 008c 04000000 		.4byte	.LFE9-.LFB9
 949              		.align	2
 950              	.LEFDE14:
ARM GAS  /cygdrive/c/Users/Chris/AppData/Local/Temp/cc7xwWEZ.s 			page 26


 951              	.LSFDE16:
 952 0090 0C000000 		.4byte	.LEFDE16-.LASFDE16
 953              	.LASFDE16:
 954 0094 00000000 		.4byte	.Lframe0
 955 0098 00000000 		.4byte	.LFB15
 956 009c 1C000000 		.4byte	.LFE15-.LFB15
 957              		.align	2
 958              	.LEFDE16:
 959              	.LSFDE18:
 960 00a0 18000000 		.4byte	.LEFDE18-.LASFDE18
 961              	.LASFDE18:
 962 00a4 00000000 		.4byte	.Lframe0
 963 00a8 00000000 		.4byte	.LFB13
 964 00ac 9C000000 		.4byte	.LFE13-.LFB13
 965 00b0 44       		.byte	0x4
 966              		.4byte	.LCFI0-.LFB13
 967 00b1 0E       		.byte	0xe
 968 00b2 10       		.uleb128 0x10
 969 00b3 8E       		.byte	0x8e
 970 00b4 01       		.uleb128 0x1
 971 00b5 86       		.byte	0x86
 972 00b6 02       		.uleb128 0x2
 973 00b7 85       		.byte	0x85
 974 00b8 03       		.uleb128 0x3
 975 00b9 84       		.byte	0x84
 976 00ba 04       		.uleb128 0x4
 977 00bb 00       		.align	2
 978              	.LEFDE18:
 979              	.LSFDE20:
 980 00bc 1C000000 		.4byte	.LEFDE20-.LASFDE20
 981              	.LASFDE20:
 982 00c0 00000000 		.4byte	.Lframe0
 983 00c4 00000000 		.4byte	.LFB12
 984 00c8 84000000 		.4byte	.LFE12-.LFB12
 985 00cc 44       		.byte	0x4
 986              		.4byte	.LCFI1-.LFB12
 987 00cd 0E       		.byte	0xe
 988 00ce 18       		.uleb128 0x18
 989 00cf 8E       		.byte	0x8e
 990 00d0 01       		.uleb128 0x1
 991 00d1 88       		.byte	0x88
 992 00d2 02       		.uleb128 0x2
 993 00d3 87       		.byte	0x87
 994 00d4 03       		.uleb128 0x3
 995 00d5 86       		.byte	0x86
 996 00d6 04       		.uleb128 0x4
 997 00d7 85       		.byte	0x85
 998 00d8 05       		.uleb128 0x5
 999 00d9 84       		.byte	0x84
 1000 00da 06       		.uleb128 0x6
 1001 00db 00       		.align	2
 1002              	.LEFDE20:
 1003              	.LSFDE22:
 1004 00dc 1C000000 		.4byte	.LEFDE22-.LASFDE22
 1005              	.LASFDE22:
 1006 00e0 00000000 		.4byte	.Lframe0
 1007 00e4 00000000 		.4byte	.LFB11
ARM GAS  /cygdrive/c/Users/Chris/AppData/Local/Temp/cc7xwWEZ.s 			page 27


 1008 00e8 80030000 		.4byte	.LFE11-.LFB11
 1009 00ec 48       		.byte	0x4
 1010              		.4byte	.LCFI2-.LFB11
 1011 00ed 0E       		.byte	0xe
 1012 00ee 18       		.uleb128 0x18
 1013 00ef 8E       		.byte	0x8e
 1014 00f0 01       		.uleb128 0x1
 1015 00f1 88       		.byte	0x88
 1016 00f2 02       		.uleb128 0x2
 1017 00f3 87       		.byte	0x87
 1018 00f4 03       		.uleb128 0x3
 1019 00f5 86       		.byte	0x86
 1020 00f6 04       		.uleb128 0x4
 1021 00f7 85       		.byte	0x85
 1022 00f8 05       		.uleb128 0x5
 1023 00f9 84       		.byte	0x84
 1024 00fa 06       		.uleb128 0x6
 1025 00fb 00       		.align	2
 1026              	.LEFDE22:
 1027              	.LSFDE24:
 1028 00fc 14000000 		.4byte	.LEFDE24-.LASFDE24
 1029              	.LASFDE24:
 1030 0100 00000000 		.4byte	.Lframe0
 1031 0104 00000000 		.4byte	.LFB10
 1032 0108 3C000000 		.4byte	.LFE10-.LFB10
 1033 010c 44       		.byte	0x4
 1034              		.4byte	.LCFI3-.LFB10
 1035 010d 0E       		.byte	0xe
 1036 010e 08       		.uleb128 0x8
 1037 010f 8E       		.byte	0x8e
 1038 0110 01       		.uleb128 0x1
 1039 0111 84       		.byte	0x84
 1040 0112 02       		.uleb128 0x2
 1041 0113 00       		.align	2
 1042              	.LEFDE24:
 1043              		.text
 1044              	.Letext0:
 1045              		.section	.debug_loc,"",%progbits
 1046              	.Ldebug_loc0:
 1047              	.LLST9:
 1048 0000 00000000 		.4byte	.LFB13
 1049 0004 04000000 		.4byte	.LCFI0
 1050 0008 0100     		.2byte	0x1
 1051 000a 5D       		.byte	0x5d
 1052 000b 04000000 		.4byte	.LCFI0
 1053 000f 9C000000 		.4byte	.LFE13
 1054 0013 0200     		.2byte	0x2
 1055 0015 7D       		.byte	0x7d
 1056 0016 10       		.sleb128 16
 1057 0017 00000000 		.4byte	0x0
 1058 001b 00000000 		.4byte	0x0
 1059              	.LLST10:
 1060 001f 00000000 		.4byte	.LVL0
 1061 0023 0C000000 		.4byte	.LVL1
 1062 0027 0100     		.2byte	0x1
 1063 0029 50       		.byte	0x50
 1064 002a 0C000000 		.4byte	.LVL1
ARM GAS  /cygdrive/c/Users/Chris/AppData/Local/Temp/cc7xwWEZ.s 			page 28


 1065 002e 9C000000 		.4byte	.LFE13
 1066 0032 0100     		.2byte	0x1
 1067 0034 56       		.byte	0x56
 1068 0035 00000000 		.4byte	0x0
 1069 0039 00000000 		.4byte	0x0
 1070              	.LLST11:
 1071 003d 00000000 		.4byte	.LVL0
 1072 0041 28000000 		.4byte	.LVL2
 1073 0045 0100     		.2byte	0x1
 1074 0047 51       		.byte	0x51
 1075 0048 2C000000 		.4byte	.LVL3
 1076 004c 60000000 		.4byte	.LVL4
 1077 0050 0100     		.2byte	0x1
 1078 0052 51       		.byte	0x51
 1079 0053 70000000 		.4byte	.LVL5
 1080 0057 9C000000 		.4byte	.LFE13
 1081 005b 0100     		.2byte	0x1
 1082 005d 51       		.byte	0x51
 1083 005e 00000000 		.4byte	0x0
 1084 0062 00000000 		.4byte	0x0
 1085              	.LLST12:
 1086 0066 00000000 		.4byte	.LFB12
 1087 006a 04000000 		.4byte	.LCFI1
 1088 006e 0100     		.2byte	0x1
 1089 0070 5D       		.byte	0x5d
 1090 0071 04000000 		.4byte	.LCFI1
 1091 0075 84000000 		.4byte	.LFE12
 1092 0079 0200     		.2byte	0x2
 1093 007b 7D       		.byte	0x7d
 1094 007c 18       		.sleb128 24
 1095 007d 00000000 		.4byte	0x0
 1096 0081 00000000 		.4byte	0x0
 1097              	.LLST13:
 1098 0085 00000000 		.4byte	.LVL6
 1099 0089 18000000 		.4byte	.LVL10
 1100 008d 0100     		.2byte	0x1
 1101 008f 50       		.byte	0x50
 1102 0090 18000000 		.4byte	.LVL10
 1103 0094 84000000 		.4byte	.LFE12
 1104 0098 0100     		.2byte	0x1
 1105 009a 57       		.byte	0x57
 1106 009b 00000000 		.4byte	0x0
 1107 009f 00000000 		.4byte	0x0
 1108              	.LLST14:
 1109 00a3 00000000 		.4byte	.LVL6
 1110 00a7 18000000 		.4byte	.LVL10
 1111 00ab 0100     		.2byte	0x1
 1112 00ad 51       		.byte	0x51
 1113 00ae 48000000 		.4byte	.LVL15
 1114 00b2 54000000 		.4byte	.LVL16
 1115 00b6 0100     		.2byte	0x1
 1116 00b8 51       		.byte	0x51
 1117 00b9 00000000 		.4byte	0x0
 1118 00bd 00000000 		.4byte	0x0
 1119              	.LLST15:
 1120 00c1 28000000 		.4byte	.LVL11
 1121 00c5 30000000 		.4byte	.LVL12
ARM GAS  /cygdrive/c/Users/Chris/AppData/Local/Temp/cc7xwWEZ.s 			page 29


 1122 00c9 0100     		.2byte	0x1
 1123 00cb 51       		.byte	0x51
 1124 00cc 00000000 		.4byte	0x0
 1125 00d0 00000000 		.4byte	0x0
 1126              	.LLST16:
 1127 00d4 30000000 		.4byte	.LVL12
 1128 00d8 44000000 		.4byte	.LVL14
 1129 00dc 0100     		.2byte	0x1
 1130 00de 51       		.byte	0x51
 1131 00df 00000000 		.4byte	0x0
 1132 00e3 00000000 		.4byte	0x0
 1133              	.LLST17:
 1134 00e7 00000000 		.4byte	.LFB11
 1135 00eb 08000000 		.4byte	.LCFI2
 1136 00ef 0100     		.2byte	0x1
 1137 00f1 5D       		.byte	0x5d
 1138 00f2 08000000 		.4byte	.LCFI2
 1139 00f6 80030000 		.4byte	.LFE11
 1140 00fa 0200     		.2byte	0x2
 1141 00fc 7D       		.byte	0x7d
 1142 00fd 18       		.sleb128 24
 1143 00fe 00000000 		.4byte	0x0
 1144 0102 00000000 		.4byte	0x0
 1145              	.LLST18:
 1146 0106 00000000 		.4byte	.LVL17
 1147 010a 04000000 		.4byte	.LVL18
 1148 010e 0100     		.2byte	0x1
 1149 0110 50       		.byte	0x50
 1150 0111 00000000 		.4byte	0x0
 1151 0115 00000000 		.4byte	0x0
 1152              	.LLST19:
 1153 0119 FC010000 		.4byte	.LVL21
 1154 011d 28020000 		.4byte	.LVL23
 1155 0121 0100     		.2byte	0x1
 1156 0123 54       		.byte	0x54
 1157 0124 E8020000 		.4byte	.LVL24
 1158 0128 F0020000 		.4byte	.LVL25
 1159 012c 0100     		.2byte	0x1
 1160 012e 54       		.byte	0x54
 1161 012f 30030000 		.4byte	.LVL26
 1162 0133 3C030000 		.4byte	.LVL27
 1163 0137 0100     		.2byte	0x1
 1164 0139 54       		.byte	0x54
 1165 013a 48030000 		.4byte	.LVL28
 1166 013e 80030000 		.4byte	.LFE11
 1167 0142 0100     		.2byte	0x1
 1168 0144 54       		.byte	0x54
 1169 0145 00000000 		.4byte	0x0
 1170 0149 00000000 		.4byte	0x0
 1171              	.LLST20:
 1172 014d C8010000 		.4byte	.LVL19
 1173 0151 F0010000 		.4byte	.LVL20
 1174 0155 0100     		.2byte	0x1
 1175 0157 55       		.byte	0x55
 1176 0158 30030000 		.4byte	.LVL26
 1177 015c 3C030000 		.4byte	.LVL27
 1178 0160 0100     		.2byte	0x1
ARM GAS  /cygdrive/c/Users/Chris/AppData/Local/Temp/cc7xwWEZ.s 			page 30


 1179 0162 55       		.byte	0x55
 1180 0163 48030000 		.4byte	.LVL28
 1181 0167 80030000 		.4byte	.LFE11
 1182 016b 0100     		.2byte	0x1
 1183 016d 55       		.byte	0x55
 1184 016e 00000000 		.4byte	0x0
 1185 0172 00000000 		.4byte	0x0
 1186              	.LLST21:
 1187 0176 00000000 		.4byte	.LFB10
 1188 017a 04000000 		.4byte	.LCFI3
 1189 017e 0100     		.2byte	0x1
 1190 0180 5D       		.byte	0x5d
 1191 0181 04000000 		.4byte	.LCFI3
 1192 0185 3C000000 		.4byte	.LFE10
 1193 0189 0200     		.2byte	0x2
 1194 018b 7D       		.byte	0x7d
 1195 018c 08       		.sleb128 8
 1196 018d 00000000 		.4byte	0x0
 1197 0191 00000000 		.4byte	0x0
 1198              		.file 2 "/cygdrive/f/ARM2008q3-66-GPL/build/install/Bin/../lib/gcc/arm-none-eabi/4.3.2/../../../..
 1199              		.file 3 "/cygdrive/f/ARM2008q3-66-GPL/build/install/Bin/../lib/gcc/arm-none-eabi/4.3.2/include/std
 1200              		.file 4 "/cygdrive/f/ARM2008q3-66-GPL/build/install/Bin/../lib/gcc/arm-none-eabi/4.3.2/include/std
 1201              		.file 5 "/cygdrive/f/ARM2008q3-66-GPL/build/install/Bin/../lib/gcc/arm-none-eabi/4.3.2/../../../..
 1202              		.file 6 "/cygdrive/f/ARM2008q3-66-GPL/build/install/Bin/../lib/gcc/arm-none-eabi/4.3.2/../../../..
 1203              		.file 7 "/cygdrive/f/ARM2008q3-66-GPL/build/install/Bin/../lib/gcc/arm-none-eabi/4.3.2/../../../..
 1204              		.file 8 "/cygdrive/f/ARM2008q3-66-GPL/build/install/Bin/../lib/gcc/arm-none-eabi/4.3.2/../../../..
 1205              		.file 9 "SFBChecksum.h"
 1206              		.file 10 "sbl_iap.h"
 1207              		.section	.debug_info
 1208 0000 B50E0000 		.4byte	0xeb5
 1209 0004 0200     		.2byte	0x2
 1210 0006 00000000 		.4byte	.Ldebug_abbrev0
 1211 000a 04       		.byte	0x4
 1212 000b 01       		.uleb128 0x1
 1213 000c BC000000 		.4byte	.LASF167
 1214 0010 04       		.byte	0x4
 1215 0011 F0040000 		.4byte	.LASF168
 1216 0015 D5060000 		.4byte	.LASF169
 1217 0019 00000000 		.4byte	0x0
 1218 001d 00000000 		.4byte	0x0
 1219 0021 18000000 		.4byte	.Ldebug_ranges0+0x18
 1220 0025 00000000 		.4byte	.Ldebug_line0
 1221 0029 02       		.uleb128 0x2
 1222 002a 01       		.byte	0x1
 1223 002b 06       		.byte	0x6
 1224 002c EF000000 		.4byte	.LASF0
 1225 0030 03       		.uleb128 0x3
 1226 0031 6A060000 		.4byte	.LASF5
 1227 0035 02       		.byte	0x2
 1228 0036 2E       		.byte	0x2e
 1229 0037 3B000000 		.4byte	0x3b
 1230 003b 02       		.uleb128 0x2
 1231 003c 01       		.byte	0x1
 1232 003d 08       		.byte	0x8
 1233 003e C9040000 		.4byte	.LASF1
 1234 0042 02       		.uleb128 0x2
 1235 0043 02       		.byte	0x2
ARM GAS  /cygdrive/c/Users/Chris/AppData/Local/Temp/cc7xwWEZ.s 			page 31


 1236 0044 05       		.byte	0x5
 1237 0045 DC040000 		.4byte	.LASF2
 1238 0049 02       		.uleb128 0x2
 1239 004a 02       		.byte	0x2
 1240 004b 07       		.byte	0x7
 1241 004c 25030000 		.4byte	.LASF3
 1242 0050 02       		.uleb128 0x2
 1243 0051 04       		.byte	0x4
 1244 0052 05       		.byte	0x5
 1245 0053 76010000 		.4byte	.LASF4
 1246 0057 03       		.uleb128 0x3
 1247 0058 71050000 		.4byte	.LASF6
 1248 005c 02       		.byte	0x2
 1249 005d 54       		.byte	0x54
 1250 005e 62000000 		.4byte	0x62
 1251 0062 02       		.uleb128 0x2
 1252 0063 04       		.byte	0x4
 1253 0064 07       		.byte	0x7
 1254 0065 A3020000 		.4byte	.LASF7
 1255 0069 02       		.uleb128 0x2
 1256 006a 08       		.byte	0x8
 1257 006b 05       		.byte	0x5
 1258 006c E1000000 		.4byte	.LASF8
 1259 0070 03       		.uleb128 0x3
 1260 0071 41000000 		.4byte	.LASF9
 1261 0075 02       		.byte	0x2
 1262 0076 7C       		.byte	0x7c
 1263 0077 7B000000 		.4byte	0x7b
 1264 007b 02       		.uleb128 0x2
 1265 007c 08       		.byte	0x8
 1266 007d 07       		.byte	0x7
 1267 007e 82000000 		.4byte	.LASF10
 1268 0082 04       		.uleb128 0x4
 1269 0083 04       		.byte	0x4
 1270 0084 05       		.byte	0x5
 1271 0085 696E7400 		.ascii	"int\000"
 1272 0089 02       		.uleb128 0x2
 1273 008a 04       		.byte	0x4
 1274 008b 07       		.byte	0x7
 1275 008c 7F020000 		.4byte	.LASF11
 1276 0090 03       		.uleb128 0x3
 1277 0091 27000000 		.4byte	.LASF12
 1278 0095 03       		.byte	0x3
 1279 0096 D6       		.byte	0xd6
 1280 0097 89000000 		.4byte	0x89
 1281 009b 03       		.uleb128 0x3
 1282 009c 11040000 		.4byte	.LASF13
 1283 00a0 04       		.byte	0x4
 1284 00a1 2B       		.byte	0x2b
 1285 00a2 A6000000 		.4byte	0xa6
 1286 00a6 05       		.uleb128 0x5
 1287 00a7 BB010000 		.4byte	.LASF170
 1288 00ab 04       		.byte	0x4
 1289 00ac BE000000 		.4byte	0xbe
 1290 00b0 06       		.uleb128 0x6
 1291 00b1 E1050000 		.4byte	.LASF17
 1292 00b5 BE000000 		.4byte	0xbe
ARM GAS  /cygdrive/c/Users/Chris/AppData/Local/Temp/cc7xwWEZ.s 			page 32


 1293 00b9 02       		.byte	0x2
 1294 00ba 23       		.byte	0x23
 1295 00bb 00       		.uleb128 0x0
 1296 00bc 01       		.byte	0x1
 1297 00bd 00       		.byte	0x0
 1298 00be 07       		.uleb128 0x7
 1299 00bf 04       		.byte	0x4
 1300 00c0 03       		.uleb128 0x3
 1301 00c1 98040000 		.4byte	.LASF14
 1302 00c5 05       		.byte	0x5
 1303 00c6 07       		.byte	0x7
 1304 00c7 82000000 		.4byte	0x82
 1305 00cb 03       		.uleb128 0x3
 1306 00cc 80050000 		.4byte	.LASF15
 1307 00d0 06       		.byte	0x6
 1308 00d1 2C       		.byte	0x2c
 1309 00d2 50000000 		.4byte	0x50
 1310 00d6 08       		.uleb128 0x8
 1311 00d7 A2030000 		.4byte	.LASF16
 1312 00db 03       		.byte	0x3
 1313 00dc 6301     		.2byte	0x163
 1314 00de 89000000 		.4byte	0x89
 1315 00e2 09       		.uleb128 0x9
 1316 00e3 28060000 		.4byte	.LASF24
 1317 00e7 08       		.byte	0x8
 1318 00e8 06       		.byte	0x6
 1319 00e9 44       		.byte	0x44
 1320 00ea 2E010000 		.4byte	0x12e
 1321 00ee 0A       		.uleb128 0xa
 1322 00ef 50000000 		.4byte	.LASF67
 1323 00f3 04       		.byte	0x4
 1324 00f4 06       		.byte	0x6
 1325 00f5 47       		.byte	0x47
 1326 00f6 11010000 		.4byte	0x111
 1327 00fa 0B       		.uleb128 0xb
 1328 00fb 6D030000 		.4byte	.LASF18
 1329 00ff 06       		.byte	0x6
 1330 0100 48       		.byte	0x48
 1331 0101 D6000000 		.4byte	0xd6
 1332 0105 0B       		.uleb128 0xb
 1333 0106 8C020000 		.4byte	.LASF19
 1334 010a 06       		.byte	0x6
 1335 010b 49       		.byte	0x49
 1336 010c 2E010000 		.4byte	0x12e
 1337 0110 00       		.byte	0x0
 1338 0111 0C       		.uleb128 0xc
 1339 0112 69050000 		.4byte	.LASF20
 1340 0116 06       		.byte	0x6
 1341 0117 45       		.byte	0x45
 1342 0118 82000000 		.4byte	0x82
 1343 011c 02       		.byte	0x2
 1344 011d 23       		.byte	0x23
 1345 011e 00       		.uleb128 0x0
 1346 011f 0C       		.uleb128 0xc
 1347 0120 C6050000 		.4byte	.LASF21
 1348 0124 06       		.byte	0x6
 1349 0125 4A       		.byte	0x4a
ARM GAS  /cygdrive/c/Users/Chris/AppData/Local/Temp/cc7xwWEZ.s 			page 33


 1350 0126 EE000000 		.4byte	0xee
 1351 012a 02       		.byte	0x2
 1352 012b 23       		.byte	0x23
 1353 012c 04       		.uleb128 0x4
 1354 012d 00       		.byte	0x0
 1355 012e 0D       		.uleb128 0xd
 1356 012f 3B000000 		.4byte	0x3b
 1357 0133 3E010000 		.4byte	0x13e
 1358 0137 0E       		.uleb128 0xe
 1359 0138 3E010000 		.4byte	0x13e
 1360 013c 03       		.byte	0x3
 1361 013d 00       		.byte	0x0
 1362 013e 0F       		.uleb128 0xf
 1363 013f 04       		.byte	0x4
 1364 0140 07       		.byte	0x7
 1365 0141 03       		.uleb128 0x3
 1366 0142 31020000 		.4byte	.LASF22
 1367 0146 06       		.byte	0x6
 1368 0147 4F       		.byte	0x4f
 1369 0148 C0000000 		.4byte	0xc0
 1370 014c 03       		.uleb128 0x3
 1371 014d EB050000 		.4byte	.LASF23
 1372 0151 07       		.byte	0x7
 1373 0152 15       		.byte	0x15
 1374 0153 62000000 		.4byte	0x62
 1375 0157 09       		.uleb128 0x9
 1376 0158 42020000 		.4byte	.LASF25
 1377 015c 18       		.byte	0x18
 1378 015d 07       		.byte	0x7
 1379 015e 2D       		.byte	0x2d
 1380 015f B6010000 		.4byte	0x1b6
 1381 0163 0C       		.uleb128 0xc
 1382 0164 B3050000 		.4byte	.LASF26
 1383 0168 07       		.byte	0x7
 1384 0169 2E       		.byte	0x2e
 1385 016a B6010000 		.4byte	0x1b6
 1386 016e 02       		.byte	0x2
 1387 016f 23       		.byte	0x23
 1388 0170 00       		.uleb128 0x0
 1389 0171 10       		.uleb128 0x10
 1390 0172 5F6B00   		.ascii	"_k\000"
 1391 0175 07       		.byte	0x7
 1392 0176 2F       		.byte	0x2f
 1393 0177 82000000 		.4byte	0x82
 1394 017b 02       		.byte	0x2
 1395 017c 23       		.byte	0x23
 1396 017d 04       		.uleb128 0x4
 1397 017e 0C       		.uleb128 0xc
 1398 017f 54050000 		.4byte	.LASF27
 1399 0183 07       		.byte	0x7
 1400 0184 2F       		.byte	0x2f
 1401 0185 82000000 		.4byte	0x82
 1402 0189 02       		.byte	0x2
 1403 018a 23       		.byte	0x23
 1404 018b 08       		.uleb128 0x8
 1405 018c 0C       		.uleb128 0xc
 1406 018d 2B020000 		.4byte	.LASF28
ARM GAS  /cygdrive/c/Users/Chris/AppData/Local/Temp/cc7xwWEZ.s 			page 34


 1407 0191 07       		.byte	0x7
 1408 0192 2F       		.byte	0x2f
 1409 0193 82000000 		.4byte	0x82
 1410 0197 02       		.byte	0x2
 1411 0198 23       		.byte	0x23
 1412 0199 0C       		.uleb128 0xc
 1413 019a 0C       		.uleb128 0xc
 1414 019b 55060000 		.4byte	.LASF29
 1415 019f 07       		.byte	0x7
 1416 01a0 2F       		.byte	0x2f
 1417 01a1 82000000 		.4byte	0x82
 1418 01a5 02       		.byte	0x2
 1419 01a6 23       		.byte	0x23
 1420 01a7 10       		.uleb128 0x10
 1421 01a8 10       		.uleb128 0x10
 1422 01a9 5F7800   		.ascii	"_x\000"
 1423 01ac 07       		.byte	0x7
 1424 01ad 30       		.byte	0x30
 1425 01ae BC010000 		.4byte	0x1bc
 1426 01b2 02       		.byte	0x2
 1427 01b3 23       		.byte	0x23
 1428 01b4 14       		.uleb128 0x14
 1429 01b5 00       		.byte	0x0
 1430 01b6 11       		.uleb128 0x11
 1431 01b7 04       		.byte	0x4
 1432 01b8 57010000 		.4byte	0x157
 1433 01bc 0D       		.uleb128 0xd
 1434 01bd 4C010000 		.4byte	0x14c
 1435 01c1 CC010000 		.4byte	0x1cc
 1436 01c5 0E       		.uleb128 0xe
 1437 01c6 3E010000 		.4byte	0x13e
 1438 01ca 00       		.byte	0x0
 1439 01cb 00       		.byte	0x0
 1440 01cc 09       		.uleb128 0x9
 1441 01cd 7A020000 		.4byte	.LASF30
 1442 01d1 24       		.byte	0x24
 1443 01d2 07       		.byte	0x7
 1444 01d3 35       		.byte	0x35
 1445 01d4 57020000 		.4byte	0x257
 1446 01d8 0C       		.uleb128 0xc
 1447 01d9 D8000000 		.4byte	.LASF31
 1448 01dd 07       		.byte	0x7
 1449 01de 36       		.byte	0x36
 1450 01df 82000000 		.4byte	0x82
 1451 01e3 02       		.byte	0x2
 1452 01e4 23       		.byte	0x23
 1453 01e5 00       		.uleb128 0x0
 1454 01e6 0C       		.uleb128 0xc
 1455 01e7 9F050000 		.4byte	.LASF32
 1456 01eb 07       		.byte	0x7
 1457 01ec 37       		.byte	0x37
 1458 01ed 82000000 		.4byte	0x82
 1459 01f1 02       		.byte	0x2
 1460 01f2 23       		.byte	0x23
 1461 01f3 04       		.uleb128 0x4
 1462 01f4 0C       		.uleb128 0xc
 1463 01f5 10010000 		.4byte	.LASF33
ARM GAS  /cygdrive/c/Users/Chris/AppData/Local/Temp/cc7xwWEZ.s 			page 35


 1464 01f9 07       		.byte	0x7
 1465 01fa 38       		.byte	0x38
 1466 01fb 82000000 		.4byte	0x82
 1467 01ff 02       		.byte	0x2
 1468 0200 23       		.byte	0x23
 1469 0201 08       		.uleb128 0x8
 1470 0202 0C       		.uleb128 0xc
 1471 0203 22070000 		.4byte	.LASF34
 1472 0207 07       		.byte	0x7
 1473 0208 39       		.byte	0x39
 1474 0209 82000000 		.4byte	0x82
 1475 020d 02       		.byte	0x2
 1476 020e 23       		.byte	0x23
 1477 020f 0C       		.uleb128 0xc
 1478 0210 0C       		.uleb128 0xc
 1479 0211 44040000 		.4byte	.LASF35
 1480 0215 07       		.byte	0x7
 1481 0216 3A       		.byte	0x3a
 1482 0217 82000000 		.4byte	0x82
 1483 021b 02       		.byte	0x2
 1484 021c 23       		.byte	0x23
 1485 021d 10       		.uleb128 0x10
 1486 021e 0C       		.uleb128 0xc
 1487 021f DF030000 		.4byte	.LASF36
 1488 0223 07       		.byte	0x7
 1489 0224 3B       		.byte	0x3b
 1490 0225 82000000 		.4byte	0x82
 1491 0229 02       		.byte	0x2
 1492 022a 23       		.byte	0x23
 1493 022b 14       		.uleb128 0x14
 1494 022c 0C       		.uleb128 0xc
 1495 022d 5A060000 		.4byte	.LASF37
 1496 0231 07       		.byte	0x7
 1497 0232 3C       		.byte	0x3c
 1498 0233 82000000 		.4byte	0x82
 1499 0237 02       		.byte	0x2
 1500 0238 23       		.byte	0x23
 1501 0239 18       		.uleb128 0x18
 1502 023a 0C       		.uleb128 0xc
 1503 023b E6040000 		.4byte	.LASF38
 1504 023f 07       		.byte	0x7
 1505 0240 3D       		.byte	0x3d
 1506 0241 82000000 		.4byte	0x82
 1507 0245 02       		.byte	0x2
 1508 0246 23       		.byte	0x23
 1509 0247 1C       		.uleb128 0x1c
 1510 0248 0C       		.uleb128 0xc
 1511 0249 A7060000 		.4byte	.LASF39
 1512 024d 07       		.byte	0x7
 1513 024e 3E       		.byte	0x3e
 1514 024f 82000000 		.4byte	0x82
 1515 0253 02       		.byte	0x2
 1516 0254 23       		.byte	0x23
 1517 0255 20       		.uleb128 0x20
 1518 0256 00       		.byte	0x0
 1519 0257 12       		.uleb128 0x12
 1520 0258 1F010000 		.4byte	.LASF40
ARM GAS  /cygdrive/c/Users/Chris/AppData/Local/Temp/cc7xwWEZ.s 			page 36


 1521 025c 0801     		.2byte	0x108
 1522 025e 07       		.byte	0x7
 1523 025f 47       		.byte	0x47
 1524 0260 A0020000 		.4byte	0x2a0
 1525 0264 0C       		.uleb128 0xc
 1526 0265 19020000 		.4byte	.LASF41
 1527 0269 07       		.byte	0x7
 1528 026a 48       		.byte	0x48
 1529 026b A0020000 		.4byte	0x2a0
 1530 026f 02       		.byte	0x2
 1531 0270 23       		.byte	0x23
 1532 0271 00       		.uleb128 0x0
 1533 0272 0C       		.uleb128 0xc
 1534 0273 00000000 		.4byte	.LASF42
 1535 0277 07       		.byte	0x7
 1536 0278 49       		.byte	0x49
 1537 0279 A0020000 		.4byte	0x2a0
 1538 027d 03       		.byte	0x3
 1539 027e 23       		.byte	0x23
 1540 027f 8001     		.uleb128 0x80
 1541 0281 0C       		.uleb128 0xc
 1542 0282 D8050000 		.4byte	.LASF43
 1543 0286 07       		.byte	0x7
 1544 0287 4B       		.byte	0x4b
 1545 0288 4C010000 		.4byte	0x14c
 1546 028c 03       		.byte	0x3
 1547 028d 23       		.byte	0x23
 1548 028e 8002     		.uleb128 0x100
 1549 0290 0C       		.uleb128 0xc
 1550 0291 A2010000 		.4byte	.LASF44
 1551 0295 07       		.byte	0x7
 1552 0296 4E       		.byte	0x4e
 1553 0297 4C010000 		.4byte	0x14c
 1554 029b 03       		.byte	0x3
 1555 029c 23       		.byte	0x23
 1556 029d 8402     		.uleb128 0x104
 1557 029f 00       		.byte	0x0
 1558 02a0 0D       		.uleb128 0xd
 1559 02a1 BE000000 		.4byte	0xbe
 1560 02a5 B0020000 		.4byte	0x2b0
 1561 02a9 0E       		.uleb128 0xe
 1562 02aa 3E010000 		.4byte	0x13e
 1563 02ae 1F       		.byte	0x1f
 1564 02af 00       		.byte	0x0
 1565 02b0 12       		.uleb128 0x12
 1566 02b1 4D040000 		.4byte	.LASF45
 1567 02b5 9001     		.2byte	0x190
 1568 02b7 07       		.byte	0x7
 1569 02b8 59       		.byte	0x59
 1570 02b9 F7020000 		.4byte	0x2f7
 1571 02bd 0C       		.uleb128 0xc
 1572 02be B3050000 		.4byte	.LASF26
 1573 02c2 07       		.byte	0x7
 1574 02c3 5A       		.byte	0x5a
 1575 02c4 F7020000 		.4byte	0x2f7
 1576 02c8 02       		.byte	0x2
 1577 02c9 23       		.byte	0x23
ARM GAS  /cygdrive/c/Users/Chris/AppData/Local/Temp/cc7xwWEZ.s 			page 37


 1578 02ca 00       		.uleb128 0x0
 1579 02cb 0C       		.uleb128 0xc
 1580 02cc 2B050000 		.4byte	.LASF46
 1581 02d0 07       		.byte	0x7
 1582 02d1 5B       		.byte	0x5b
 1583 02d2 82000000 		.4byte	0x82
 1584 02d6 02       		.byte	0x2
 1585 02d7 23       		.byte	0x23
 1586 02d8 04       		.uleb128 0x4
 1587 02d9 0C       		.uleb128 0xc
 1588 02da 26020000 		.4byte	.LASF47
 1589 02de 07       		.byte	0x7
 1590 02df 5D       		.byte	0x5d
 1591 02e0 FD020000 		.4byte	0x2fd
 1592 02e4 02       		.byte	0x2
 1593 02e5 23       		.byte	0x23
 1594 02e6 08       		.uleb128 0x8
 1595 02e7 0C       		.uleb128 0xc
 1596 02e8 1F010000 		.4byte	.LASF40
 1597 02ec 07       		.byte	0x7
 1598 02ed 5E       		.byte	0x5e
 1599 02ee 57020000 		.4byte	0x257
 1600 02f2 03       		.byte	0x3
 1601 02f3 23       		.byte	0x23
 1602 02f4 8801     		.uleb128 0x88
 1603 02f6 00       		.byte	0x0
 1604 02f7 11       		.uleb128 0x11
 1605 02f8 04       		.byte	0x4
 1606 02f9 B0020000 		.4byte	0x2b0
 1607 02fd 0D       		.uleb128 0xd
 1608 02fe 0E030000 		.4byte	0x30e
 1609 0302 0D030000 		.4byte	0x30d
 1610 0306 0E       		.uleb128 0xe
 1611 0307 3E010000 		.4byte	0x13e
 1612 030b 1F       		.byte	0x1f
 1613 030c 00       		.byte	0x0
 1614 030d 13       		.uleb128 0x13
 1615 030e 11       		.uleb128 0x11
 1616 030f 04       		.byte	0x4
 1617 0310 0D030000 		.4byte	0x30d
 1618 0314 09       		.uleb128 0x9
 1619 0315 1B070000 		.4byte	.LASF48
 1620 0319 08       		.byte	0x8
 1621 031a 07       		.byte	0x7
 1622 031b 69       		.byte	0x69
 1623 031c 3D030000 		.4byte	0x33d
 1624 0320 0C       		.uleb128 0xc
 1625 0321 01010000 		.4byte	.LASF49
 1626 0325 07       		.byte	0x7
 1627 0326 6A       		.byte	0x6a
 1628 0327 3D030000 		.4byte	0x33d
 1629 032b 02       		.byte	0x2
 1630 032c 23       		.byte	0x23
 1631 032d 00       		.uleb128 0x0
 1632 032e 0C       		.uleb128 0xc
 1633 032f 13000000 		.4byte	.LASF50
 1634 0333 07       		.byte	0x7
ARM GAS  /cygdrive/c/Users/Chris/AppData/Local/Temp/cc7xwWEZ.s 			page 38


 1635 0334 6B       		.byte	0x6b
 1636 0335 82000000 		.4byte	0x82
 1637 0339 02       		.byte	0x2
 1638 033a 23       		.byte	0x23
 1639 033b 04       		.uleb128 0x4
 1640 033c 00       		.byte	0x0
 1641 033d 11       		.uleb128 0x11
 1642 033e 04       		.byte	0x4
 1643 033f 3B000000 		.4byte	0x3b
 1644 0343 09       		.uleb128 0x9
 1645 0344 06050000 		.4byte	.LASF51
 1646 0348 5C       		.byte	0x5c
 1647 0349 07       		.byte	0x7
 1648 034a A8       		.byte	0xa8
 1649 034b 81040000 		.4byte	0x481
 1650 034f 10       		.uleb128 0x10
 1651 0350 5F7000   		.ascii	"_p\000"
 1652 0353 07       		.byte	0x7
 1653 0354 A9       		.byte	0xa9
 1654 0355 3D030000 		.4byte	0x33d
 1655 0359 02       		.byte	0x2
 1656 035a 23       		.byte	0x23
 1657 035b 00       		.uleb128 0x0
 1658 035c 10       		.uleb128 0x10
 1659 035d 5F7200   		.ascii	"_r\000"
 1660 0360 07       		.byte	0x7
 1661 0361 AA       		.byte	0xaa
 1662 0362 82000000 		.4byte	0x82
 1663 0366 02       		.byte	0x2
 1664 0367 23       		.byte	0x23
 1665 0368 04       		.uleb128 0x4
 1666 0369 10       		.uleb128 0x10
 1667 036a 5F7700   		.ascii	"_w\000"
 1668 036d 07       		.byte	0x7
 1669 036e AB       		.byte	0xab
 1670 036f 82000000 		.4byte	0x82
 1671 0373 02       		.byte	0x2
 1672 0374 23       		.byte	0x23
 1673 0375 08       		.uleb128 0x8
 1674 0376 0C       		.uleb128 0xc
 1675 0377 9B010000 		.4byte	.LASF52
 1676 037b 07       		.byte	0x7
 1677 037c AC       		.byte	0xac
 1678 037d 42000000 		.4byte	0x42
 1679 0381 02       		.byte	0x2
 1680 0382 23       		.byte	0x23
 1681 0383 0C       		.uleb128 0xc
 1682 0384 0C       		.uleb128 0xc
 1683 0385 B5020000 		.4byte	.LASF53
 1684 0389 07       		.byte	0x7
 1685 038a AD       		.byte	0xad
 1686 038b 42000000 		.4byte	0x42
 1687 038f 02       		.byte	0x2
 1688 0390 23       		.byte	0x23
 1689 0391 0E       		.uleb128 0xe
 1690 0392 10       		.uleb128 0x10
 1691 0393 5F626600 		.ascii	"_bf\000"
ARM GAS  /cygdrive/c/Users/Chris/AppData/Local/Temp/cc7xwWEZ.s 			page 39


 1692 0397 07       		.byte	0x7
 1693 0398 AE       		.byte	0xae
 1694 0399 14030000 		.4byte	0x314
 1695 039d 02       		.byte	0x2
 1696 039e 23       		.byte	0x23
 1697 039f 10       		.uleb128 0x10
 1698 03a0 0C       		.uleb128 0xc
 1699 03a1 99000000 		.4byte	.LASF54
 1700 03a5 07       		.byte	0x7
 1701 03a6 AF       		.byte	0xaf
 1702 03a7 82000000 		.4byte	0x82
 1703 03ab 02       		.byte	0x2
 1704 03ac 23       		.byte	0x23
 1705 03ad 18       		.uleb128 0x18
 1706 03ae 0C       		.uleb128 0xc
 1707 03af 66010000 		.4byte	.LASF55
 1708 03b3 07       		.byte	0x7
 1709 03b4 B6       		.byte	0xb6
 1710 03b5 BE000000 		.4byte	0xbe
 1711 03b9 02       		.byte	0x2
 1712 03ba 23       		.byte	0x23
 1713 03bb 1C       		.uleb128 0x1c
 1714 03bc 0C       		.uleb128 0xc
 1715 03bd 6A020000 		.4byte	.LASF56
 1716 03c1 07       		.byte	0x7
 1717 03c2 B8       		.byte	0xb8
 1718 03c3 86070000 		.4byte	0x786
 1719 03c7 02       		.byte	0x2
 1720 03c8 23       		.byte	0x23
 1721 03c9 20       		.uleb128 0x20
 1722 03ca 0C       		.uleb128 0xc
 1723 03cb D8030000 		.4byte	.LASF57
 1724 03cf 07       		.byte	0x7
 1725 03d0 BA       		.byte	0xba
 1726 03d1 B5070000 		.4byte	0x7b5
 1727 03d5 02       		.byte	0x2
 1728 03d6 23       		.byte	0x23
 1729 03d7 24       		.uleb128 0x24
 1730 03d8 0C       		.uleb128 0xc
 1731 03d9 7A050000 		.4byte	.LASF58
 1732 03dd 07       		.byte	0x7
 1733 03de BC       		.byte	0xbc
 1734 03df D9070000 		.4byte	0x7d9
 1735 03e3 02       		.byte	0x2
 1736 03e4 23       		.byte	0x23
 1737 03e5 28       		.uleb128 0x28
 1738 03e6 0C       		.uleb128 0xc
 1739 03e7 C1060000 		.4byte	.LASF59
 1740 03eb 07       		.byte	0x7
 1741 03ec BD       		.byte	0xbd
 1742 03ed F3070000 		.4byte	0x7f3
 1743 03f1 02       		.byte	0x2
 1744 03f2 23       		.byte	0x23
 1745 03f3 2C       		.uleb128 0x2c
 1746 03f4 10       		.uleb128 0x10
 1747 03f5 5F756200 		.ascii	"_ub\000"
 1748 03f9 07       		.byte	0x7
ARM GAS  /cygdrive/c/Users/Chris/AppData/Local/Temp/cc7xwWEZ.s 			page 40


 1749 03fa C0       		.byte	0xc0
 1750 03fb 14030000 		.4byte	0x314
 1751 03ff 02       		.byte	0x2
 1752 0400 23       		.byte	0x23
 1753 0401 30       		.uleb128 0x30
 1754 0402 10       		.uleb128 0x10
 1755 0403 5F757000 		.ascii	"_up\000"
 1756 0407 07       		.byte	0x7
 1757 0408 C1       		.byte	0xc1
 1758 0409 3D030000 		.4byte	0x33d
 1759 040d 02       		.byte	0x2
 1760 040e 23       		.byte	0x23
 1761 040f 38       		.uleb128 0x38
 1762 0410 10       		.uleb128 0x10
 1763 0411 5F757200 		.ascii	"_ur\000"
 1764 0415 07       		.byte	0x7
 1765 0416 C2       		.byte	0xc2
 1766 0417 82000000 		.4byte	0x82
 1767 041b 02       		.byte	0x2
 1768 041c 23       		.byte	0x23
 1769 041d 3C       		.uleb128 0x3c
 1770 041e 0C       		.uleb128 0xc
 1771 041f FB000000 		.4byte	.LASF60
 1772 0423 07       		.byte	0x7
 1773 0424 C5       		.byte	0xc5
 1774 0425 F9070000 		.4byte	0x7f9
 1775 0429 02       		.byte	0x2
 1776 042a 23       		.byte	0x23
 1777 042b 40       		.uleb128 0x40
 1778 042c 0C       		.uleb128 0xc
 1779 042d 99060000 		.4byte	.LASF61
 1780 0431 07       		.byte	0x7
 1781 0432 C6       		.byte	0xc6
 1782 0433 09080000 		.4byte	0x809
 1783 0437 02       		.byte	0x2
 1784 0438 23       		.byte	0x23
 1785 0439 43       		.uleb128 0x43
 1786 043a 10       		.uleb128 0x10
 1787 043b 5F6C6200 		.ascii	"_lb\000"
 1788 043f 07       		.byte	0x7
 1789 0440 C9       		.byte	0xc9
 1790 0441 14030000 		.4byte	0x314
 1791 0445 02       		.byte	0x2
 1792 0446 23       		.byte	0x23
 1793 0447 44       		.uleb128 0x44
 1794 0448 0C       		.uleb128 0xc
 1795 0449 C5010000 		.4byte	.LASF62
 1796 044d 07       		.byte	0x7
 1797 044e CC       		.byte	0xcc
 1798 044f 82000000 		.4byte	0x82
 1799 0453 02       		.byte	0x2
 1800 0454 23       		.byte	0x23
 1801 0455 4C       		.uleb128 0x4c
 1802 0456 0C       		.uleb128 0xc
 1803 0457 F2010000 		.4byte	.LASF63
 1804 045b 07       		.byte	0x7
 1805 045c CD       		.byte	0xcd
ARM GAS  /cygdrive/c/Users/Chris/AppData/Local/Temp/cc7xwWEZ.s 			page 41


 1806 045d 82000000 		.4byte	0x82
 1807 0461 02       		.byte	0x2
 1808 0462 23       		.byte	0x23
 1809 0463 50       		.uleb128 0x50
 1810 0464 0C       		.uleb128 0xc
 1811 0465 4A000000 		.4byte	.LASF64
 1812 0469 07       		.byte	0x7
 1813 046a D0       		.byte	0xd0
 1814 046b 9F040000 		.4byte	0x49f
 1815 046f 02       		.byte	0x2
 1816 0470 23       		.byte	0x23
 1817 0471 54       		.uleb128 0x54
 1818 0472 0C       		.uleb128 0xc
 1819 0473 B8030000 		.4byte	.LASF65
 1820 0477 07       		.byte	0x7
 1821 0478 D4       		.byte	0xd4
 1822 0479 41010000 		.4byte	0x141
 1823 047d 02       		.byte	0x2
 1824 047e 23       		.byte	0x23
 1825 047f 58       		.uleb128 0x58
 1826 0480 00       		.byte	0x0
 1827 0481 14       		.uleb128 0x14
 1828 0482 82000000 		.4byte	0x82
 1829 0486 9F040000 		.4byte	0x49f
 1830 048a 15       		.uleb128 0x15
 1831 048b 9F040000 		.4byte	0x49f
 1832 048f 15       		.uleb128 0x15
 1833 0490 BE000000 		.4byte	0xbe
 1834 0494 15       		.uleb128 0x15
 1835 0495 79070000 		.4byte	0x779
 1836 0499 15       		.uleb128 0x15
 1837 049a 82000000 		.4byte	0x82
 1838 049e 00       		.byte	0x0
 1839 049f 11       		.uleb128 0x11
 1840 04a0 04       		.byte	0x4
 1841 04a1 A5040000 		.4byte	0x4a5
 1842 04a5 16       		.uleb128 0x16
 1843 04a6 5C050000 		.4byte	.LASF66
 1844 04aa 0004     		.2byte	0x400
 1845 04ac 07       		.byte	0x7
 1846 04ad 4B02     		.2byte	0x24b
 1847 04af 79070000 		.4byte	0x779
 1848 04b3 17       		.uleb128 0x17
 1849 04b4 50000000 		.4byte	.LASF67
 1850 04b8 F0       		.byte	0xf0
 1851 04b9 07       		.byte	0x7
 1852 04ba 6802     		.2byte	0x268
 1853 04bc 29060000 		.4byte	0x629
 1854 04c0 18       		.uleb128 0x18
 1855 04c1 28060000 		.4byte	.LASF24
 1856 04c5 D0       		.byte	0xd0
 1857 04c6 07       		.byte	0x7
 1858 04c7 6A02     		.2byte	0x26a
 1859 04c9 E4050000 		.4byte	0x5e4
 1860 04cd 19       		.uleb128 0x19
 1861 04ce 3B060000 		.4byte	.LASF68
 1862 04d2 07       		.byte	0x7
ARM GAS  /cygdrive/c/Users/Chris/AppData/Local/Temp/cc7xwWEZ.s 			page 42


 1863 04d3 6B02     		.2byte	0x26b
 1864 04d5 89000000 		.4byte	0x89
 1865 04d9 02       		.byte	0x2
 1866 04da 23       		.byte	0x23
 1867 04db 00       		.uleb128 0x0
 1868 04dc 19       		.uleb128 0x19
 1869 04dd B9050000 		.4byte	.LASF69
 1870 04e1 07       		.byte	0x7
 1871 04e2 6C02     		.2byte	0x26c
 1872 04e4 79070000 		.4byte	0x779
 1873 04e8 02       		.byte	0x2
 1874 04e9 23       		.byte	0x23
 1875 04ea 04       		.uleb128 0x4
 1876 04eb 19       		.uleb128 0x19
 1877 04ec 4D030000 		.4byte	.LASF70
 1878 04f0 07       		.byte	0x7
 1879 04f1 6D02     		.2byte	0x26d
 1880 04f3 B7080000 		.4byte	0x8b7
 1881 04f7 02       		.byte	0x2
 1882 04f8 23       		.byte	0x23
 1883 04f9 08       		.uleb128 0x8
 1884 04fa 19       		.uleb128 0x19
 1885 04fb B2060000 		.4byte	.LASF71
 1886 04ff 07       		.byte	0x7
 1887 0500 6E02     		.2byte	0x26e
 1888 0502 CC010000 		.4byte	0x1cc
 1889 0506 02       		.byte	0x2
 1890 0507 23       		.byte	0x23
 1891 0508 24       		.uleb128 0x24
 1892 0509 19       		.uleb128 0x19
 1893 050a 60040000 		.4byte	.LASF72
 1894 050e 07       		.byte	0x7
 1895 050f 6F02     		.2byte	0x26f
 1896 0511 82000000 		.4byte	0x82
 1897 0515 02       		.byte	0x2
 1898 0516 23       		.byte	0x23
 1899 0517 48       		.uleb128 0x48
 1900 0518 19       		.uleb128 0x19
 1901 0519 0E050000 		.4byte	.LASF73
 1902 051d 07       		.byte	0x7
 1903 051e 7002     		.2byte	0x270
 1904 0520 7B000000 		.4byte	0x7b
 1905 0524 02       		.byte	0x2
 1906 0525 23       		.byte	0x23
 1907 0526 50       		.uleb128 0x50
 1908 0527 19       		.uleb128 0x19
 1909 0528 D0060000 		.4byte	.LASF74
 1910 052c 07       		.byte	0x7
 1911 052d 7102     		.2byte	0x271
 1912 052f 6C080000 		.4byte	0x86c
 1913 0533 02       		.byte	0x2
 1914 0534 23       		.byte	0x23
 1915 0535 58       		.uleb128 0x58
 1916 0536 19       		.uleb128 0x19
 1917 0537 19050000 		.4byte	.LASF75
 1918 053b 07       		.byte	0x7
 1919 053c 7202     		.2byte	0x272
ARM GAS  /cygdrive/c/Users/Chris/AppData/Local/Temp/cc7xwWEZ.s 			page 43


 1920 053e E2000000 		.4byte	0xe2
 1921 0542 02       		.byte	0x2
 1922 0543 23       		.byte	0x23
 1923 0544 68       		.uleb128 0x68
 1924 0545 19       		.uleb128 0x19
 1925 0546 8B060000 		.4byte	.LASF76
 1926 054a 07       		.byte	0x7
 1927 054b 7302     		.2byte	0x273
 1928 054d E2000000 		.4byte	0xe2
 1929 0551 02       		.byte	0x2
 1930 0552 23       		.byte	0x23
 1931 0553 70       		.uleb128 0x70
 1932 0554 19       		.uleb128 0x19
 1933 0555 CA000000 		.4byte	.LASF77
 1934 0559 07       		.byte	0x7
 1935 055a 7402     		.2byte	0x274
 1936 055c E2000000 		.4byte	0xe2
 1937 0560 02       		.byte	0x2
 1938 0561 23       		.byte	0x23
 1939 0562 78       		.uleb128 0x78
 1940 0563 19       		.uleb128 0x19
 1941 0564 72060000 		.4byte	.LASF78
 1942 0568 07       		.byte	0x7
 1943 0569 7502     		.2byte	0x275
 1944 056b C7080000 		.4byte	0x8c7
 1945 056f 03       		.byte	0x3
 1946 0570 23       		.byte	0x23
 1947 0571 8001     		.uleb128 0x80
 1948 0573 19       		.uleb128 0x19
 1949 0574 41030000 		.4byte	.LASF79
 1950 0578 07       		.byte	0x7
 1951 0579 7602     		.2byte	0x276
 1952 057b D7080000 		.4byte	0x8d7
 1953 057f 03       		.byte	0x3
 1954 0580 23       		.byte	0x23
 1955 0581 8801     		.uleb128 0x88
 1956 0583 19       		.uleb128 0x19
 1957 0584 09060000 		.4byte	.LASF80
 1958 0588 07       		.byte	0x7
 1959 0589 7702     		.2byte	0x277
 1960 058b 82000000 		.4byte	0x82
 1961 058f 03       		.byte	0x3
 1962 0590 23       		.byte	0x23
 1963 0591 A001     		.uleb128 0xa0
 1964 0593 19       		.uleb128 0x19
 1965 0594 0B020000 		.4byte	.LASF81
 1966 0598 07       		.byte	0x7
 1967 0599 7802     		.2byte	0x278
 1968 059b E2000000 		.4byte	0xe2
 1969 059f 03       		.byte	0x3
 1970 05a0 23       		.byte	0x23
 1971 05a1 A401     		.uleb128 0xa4
 1972 05a3 19       		.uleb128 0x19
 1973 05a4 A8000000 		.4byte	.LASF82
 1974 05a8 07       		.byte	0x7
 1975 05a9 7902     		.2byte	0x279
 1976 05ab E2000000 		.4byte	0xe2
ARM GAS  /cygdrive/c/Users/Chris/AppData/Local/Temp/cc7xwWEZ.s 			page 44


 1977 05af 03       		.byte	0x3
 1978 05b0 23       		.byte	0x23
 1979 05b1 AC01     		.uleb128 0xac
 1980 05b3 19       		.uleb128 0x19
 1981 05b4 FA010000 		.4byte	.LASF83
 1982 05b8 07       		.byte	0x7
 1983 05b9 7A02     		.2byte	0x27a
 1984 05bb E2000000 		.4byte	0xe2
 1985 05bf 03       		.byte	0x3
 1986 05c0 23       		.byte	0x23
 1987 05c1 B401     		.uleb128 0xb4
 1988 05c3 19       		.uleb128 0x19
 1989 05c4 62000000 		.4byte	.LASF84
 1990 05c8 07       		.byte	0x7
 1991 05c9 7B02     		.2byte	0x27b
 1992 05cb E2000000 		.4byte	0xe2
 1993 05cf 03       		.byte	0x3
 1994 05d0 23       		.byte	0x23
 1995 05d1 BC01     		.uleb128 0xbc
 1996 05d3 19       		.uleb128 0x19
 1997 05d4 71000000 		.4byte	.LASF85
 1998 05d8 07       		.byte	0x7
 1999 05d9 7C02     		.2byte	0x27c
 2000 05db E2000000 		.4byte	0xe2
 2001 05df 03       		.byte	0x3
 2002 05e0 23       		.byte	0x23
 2003 05e1 C401     		.uleb128 0xc4
 2004 05e3 00       		.byte	0x0
 2005 05e4 18       		.uleb128 0x18
 2006 05e5 28060000 		.4byte	.LASF24
 2007 05e9 F0       		.byte	0xf0
 2008 05ea 07       		.byte	0x7
 2009 05eb 8202     		.2byte	0x282
 2010 05ed 10060000 		.4byte	0x610
 2011 05f1 19       		.uleb128 0x19
 2012 05f2 20040000 		.4byte	.LASF86
 2013 05f6 07       		.byte	0x7
 2014 05f7 8402     		.2byte	0x284
 2015 05f9 E7080000 		.4byte	0x8e7
 2016 05fd 02       		.byte	0x2
 2017 05fe 23       		.byte	0x23
 2018 05ff 00       		.uleb128 0x0
 2019 0600 19       		.uleb128 0x19
 2020 0601 F1030000 		.4byte	.LASF87
 2021 0605 07       		.byte	0x7
 2022 0606 8502     		.2byte	0x285
 2023 0608 F7080000 		.4byte	0x8f7
 2024 060c 02       		.byte	0x2
 2025 060d 23       		.byte	0x23
 2026 060e 78       		.uleb128 0x78
 2027 060f 00       		.byte	0x0
 2028 0610 1A       		.uleb128 0x1a
 2029 0611 5C050000 		.4byte	.LASF66
 2030 0615 07       		.byte	0x7
 2031 0616 7D02     		.2byte	0x27d
 2032 0618 C0040000 		.4byte	0x4c0
 2033 061c 1A       		.uleb128 0x1a
ARM GAS  /cygdrive/c/Users/Chris/AppData/Local/Temp/cc7xwWEZ.s 			page 45


 2034 061d 9F060000 		.4byte	.LASF88
 2035 0621 07       		.byte	0x7
 2036 0622 8602     		.2byte	0x286
 2037 0624 E4050000 		.4byte	0x5e4
 2038 0628 00       		.byte	0x0
 2039 0629 19       		.uleb128 0x19
 2040 062a 88050000 		.4byte	.LASF89
 2041 062e 07       		.byte	0x7
 2042 062f 4C02     		.2byte	0x24c
 2043 0631 82000000 		.4byte	0x82
 2044 0635 02       		.byte	0x2
 2045 0636 23       		.byte	0x23
 2046 0637 00       		.uleb128 0x0
 2047 0638 19       		.uleb128 0x19
 2048 0639 AA010000 		.4byte	.LASF90
 2049 063d 07       		.byte	0x7
 2050 063e 5102     		.2byte	0x251
 2051 0640 66080000 		.4byte	0x866
 2052 0644 02       		.byte	0x2
 2053 0645 23       		.byte	0x23
 2054 0646 04       		.uleb128 0x4
 2055 0647 19       		.uleb128 0x19
 2056 0648 93020000 		.4byte	.LASF91
 2057 064c 07       		.byte	0x7
 2058 064d 5102     		.2byte	0x251
 2059 064f 66080000 		.4byte	0x866
 2060 0653 02       		.byte	0x2
 2061 0654 23       		.byte	0x23
 2062 0655 08       		.uleb128 0x8
 2063 0656 19       		.uleb128 0x19
 2064 0657 3A020000 		.4byte	.LASF92
 2065 065b 07       		.byte	0x7
 2066 065c 5102     		.2byte	0x251
 2067 065e 66080000 		.4byte	0x866
 2068 0662 02       		.byte	0x2
 2069 0663 23       		.byte	0x23
 2070 0664 0C       		.uleb128 0xc
 2071 0665 19       		.uleb128 0x19
 2072 0666 26050000 		.4byte	.LASF93
 2073 066a 07       		.byte	0x7
 2074 066b 5302     		.2byte	0x253
 2075 066d 82000000 		.4byte	0x82
 2076 0671 02       		.byte	0x2
 2077 0672 23       		.byte	0x23
 2078 0673 10       		.uleb128 0x10
 2079 0674 19       		.uleb128 0x19
 2080 0675 36000000 		.4byte	.LASF94
 2081 0679 07       		.byte	0x7
 2082 067a 5402     		.2byte	0x254
 2083 067c 07090000 		.4byte	0x907
 2084 0680 02       		.byte	0x2
 2085 0681 23       		.byte	0x23
 2086 0682 14       		.uleb128 0x14
 2087 0683 19       		.uleb128 0x19
 2088 0684 16060000 		.4byte	.LASF95
 2089 0688 07       		.byte	0x7
 2090 0689 5602     		.2byte	0x256
ARM GAS  /cygdrive/c/Users/Chris/AppData/Local/Temp/cc7xwWEZ.s 			page 46


 2091 068b 82000000 		.4byte	0x82
 2092 068f 02       		.byte	0x2
 2093 0690 23       		.byte	0x23
 2094 0691 30       		.uleb128 0x30
 2095 0692 19       		.uleb128 0x19
 2096 0693 30050000 		.4byte	.LASF96
 2097 0697 07       		.byte	0x7
 2098 0698 5702     		.2byte	0x257
 2099 069a AA070000 		.4byte	0x7aa
 2100 069e 02       		.byte	0x2
 2101 069f 23       		.byte	0x23
 2102 06a0 34       		.uleb128 0x34
 2103 06a1 19       		.uleb128 0x19
 2104 06a2 55040000 		.4byte	.LASF97
 2105 06a6 07       		.byte	0x7
 2106 06a7 5902     		.2byte	0x259
 2107 06a9 82000000 		.4byte	0x82
 2108 06ad 02       		.byte	0x2
 2109 06ae 23       		.byte	0x23
 2110 06af 38       		.uleb128 0x38
 2111 06b0 19       		.uleb128 0x19
 2112 06b1 4A050000 		.4byte	.LASF98
 2113 06b5 07       		.byte	0x7
 2114 06b6 5B02     		.2byte	0x25b
 2115 06b8 22090000 		.4byte	0x922
 2116 06bc 02       		.byte	0x2
 2117 06bd 23       		.byte	0x23
 2118 06be 3C       		.uleb128 0x3c
 2119 06bf 19       		.uleb128 0x19
 2120 06c0 65030000 		.4byte	.LASF99
 2121 06c4 07       		.byte	0x7
 2122 06c5 5E02     		.2byte	0x25e
 2123 06c7 B6010000 		.4byte	0x1b6
 2124 06cb 02       		.byte	0x2
 2125 06cc 23       		.byte	0x23
 2126 06cd 40       		.uleb128 0x40
 2127 06ce 19       		.uleb128 0x19
 2128 06cf 70020000 		.4byte	.LASF100
 2129 06d3 07       		.byte	0x7
 2130 06d4 5F02     		.2byte	0x25f
 2131 06d6 82000000 		.4byte	0x82
 2132 06da 02       		.byte	0x2
 2133 06db 23       		.byte	0x23
 2134 06dc 44       		.uleb128 0x44
 2135 06dd 19       		.uleb128 0x19
 2136 06de 06070000 		.4byte	.LASF101
 2137 06e2 07       		.byte	0x7
 2138 06e3 6002     		.2byte	0x260
 2139 06e5 B6010000 		.4byte	0x1b6
 2140 06e9 02       		.byte	0x2
 2141 06ea 23       		.byte	0x23
 2142 06eb 48       		.uleb128 0x48
 2143 06ec 19       		.uleb128 0x19
 2144 06ed 86040000 		.4byte	.LASF102
 2145 06f1 07       		.byte	0x7
 2146 06f2 6102     		.2byte	0x261
 2147 06f4 28090000 		.4byte	0x928
ARM GAS  /cygdrive/c/Users/Chris/AppData/Local/Temp/cc7xwWEZ.s 			page 47


 2148 06f8 02       		.byte	0x2
 2149 06f9 23       		.byte	0x23
 2150 06fa 4C       		.uleb128 0x4c
 2151 06fb 19       		.uleb128 0x19
 2152 06fc 9B020000 		.4byte	.LASF103
 2153 0700 07       		.byte	0x7
 2154 0701 6402     		.2byte	0x264
 2155 0703 82000000 		.4byte	0x82
 2156 0707 02       		.byte	0x2
 2157 0708 23       		.byte	0x23
 2158 0709 50       		.uleb128 0x50
 2159 070a 19       		.uleb128 0x19
 2160 070b EA010000 		.4byte	.LASF104
 2161 070f 07       		.byte	0x7
 2162 0710 6502     		.2byte	0x265
 2163 0712 79070000 		.4byte	0x779
 2164 0716 02       		.byte	0x2
 2165 0717 23       		.byte	0x23
 2166 0718 54       		.uleb128 0x54
 2167 0719 19       		.uleb128 0x19
 2168 071a D7040000 		.4byte	.LASF105
 2169 071e 07       		.byte	0x7
 2170 071f 8702     		.2byte	0x287
 2171 0721 B3040000 		.4byte	0x4b3
 2172 0725 02       		.byte	0x2
 2173 0726 23       		.byte	0x23
 2174 0727 58       		.uleb128 0x58
 2175 0728 19       		.uleb128 0x19
 2176 0729 4D040000 		.4byte	.LASF45
 2177 072d 07       		.byte	0x7
 2178 072e 8A02     		.2byte	0x28a
 2179 0730 F7020000 		.4byte	0x2f7
 2180 0734 03       		.byte	0x3
 2181 0735 23       		.byte	0x23
 2182 0736 C802     		.uleb128 0x148
 2183 0738 19       		.uleb128 0x19
 2184 0739 38030000 		.4byte	.LASF106
 2185 073d 07       		.byte	0x7
 2186 073e 8B02     		.2byte	0x28b
 2187 0740 B0020000 		.4byte	0x2b0
 2188 0744 03       		.byte	0x3
 2189 0745 23       		.byte	0x23
 2190 0746 CC02     		.uleb128 0x14c
 2191 0748 19       		.uleb128 0x19
 2192 0749 16030000 		.4byte	.LASF107
 2193 074d 07       		.byte	0x7
 2194 074e 8E02     		.2byte	0x28e
 2195 0750 39090000 		.4byte	0x939
 2196 0754 03       		.byte	0x3
 2197 0755 23       		.byte	0x23
 2198 0756 DC05     		.uleb128 0x2dc
 2199 0758 19       		.uleb128 0x19
 2200 0759 6E010000 		.4byte	.LASF108
 2201 075d 07       		.byte	0x7
 2202 075e 9302     		.2byte	0x293
 2203 0760 25080000 		.4byte	0x825
 2204 0764 03       		.byte	0x3
ARM GAS  /cygdrive/c/Users/Chris/AppData/Local/Temp/cc7xwWEZ.s 			page 48


 2205 0765 23       		.byte	0x23
 2206 0766 E005     		.uleb128 0x2e0
 2207 0768 19       		.uleb128 0x19
 2208 0769 1A010000 		.4byte	.LASF109
 2209 076d 07       		.byte	0x7
 2210 076e 9402     		.2byte	0x294
 2211 0770 45090000 		.4byte	0x945
 2212 0774 03       		.byte	0x3
 2213 0775 23       		.byte	0x23
 2214 0776 EC05     		.uleb128 0x2ec
 2215 0778 00       		.byte	0x0
 2216 0779 11       		.uleb128 0x11
 2217 077a 04       		.byte	0x4
 2218 077b 7F070000 		.4byte	0x77f
 2219 077f 02       		.uleb128 0x2
 2220 0780 01       		.byte	0x1
 2221 0781 08       		.byte	0x8
 2222 0782 8F050000 		.4byte	.LASF110
 2223 0786 11       		.uleb128 0x11
 2224 0787 04       		.byte	0x4
 2225 0788 81040000 		.4byte	0x481
 2226 078c 14       		.uleb128 0x14
 2227 078d 82000000 		.4byte	0x82
 2228 0791 AA070000 		.4byte	0x7aa
 2229 0795 15       		.uleb128 0x15
 2230 0796 9F040000 		.4byte	0x49f
 2231 079a 15       		.uleb128 0x15
 2232 079b BE000000 		.4byte	0xbe
 2233 079f 15       		.uleb128 0x15
 2234 07a0 AA070000 		.4byte	0x7aa
 2235 07a4 15       		.uleb128 0x15
 2236 07a5 82000000 		.4byte	0x82
 2237 07a9 00       		.byte	0x0
 2238 07aa 11       		.uleb128 0x11
 2239 07ab 04       		.byte	0x4
 2240 07ac B0070000 		.4byte	0x7b0
 2241 07b0 1B       		.uleb128 0x1b
 2242 07b1 7F070000 		.4byte	0x77f
 2243 07b5 11       		.uleb128 0x11
 2244 07b6 04       		.byte	0x4
 2245 07b7 8C070000 		.4byte	0x78c
 2246 07bb 14       		.uleb128 0x14
 2247 07bc CB000000 		.4byte	0xcb
 2248 07c0 D9070000 		.4byte	0x7d9
 2249 07c4 15       		.uleb128 0x15
 2250 07c5 9F040000 		.4byte	0x49f
 2251 07c9 15       		.uleb128 0x15
 2252 07ca BE000000 		.4byte	0xbe
 2253 07ce 15       		.uleb128 0x15
 2254 07cf CB000000 		.4byte	0xcb
 2255 07d3 15       		.uleb128 0x15
 2256 07d4 82000000 		.4byte	0x82
 2257 07d8 00       		.byte	0x0
 2258 07d9 11       		.uleb128 0x11
 2259 07da 04       		.byte	0x4
 2260 07db BB070000 		.4byte	0x7bb
 2261 07df 14       		.uleb128 0x14
ARM GAS  /cygdrive/c/Users/Chris/AppData/Local/Temp/cc7xwWEZ.s 			page 49


 2262 07e0 82000000 		.4byte	0x82
 2263 07e4 F3070000 		.4byte	0x7f3
 2264 07e8 15       		.uleb128 0x15
 2265 07e9 9F040000 		.4byte	0x49f
 2266 07ed 15       		.uleb128 0x15
 2267 07ee BE000000 		.4byte	0xbe
 2268 07f2 00       		.byte	0x0
 2269 07f3 11       		.uleb128 0x11
 2270 07f4 04       		.byte	0x4
 2271 07f5 DF070000 		.4byte	0x7df
 2272 07f9 0D       		.uleb128 0xd
 2273 07fa 3B000000 		.4byte	0x3b
 2274 07fe 09080000 		.4byte	0x809
 2275 0802 0E       		.uleb128 0xe
 2276 0803 3E010000 		.4byte	0x13e
 2277 0807 02       		.byte	0x2
 2278 0808 00       		.byte	0x0
 2279 0809 0D       		.uleb128 0xd
 2280 080a 3B000000 		.4byte	0x3b
 2281 080e 19080000 		.4byte	0x819
 2282 0812 0E       		.uleb128 0xe
 2283 0813 3E010000 		.4byte	0x13e
 2284 0817 00       		.byte	0x0
 2285 0818 00       		.byte	0x0
 2286 0819 08       		.uleb128 0x8
 2287 081a FF040000 		.4byte	.LASF111
 2288 081e 07       		.byte	0x7
 2289 081f 1001     		.2byte	0x110
 2290 0821 43030000 		.4byte	0x343
 2291 0825 18       		.uleb128 0x18
 2292 0826 64060000 		.4byte	.LASF112
 2293 082a 0C       		.byte	0xc
 2294 082b 07       		.byte	0x7
 2295 082c 1501     		.2byte	0x115
 2296 082e 60080000 		.4byte	0x860
 2297 0832 19       		.uleb128 0x19
 2298 0833 B3050000 		.4byte	.LASF26
 2299 0837 07       		.byte	0x7
 2300 0838 1601     		.2byte	0x116
 2301 083a 60080000 		.4byte	0x860
 2302 083e 02       		.byte	0x2
 2303 083f 23       		.byte	0x23
 2304 0840 00       		.uleb128 0x0
 2305 0841 19       		.uleb128 0x19
 2306 0842 FA020000 		.4byte	.LASF113
 2307 0846 07       		.byte	0x7
 2308 0847 1701     		.2byte	0x117
 2309 0849 82000000 		.4byte	0x82
 2310 084d 02       		.byte	0x2
 2311 084e 23       		.byte	0x23
 2312 084f 04       		.uleb128 0x4
 2313 0850 19       		.uleb128 0x19
 2314 0851 F9040000 		.4byte	.LASF114
 2315 0855 07       		.byte	0x7
 2316 0856 1801     		.2byte	0x118
 2317 0858 66080000 		.4byte	0x866
 2318 085c 02       		.byte	0x2
ARM GAS  /cygdrive/c/Users/Chris/AppData/Local/Temp/cc7xwWEZ.s 			page 50


 2319 085d 23       		.byte	0x23
 2320 085e 08       		.uleb128 0x8
 2321 085f 00       		.byte	0x0
 2322 0860 11       		.uleb128 0x11
 2323 0861 04       		.byte	0x4
 2324 0862 25080000 		.4byte	0x825
 2325 0866 11       		.uleb128 0x11
 2326 0867 04       		.byte	0x4
 2327 0868 19080000 		.4byte	0x819
 2328 086c 18       		.uleb128 0x18
 2329 086d 2E000000 		.4byte	.LASF115
 2330 0871 0E       		.byte	0xe
 2331 0872 07       		.byte	0x7
 2332 0873 3001     		.2byte	0x130
 2333 0875 A7080000 		.4byte	0x8a7
 2334 0879 19       		.uleb128 0x19
 2335 087a 63050000 		.4byte	.LASF116
 2336 087e 07       		.byte	0x7
 2337 087f 3101     		.2byte	0x131
 2338 0881 A7080000 		.4byte	0x8a7
 2339 0885 02       		.byte	0x2
 2340 0886 23       		.byte	0x23
 2341 0887 00       		.uleb128 0x0
 2342 0888 19       		.uleb128 0x19
 2343 0889 BE030000 		.4byte	.LASF117
 2344 088d 07       		.byte	0x7
 2345 088e 3201     		.2byte	0x132
 2346 0890 A7080000 		.4byte	0x8a7
 2347 0894 02       		.byte	0x2
 2348 0895 23       		.byte	0x23
 2349 0896 06       		.uleb128 0x6
 2350 0897 19       		.uleb128 0x19
 2351 0898 E6050000 		.4byte	.LASF118
 2352 089c 07       		.byte	0x7
 2353 089d 3301     		.2byte	0x133
 2354 089f 49000000 		.4byte	0x49
 2355 08a3 02       		.byte	0x2
 2356 08a4 23       		.byte	0x23
 2357 08a5 0C       		.uleb128 0xc
 2358 08a6 00       		.byte	0x0
 2359 08a7 0D       		.uleb128 0xd
 2360 08a8 49000000 		.4byte	0x49
 2361 08ac B7080000 		.4byte	0x8b7
 2362 08b0 0E       		.uleb128 0xe
 2363 08b1 3E010000 		.4byte	0x13e
 2364 08b5 02       		.byte	0x2
 2365 08b6 00       		.byte	0x0
 2366 08b7 0D       		.uleb128 0xd
 2367 08b8 7F070000 		.4byte	0x77f
 2368 08bc C7080000 		.4byte	0x8c7
 2369 08c0 0E       		.uleb128 0xe
 2370 08c1 3E010000 		.4byte	0x13e
 2371 08c5 19       		.byte	0x19
 2372 08c6 00       		.byte	0x0
 2373 08c7 0D       		.uleb128 0xd
 2374 08c8 7F070000 		.4byte	0x77f
 2375 08cc D7080000 		.4byte	0x8d7
ARM GAS  /cygdrive/c/Users/Chris/AppData/Local/Temp/cc7xwWEZ.s 			page 51


 2376 08d0 0E       		.uleb128 0xe
 2377 08d1 3E010000 		.4byte	0x13e
 2378 08d5 07       		.byte	0x7
 2379 08d6 00       		.byte	0x0
 2380 08d7 0D       		.uleb128 0xd
 2381 08d8 7F070000 		.4byte	0x77f
 2382 08dc E7080000 		.4byte	0x8e7
 2383 08e0 0E       		.uleb128 0xe
 2384 08e1 3E010000 		.4byte	0x13e
 2385 08e5 17       		.byte	0x17
 2386 08e6 00       		.byte	0x0
 2387 08e7 0D       		.uleb128 0xd
 2388 08e8 3D030000 		.4byte	0x33d
 2389 08ec F7080000 		.4byte	0x8f7
 2390 08f0 0E       		.uleb128 0xe
 2391 08f1 3E010000 		.4byte	0x13e
 2392 08f5 1D       		.byte	0x1d
 2393 08f6 00       		.byte	0x0
 2394 08f7 0D       		.uleb128 0xd
 2395 08f8 89000000 		.4byte	0x89
 2396 08fc 07090000 		.4byte	0x907
 2397 0900 0E       		.uleb128 0xe
 2398 0901 3E010000 		.4byte	0x13e
 2399 0905 1D       		.byte	0x1d
 2400 0906 00       		.byte	0x0
 2401 0907 0D       		.uleb128 0xd
 2402 0908 7F070000 		.4byte	0x77f
 2403 090c 17090000 		.4byte	0x917
 2404 0910 0E       		.uleb128 0xe
 2405 0911 3E010000 		.4byte	0x13e
 2406 0915 18       		.byte	0x18
 2407 0916 00       		.byte	0x0
 2408 0917 1C       		.uleb128 0x1c
 2409 0918 22090000 		.4byte	0x922
 2410 091c 15       		.uleb128 0x15
 2411 091d 9F040000 		.4byte	0x49f
 2412 0921 00       		.byte	0x0
 2413 0922 11       		.uleb128 0x11
 2414 0923 04       		.byte	0x4
 2415 0924 17090000 		.4byte	0x917
 2416 0928 11       		.uleb128 0x11
 2417 0929 04       		.byte	0x4
 2418 092a B6010000 		.4byte	0x1b6
 2419 092e 1C       		.uleb128 0x1c
 2420 092f 39090000 		.4byte	0x939
 2421 0933 15       		.uleb128 0x15
 2422 0934 82000000 		.4byte	0x82
 2423 0938 00       		.byte	0x0
 2424 0939 11       		.uleb128 0x11
 2425 093a 04       		.byte	0x4
 2426 093b 3F090000 		.4byte	0x93f
 2427 093f 11       		.uleb128 0x11
 2428 0940 04       		.byte	0x4
 2429 0941 2E090000 		.4byte	0x92e
 2430 0945 0D       		.uleb128 0xd
 2431 0946 19080000 		.4byte	0x819
 2432 094a 55090000 		.4byte	0x955
ARM GAS  /cygdrive/c/Users/Chris/AppData/Local/Temp/cc7xwWEZ.s 			page 52


 2433 094e 0E       		.uleb128 0xe
 2434 094f 3E010000 		.4byte	0x13e
 2435 0953 02       		.byte	0x2
 2436 0954 00       		.byte	0x0
 2437 0955 03       		.uleb128 0x3
 2438 0956 D3030000 		.4byte	.LASF119
 2439 095a 08       		.byte	0x8
 2440 095b 32       		.byte	0x32
 2441 095c 19080000 		.4byte	0x819
 2442 0960 02       		.uleb128 0x2
 2443 0961 08       		.byte	0x8
 2444 0962 04       		.byte	0x4
 2445 0963 D7010000 		.4byte	.LASF120
 2446 0967 02       		.uleb128 0x2
 2447 0968 04       		.byte	0x4
 2448 0969 04       		.byte	0x4
 2449 096a 80040000 		.4byte	.LASF121
 2450 096e 02       		.uleb128 0x2
 2451 096f 08       		.byte	0x8
 2452 0970 04       		.byte	0x4
 2453 0971 FA030000 		.4byte	.LASF122
 2454 0975 1D       		.uleb128 0x1d
 2455 0976 89000000 		.4byte	0x89
 2456 097a 03       		.uleb128 0x3
 2457 097b EE020000 		.4byte	.LASF123
 2458 097f 09       		.byte	0x9
 2459 0980 30       		.byte	0x30
 2460 0981 85090000 		.4byte	0x985
 2461 0985 0D       		.uleb128 0xd
 2462 0986 57000000 		.4byte	0x57
 2463 098a 95090000 		.4byte	0x995
 2464 098e 0E       		.uleb128 0xe
 2465 098f 3E010000 		.4byte	0x13e
 2466 0993 01       		.byte	0x1
 2467 0994 00       		.byte	0x0
 2468 0995 12       		.uleb128 0x12
 2469 0996 28060000 		.4byte	.LASF24
 2470 099a 2002     		.2byte	0x220
 2471 099c 01       		.byte	0x1
 2472 099d 47       		.byte	0x47
 2473 099e CD090000 		.4byte	0x9cd
 2474 09a2 0C       		.uleb128 0xc
 2475 09a3 AA040000 		.4byte	.LASF124
 2476 09a7 01       		.byte	0x1
 2477 09a8 48       		.byte	0x48
 2478 09a9 7A090000 		.4byte	0x97a
 2479 09ad 02       		.byte	0x2
 2480 09ae 23       		.byte	0x23
 2481 09af 00       		.uleb128 0x0
 2482 09b0 0C       		.uleb128 0xc
 2483 09b1 73030000 		.4byte	.LASF125
 2484 09b5 01       		.byte	0x1
 2485 09b6 49       		.byte	0x49
 2486 09b7 CD090000 		.4byte	0x9cd
 2487 09bb 02       		.byte	0x2
 2488 09bc 23       		.byte	0x23
 2489 09bd 08       		.uleb128 0x8
ARM GAS  /cygdrive/c/Users/Chris/AppData/Local/Temp/cc7xwWEZ.s 			page 53


 2490 09be 0C       		.uleb128 0xc
 2491 09bf 27040000 		.4byte	.LASF126
 2492 09c3 01       		.byte	0x1
 2493 09c4 4A       		.byte	0x4a
 2494 09c5 DD090000 		.4byte	0x9dd
 2495 09c9 02       		.byte	0x2
 2496 09ca 23       		.byte	0x23
 2497 09cb 20       		.uleb128 0x20
 2498 09cc 00       		.byte	0x0
 2499 09cd 0D       		.uleb128 0xd
 2500 09ce 30000000 		.4byte	0x30
 2501 09d2 DD090000 		.4byte	0x9dd
 2502 09d6 0E       		.uleb128 0xe
 2503 09d7 3E010000 		.4byte	0x13e
 2504 09db 17       		.byte	0x17
 2505 09dc 00       		.byte	0x0
 2506 09dd 0D       		.uleb128 0xd
 2507 09de 30000000 		.4byte	0x30
 2508 09e2 EE090000 		.4byte	0x9ee
 2509 09e6 1E       		.uleb128 0x1e
 2510 09e7 3E010000 		.4byte	0x13e
 2511 09eb FF01     		.2byte	0x1ff
 2512 09ed 00       		.byte	0x0
 2513 09ee 1F       		.uleb128 0x1f
 2514 09ef 01       		.byte	0x1
 2515 09f0 DE010000 		.4byte	.LASF127
 2516 09f4 01       		.byte	0x1
 2517 09f5 34       		.byte	0x34
 2518 09f6 82000000 		.4byte	0x82
 2519 09fa 00000000 		.4byte	.LFB2
 2520 09fe 08000000 		.4byte	.LFE2
 2521 0a02 01       		.byte	0x1
 2522 0a03 5D       		.byte	0x5d
 2523 0a04 250A0000 		.4byte	0xa25
 2524 0a08 20       		.uleb128 0x20
 2525 0a09 9F040000 		.4byte	0x49f
 2526 0a0d 01       		.byte	0x1
 2527 0a0e 50       		.byte	0x50
 2528 0a0f 20       		.uleb128 0x20
 2529 0a10 250A0000 		.4byte	0xa25
 2530 0a14 01       		.byte	0x1
 2531 0a15 51       		.byte	0x51
 2532 0a16 20       		.uleb128 0x20
 2533 0a17 AA070000 		.4byte	0x7aa
 2534 0a1b 01       		.byte	0x1
 2535 0a1c 52       		.byte	0x52
 2536 0a1d 20       		.uleb128 0x20
 2537 0a1e 9B000000 		.4byte	0x9b
 2538 0a22 01       		.byte	0x1
 2539 0a23 53       		.byte	0x53
 2540 0a24 00       		.byte	0x0
 2541 0a25 11       		.uleb128 0x11
 2542 0a26 04       		.byte	0x4
 2543 0a27 55090000 		.4byte	0x955
 2544 0a2b 1F       		.uleb128 0x1f
 2545 0a2c 01       		.byte	0x1
 2546 0a2d 40050000 		.4byte	.LASF128
ARM GAS  /cygdrive/c/Users/Chris/AppData/Local/Temp/cc7xwWEZ.s 			page 54


 2547 0a31 01       		.byte	0x1
 2548 0a32 35       		.byte	0x35
 2549 0a33 BE000000 		.4byte	0xbe
 2550 0a37 00000000 		.4byte	.LFB3
 2551 0a3b 08000000 		.4byte	.LFE3
 2552 0a3f 01       		.byte	0x1
 2553 0a40 5D       		.byte	0x5d
 2554 0a41 540A0000 		.4byte	0xa54
 2555 0a45 20       		.uleb128 0x20
 2556 0a46 9F040000 		.4byte	0x49f
 2557 0a4a 01       		.byte	0x1
 2558 0a4b 50       		.byte	0x50
 2559 0a4c 20       		.uleb128 0x20
 2560 0a4d 90000000 		.4byte	0x90
 2561 0a51 01       		.byte	0x1
 2562 0a52 51       		.byte	0x51
 2563 0a53 00       		.byte	0x0
 2564 0a54 21       		.uleb128 0x21
 2565 0a55 01       		.byte	0x1
 2566 0a56 B6040000 		.4byte	.LASF133
 2567 0a5a 01       		.byte	0x1
 2568 0a5b 36       		.byte	0x36
 2569 0a5c 00000000 		.4byte	.LFB4
 2570 0a60 04000000 		.4byte	.LFE4
 2571 0a64 01       		.byte	0x1
 2572 0a65 5D       		.byte	0x5d
 2573 0a66 790A0000 		.4byte	0xa79
 2574 0a6a 20       		.uleb128 0x20
 2575 0a6b 9F040000 		.4byte	0x49f
 2576 0a6f 01       		.byte	0x1
 2577 0a70 50       		.byte	0x50
 2578 0a71 20       		.uleb128 0x20
 2579 0a72 BE000000 		.4byte	0xbe
 2580 0a76 01       		.byte	0x1
 2581 0a77 51       		.byte	0x51
 2582 0a78 00       		.byte	0x0
 2583 0a79 1F       		.uleb128 0x1f
 2584 0a7a 01       		.byte	0x1
 2585 0a7b 7F010000 		.4byte	.LASF129
 2586 0a7f 01       		.byte	0x1
 2587 0a80 37       		.byte	0x37
 2588 0a81 BE000000 		.4byte	0xbe
 2589 0a85 00000000 		.4byte	.LFB5
 2590 0a89 08000000 		.4byte	.LFE5
 2591 0a8d 01       		.byte	0x1
 2592 0a8e 5D       		.byte	0x5d
 2593 0a8f A90A0000 		.4byte	0xaa9
 2594 0a93 20       		.uleb128 0x20
 2595 0a94 9F040000 		.4byte	0x49f
 2596 0a98 01       		.byte	0x1
 2597 0a99 50       		.byte	0x50
 2598 0a9a 20       		.uleb128 0x20
 2599 0a9b BE000000 		.4byte	0xbe
 2600 0a9f 01       		.byte	0x1
 2601 0aa0 51       		.byte	0x51
 2602 0aa1 20       		.uleb128 0x20
 2603 0aa2 90000000 		.4byte	0x90
ARM GAS  /cygdrive/c/Users/Chris/AppData/Local/Temp/cc7xwWEZ.s 			page 55


 2604 0aa6 01       		.byte	0x1
 2605 0aa7 52       		.byte	0x52
 2606 0aa8 00       		.byte	0x0
 2607 0aa9 1F       		.uleb128 0x1f
 2608 0aaa 01       		.byte	0x1
 2609 0aab C8060000 		.4byte	.LASF130
 2610 0aaf 01       		.byte	0x1
 2611 0ab0 38       		.byte	0x38
 2612 0ab1 BE000000 		.4byte	0xbe
 2613 0ab5 00000000 		.4byte	.LFB6
 2614 0ab9 08000000 		.4byte	.LFE6
 2615 0abd 01       		.byte	0x1
 2616 0abe 5D       		.byte	0x5d
 2617 0abf D20A0000 		.4byte	0xad2
 2618 0ac3 20       		.uleb128 0x20
 2619 0ac4 BE000000 		.4byte	0xbe
 2620 0ac8 01       		.byte	0x1
 2621 0ac9 50       		.byte	0x50
 2622 0aca 20       		.uleb128 0x20
 2623 0acb 90000000 		.4byte	0x90
 2624 0acf 01       		.byte	0x1
 2625 0ad0 51       		.byte	0x51
 2626 0ad1 00       		.byte	0x0
 2627 0ad2 1F       		.uleb128 0x1f
 2628 0ad3 01       		.byte	0x1
 2629 0ad4 A9030000 		.4byte	.LASF131
 2630 0ad8 01       		.byte	0x1
 2631 0ad9 39       		.byte	0x39
 2632 0ada BE000000 		.4byte	0xbe
 2633 0ade 00000000 		.4byte	.LFB7
 2634 0ae2 08000000 		.4byte	.LFE7
 2635 0ae6 01       		.byte	0x1
 2636 0ae7 5D       		.byte	0x5d
 2637 0ae8 020B0000 		.4byte	0xb02
 2638 0aec 20       		.uleb128 0x20
 2639 0aed 9F040000 		.4byte	0x49f
 2640 0af1 01       		.byte	0x1
 2641 0af2 50       		.byte	0x50
 2642 0af3 20       		.uleb128 0x20
 2643 0af4 90000000 		.4byte	0x90
 2644 0af8 01       		.byte	0x1
 2645 0af9 51       		.byte	0x51
 2646 0afa 20       		.uleb128 0x20
 2647 0afb 90000000 		.4byte	0x90
 2648 0aff 01       		.byte	0x1
 2649 0b00 52       		.byte	0x52
 2650 0b01 00       		.byte	0x0
 2651 0b02 1F       		.uleb128 0x1f
 2652 0b03 01       		.byte	0x1
 2653 0b04 0C000000 		.4byte	.LASF132
 2654 0b08 01       		.byte	0x1
 2655 0b09 3B       		.byte	0x3b
 2656 0b0a BE000000 		.4byte	0xbe
 2657 0b0e 00000000 		.4byte	.LFB8
 2658 0b12 08000000 		.4byte	.LFE8
 2659 0b16 01       		.byte	0x1
 2660 0b17 5D       		.byte	0x5d
ARM GAS  /cygdrive/c/Users/Chris/AppData/Local/Temp/cc7xwWEZ.s 			page 56


 2661 0b18 240B0000 		.4byte	0xb24
 2662 0b1c 20       		.uleb128 0x20
 2663 0b1d 90000000 		.4byte	0x90
 2664 0b21 01       		.byte	0x1
 2665 0b22 50       		.byte	0x50
 2666 0b23 00       		.byte	0x0
 2667 0b24 21       		.uleb128 0x21
 2668 0b25 01       		.byte	0x1
 2669 0b26 B7000000 		.4byte	.LASF134
 2670 0b2a 01       		.byte	0x1
 2671 0b2b 3C       		.byte	0x3c
 2672 0b2c 00000000 		.4byte	.LFB9
 2673 0b30 04000000 		.4byte	.LFE9
 2674 0b34 01       		.byte	0x1
 2675 0b35 5D       		.byte	0x5d
 2676 0b36 420B0000 		.4byte	0xb42
 2677 0b3a 20       		.uleb128 0x20
 2678 0b3b BE000000 		.4byte	0xbe
 2679 0b3f 01       		.byte	0x1
 2680 0b40 50       		.byte	0x50
 2681 0b41 00       		.byte	0x0
 2682 0b42 22       		.uleb128 0x22
 2683 0b43 3C010000 		.4byte	.LASF171
 2684 0b47 01       		.byte	0x1
 2685 0b48 01       		.byte	0x1
 2686 0b49 660B0000 		.4byte	0xb66
 2687 0b4d 23       		.uleb128 0x23
 2688 0b4e 5B020000 		.4byte	.LASF135
 2689 0b52 01       		.byte	0x1
 2690 0b53 CC01     		.2byte	0x1cc
 2691 0b55 82000000 		.4byte	0x82
 2692 0b59 23       		.uleb128 0x23
 2693 0b5a 0B070000 		.4byte	.LASF136
 2694 0b5e 01       		.byte	0x1
 2695 0b5f CC01     		.2byte	0x1cc
 2696 0b61 82000000 		.4byte	0x82
 2697 0b65 00       		.byte	0x0
 2698 0b66 24       		.uleb128 0x24
 2699 0b67 8B030000 		.4byte	.LASF172
 2700 0b6b 01       		.byte	0x1
 2701 0b6c 00000000 		.4byte	.LFB15
 2702 0b70 1C000000 		.4byte	.LFE15
 2703 0b74 01       		.byte	0x1
 2704 0b75 5D       		.byte	0x5d
 2705 0b76 960B0000 		.4byte	0xb96
 2706 0b7a 25       		.uleb128 0x25
 2707 0b7b 420B0000 		.4byte	0xb42
 2708 0b7f 00000000 		.4byte	.LBB4
 2709 0b83 10000000 		.4byte	.LBE4
 2710 0b87 01       		.byte	0x1
 2711 0b88 CC01     		.2byte	0x1cc
 2712 0b8a 26       		.uleb128 0x26
 2713 0b8b 590B0000 		.4byte	0xb59
 2714 0b8f 26       		.uleb128 0x26
 2715 0b90 4D0B0000 		.4byte	0xb4d
 2716 0b94 00       		.byte	0x0
 2717 0b95 00       		.byte	0x0
ARM GAS  /cygdrive/c/Users/Chris/AppData/Local/Temp/cc7xwWEZ.s 			page 57


 2718 0b96 27       		.uleb128 0x27
 2719 0b97 01       		.byte	0x1
 2720 0b98 06040000 		.4byte	.LASF173
 2721 0b9c 01       		.byte	0x1
 2722 0b9d A201     		.2byte	0x1a2
 2723 0b9f 8A010000 		.4byte	.LASF174
 2724 0ba3 7F070000 		.4byte	0x77f
 2725 0ba7 00000000 		.4byte	.LFB13
 2726 0bab 9C000000 		.4byte	.LFE13
 2727 0baf 00000000 		.4byte	.LLST9
 2728 0bb3 E60B0000 		.4byte	0xbe6
 2729 0bb7 28       		.uleb128 0x28
 2730 0bb8 20030000 		.4byte	.LASF137
 2731 0bbc 01       		.byte	0x1
 2732 0bbd A201     		.2byte	0x1a2
 2733 0bbf 89000000 		.4byte	0x89
 2734 0bc3 1F000000 		.4byte	.LLST10
 2735 0bc7 28       		.uleb128 0x28
 2736 0bc8 E9030000 		.4byte	.LASF138
 2737 0bcc 01       		.byte	0x1
 2738 0bcd A201     		.2byte	0x1a2
 2739 0bcf 3B000000 		.4byte	0x3b
 2740 0bd3 3D000000 		.4byte	.LLST11
 2741 0bd7 29       		.uleb128 0x29
 2742 0bd8 636E7400 		.ascii	"cnt\000"
 2743 0bdc 01       		.byte	0x1
 2744 0bdd A401     		.2byte	0x1a4
 2745 0bdf 89000000 		.4byte	0x89
 2746 0be3 01       		.byte	0x1
 2747 0be4 55       		.byte	0x55
 2748 0be5 00       		.byte	0x0
 2749 0be6 2A       		.uleb128 0x2a
 2750 0be7 01       		.byte	0x1
 2751 0be8 CE050000 		.4byte	.LASF139
 2752 0bec 01       		.byte	0x1
 2753 0bed 7601     		.2byte	0x176
 2754 0bef 2D010000 		.4byte	.LASF175
 2755 0bf3 00000000 		.4byte	.LFB12
 2756 0bf7 84000000 		.4byte	.LFE12
 2757 0bfb 66000000 		.4byte	.LLST12
 2758 0bff 760C0000 		.4byte	0xc76
 2759 0c03 28       		.uleb128 0x28
 2760 0c04 20030000 		.4byte	.LASF137
 2761 0c08 01       		.byte	0x1
 2762 0c09 7601     		.2byte	0x176
 2763 0c0b 89000000 		.4byte	0x89
 2764 0c0f 85000000 		.4byte	.LLST13
 2765 0c13 28       		.uleb128 0x28
 2766 0c14 E9030000 		.4byte	.LASF138
 2767 0c18 01       		.byte	0x1
 2768 0c19 7601     		.2byte	0x176
 2769 0c1b 3B000000 		.4byte	0x3b
 2770 0c1f A3000000 		.4byte	.LLST14
 2771 0c23 29       		.uleb128 0x29
 2772 0c24 636E7400 		.ascii	"cnt\000"
 2773 0c28 01       		.byte	0x1
 2774 0c29 7801     		.2byte	0x178
ARM GAS  /cygdrive/c/Users/Chris/AppData/Local/Temp/cc7xwWEZ.s 			page 58


 2775 0c2b 89000000 		.4byte	0x89
 2776 0c2f 01       		.byte	0x1
 2777 0c30 54       		.byte	0x54
 2778 0c31 2B       		.uleb128 0x2b
 2779 0c32 BE040000 		.4byte	.LASF140
 2780 0c36 01       		.byte	0x1
 2781 0c37 7D01     		.2byte	0x17d
 2782 0c39 89000000 		.4byte	0x89
 2783 0c3d 01       		.byte	0x1
 2784 0c3e 56       		.byte	0x56
 2785 0c3f 2B       		.uleb128 0x2b
 2786 0c40 6F040000 		.4byte	.LASF141
 2787 0c44 01       		.byte	0x1
 2788 0c45 7E01     		.2byte	0x17e
 2789 0c47 89000000 		.4byte	0x89
 2790 0c4b 01       		.byte	0x1
 2791 0c4c 55       		.byte	0x55
 2792 0c4d 2C       		.uleb128 0x2c
 2793 0c4e 18000000 		.4byte	.LBB8
 2794 0c52 44000000 		.4byte	.LBE8
 2795 0c56 2D       		.uleb128 0x2d
 2796 0c57 6200     		.ascii	"b\000"
 2797 0c59 01       		.byte	0x1
 2798 0c5a 8701     		.2byte	0x187
 2799 0c5c 3D030000 		.4byte	0x33d
 2800 0c60 C1000000 		.4byte	.LLST15
 2801 0c64 2E       		.uleb128 0x2e
 2802 0c65 21020000 		.4byte	.LASF142
 2803 0c69 01       		.byte	0x1
 2804 0c6a 8801     		.2byte	0x188
 2805 0c6c 3B000000 		.4byte	0x3b
 2806 0c70 D4000000 		.4byte	.LLST16
 2807 0c74 00       		.byte	0x0
 2808 0c75 00       		.byte	0x0
 2809 0c76 2F       		.uleb128 0x2f
 2810 0c77 01       		.byte	0x1
 2811 0c78 BB020000 		.4byte	.LASF143
 2812 0c7c 01       		.byte	0x1
 2813 0c7d B0       		.byte	0xb0
 2814 0c7e CC020000 		.4byte	.LASF176
 2815 0c82 00000000 		.4byte	.LFB11
 2816 0c86 80030000 		.4byte	.LFE11
 2817 0c8a E7000000 		.4byte	.LLST17
 2818 0c8e F50C0000 		.4byte	0xcf5
 2819 0c92 30       		.uleb128 0x30
 2820 0c93 E2020000 		.4byte	.LASF144
 2821 0c97 01       		.byte	0x1
 2822 0c98 B0       		.byte	0xb0
 2823 0c99 7F070000 		.4byte	0x77f
 2824 0c9d 06010000 		.4byte	.LLST18
 2825 0ca1 31       		.uleb128 0x31
 2826 0ca2 00000000 		.4byte	.Ldebug_ranges0+0x0
 2827 0ca6 C50C0000 		.4byte	0xcc5
 2828 0caa 32       		.uleb128 0x32
 2829 0cab 94050000 		.4byte	.LASF145
 2830 0caf 01       		.byte	0x1
 2831 0cb0 F1       		.byte	0xf1
ARM GAS  /cygdrive/c/Users/Chris/AppData/Local/Temp/cc7xwWEZ.s 			page 59


 2832 0cb1 89000000 		.4byte	0x89
 2833 0cb5 19010000 		.4byte	.LLST19
 2834 0cb9 33       		.uleb128 0x33
 2835 0cba E9030000 		.4byte	.LASF138
 2836 0cbe 01       		.byte	0x1
 2837 0cbf F2       		.byte	0xf2
 2838 0cc0 3B000000 		.4byte	0x3b
 2839 0cc4 00       		.byte	0x0
 2840 0cc5 2C       		.uleb128 0x2c
 2841 0cc6 BC010000 		.4byte	.LBB11
 2842 0cca F0010000 		.4byte	.LBE11
 2843 0cce 32       		.uleb128 0x32
 2844 0ccf 94050000 		.4byte	.LASF145
 2845 0cd3 01       		.byte	0x1
 2846 0cd4 E0       		.byte	0xe0
 2847 0cd5 89000000 		.4byte	0x89
 2848 0cd9 4D010000 		.4byte	.LLST20
 2849 0cdd 33       		.uleb128 0x33
 2850 0cde E9030000 		.4byte	.LASF138
 2851 0ce2 01       		.byte	0x1
 2852 0ce3 E1       		.byte	0xe1
 2853 0ce4 3B000000 		.4byte	0x3b
 2854 0ce8 34       		.uleb128 0x34
 2855 0ce9 72657300 		.ascii	"res\000"
 2856 0ced 01       		.byte	0x1
 2857 0cee E2       		.byte	0xe2
 2858 0cef 3B000000 		.4byte	0x3b
 2859 0cf3 00       		.byte	0x0
 2860 0cf4 00       		.byte	0x0
 2861 0cf5 35       		.uleb128 0x35
 2862 0cf6 01       		.byte	0x1
 2863 0cf7 16070000 		.4byte	.LASF146
 2864 0cfb 01       		.byte	0x1
 2865 0cfc 71       		.byte	0x71
 2866 0cfd 82000000 		.4byte	0x82
 2867 0d01 00000000 		.4byte	.LFB10
 2868 0d05 3C000000 		.4byte	.LFE10
 2869 0d09 76010000 		.4byte	.LLST21
 2870 0d0d 1D0D0000 		.4byte	0xd1d
 2871 0d11 36       		.uleb128 0x36
 2872 0d12 7800     		.ascii	"x\000"
 2873 0d14 01       		.byte	0x1
 2874 0d15 76       		.byte	0x76
 2875 0d16 82000000 		.4byte	0x82
 2876 0d1a 01       		.byte	0x1
 2877 0d1b 54       		.byte	0x54
 2878 0d1c 00       		.byte	0x0
 2879 0d1d 0D       		.uleb128 0xd
 2880 0d1e 89000000 		.4byte	0x89
 2881 0d22 280D0000 		.4byte	0xd28
 2882 0d26 37       		.uleb128 0x37
 2883 0d27 00       		.byte	0x0
 2884 0d28 38       		.uleb128 0x38
 2885 0d29 7C060000 		.4byte	.LASF147
 2886 0d2d 0A       		.byte	0xa
 2887 0d2e 14       		.byte	0x14
 2888 0d2f 1D0D0000 		.4byte	0xd1d
ARM GAS  /cygdrive/c/Users/Chris/AppData/Local/Temp/cc7xwWEZ.s 			page 60


 2889 0d33 01       		.byte	0x1
 2890 0d34 01       		.byte	0x1
 2891 0d35 39       		.uleb128 0x39
 2892 0d36 4A020000 		.4byte	.LASF148
 2893 0d3a 01       		.byte	0x1
 2894 0d3b 51       		.byte	0x51
 2895 0d3c 3B000000 		.4byte	0x3b
 2896 0d40 01       		.byte	0x1
 2897 0d41 05       		.byte	0x5
 2898 0d42 03       		.byte	0x3
 2899 0d43 00000000 		.4byte	kConfigMemLength
 2900 0d47 39       		.uleb128 0x39
 2901 0d48 F3050000 		.4byte	.LASF149
 2902 0d4c 01       		.byte	0x1
 2903 0d4d 52       		.byte	0x52
 2904 0d4e 3D030000 		.4byte	0x33d
 2905 0d52 01       		.byte	0x1
 2906 0d53 05       		.byte	0x5
 2907 0d54 03       		.byte	0x3
 2908 0d55 00000000 		.4byte	kApplicationStartAddr
 2909 0d59 39       		.uleb128 0x39
 2910 0d5a 07010000 		.4byte	.LASF150
 2911 0d5e 01       		.byte	0x1
 2912 0d5f 54       		.byte	0x54
 2913 0d60 3D030000 		.4byte	0x33d
 2914 0d64 01       		.byte	0x1
 2915 0d65 05       		.byte	0x5
 2916 0d66 03       		.byte	0x3
 2917 0d67 00000000 		.4byte	gAddress
 2918 0d6b 39       		.uleb128 0x39
 2919 0d6c 2F040000 		.4byte	.LASF151
 2920 0d70 01       		.byte	0x1
 2921 0d71 55       		.byte	0x55
 2922 0d72 3D030000 		.4byte	0x33d
 2923 0d76 01       		.byte	0x1
 2924 0d77 05       		.byte	0x5
 2925 0d78 03       		.byte	0x3
 2926 0d79 00000000 		.4byte	gAddressPgm
 2927 0d7d 0D       		.uleb128 0xd
 2928 0d7e 3B000000 		.4byte	0x3b
 2929 0d82 8E0D0000 		.4byte	0xd8e
 2930 0d86 1E       		.uleb128 0x1e
 2931 0d87 3E010000 		.4byte	0x13e
 2932 0d8b FF01     		.2byte	0x1ff
 2933 0d8d 00       		.byte	0x0
 2934 0d8e 39       		.uleb128 0x39
 2935 0d8f 83030000 		.4byte	.LASF152
 2936 0d93 01       		.byte	0x1
 2937 0d94 56       		.byte	0x56
 2938 0d95 7D0D0000 		.4byte	0xd7d
 2939 0d99 01       		.byte	0x1
 2940 0d9a 05       		.byte	0x5
 2941 0d9b 03       		.byte	0x3
 2942 0d9c 00000000 		.4byte	gBuffer
 2943 0da0 39       		.uleb128 0x39
 2944 0da1 5A030000 		.4byte	.LASF153
 2945 0da5 01       		.byte	0x1
ARM GAS  /cygdrive/c/Users/Chris/AppData/Local/Temp/cc7xwWEZ.s 			page 61


 2946 0da6 57       		.byte	0x57
 2947 0da7 95090000 		.4byte	0x995
 2948 0dab 01       		.byte	0x1
 2949 0dac 05       		.byte	0x5
 2950 0dad 03       		.byte	0x3
 2951 0dae 00000000 		.4byte	gConfigMem
 2952 0db2 39       		.uleb128 0x39
 2953 0db3 90040000 		.4byte	.LASF154
 2954 0db7 01       		.byte	0x1
 2955 0db8 59       		.byte	0x59
 2956 0db9 3B000000 		.4byte	0x3b
 2957 0dbd 01       		.byte	0x1
 2958 0dbe 05       		.byte	0x5
 2959 0dbf 03       		.byte	0x3
 2960 0dc0 00000000 		.4byte	gDevice
 2961 0dc4 39       		.uleb128 0x39
 2962 0dc5 3B040000 		.4byte	.LASF155
 2963 0dc9 01       		.byte	0x1
 2964 0dca 5A       		.byte	0x5a
 2965 0dcb 3B000000 		.4byte	0x3b
 2966 0dcf 01       		.byte	0x1
 2967 0dd0 05       		.byte	0x5
 2968 0dd1 03       		.byte	0x3
 2969 0dd2 00000000 		.4byte	gDevType
 2970 0dd6 39       		.uleb128 0x39
 2971 0dd7 48060000 		.4byte	.LASF156
 2972 0ddb 01       		.byte	0x1
 2973 0ddc 5B       		.byte	0x5b
 2974 0ddd 7F070000 		.4byte	0x77f
 2975 0de1 01       		.byte	0x1
 2976 0de2 05       		.byte	0x5
 2977 0de3 03       		.byte	0x3
 2978 0de4 00000000 		.4byte	gRecvCommand
 2979 0de8 39       		.uleb128 0x39
 2980 0de9 A2000000 		.4byte	.LASF157
 2981 0ded 01       		.byte	0x1
 2982 0dee 5C       		.byte	0x5c
 2983 0def 75090000 		.4byte	0x975
 2984 0df3 01       		.byte	0x1
 2985 0df4 05       		.byte	0x5
 2986 0df5 03       		.byte	0x3
 2987 0df6 00000000 		.4byte	purge
 2988 0dfa 3A       		.uleb128 0x3a
 2989 0dfb CE010000 		.4byte	.LASF158
 2990 0dff 01       		.byte	0x1
 2991 0e00 5E       		.byte	0x5e
 2992 0e01 7A090000 		.4byte	0x97a
 2993 0e05 05       		.byte	0x5
 2994 0e06 03       		.byte	0x3
 2995 0e07 00000000 		.4byte	_ZL8gRunning
 2996 0e0b 39       		.uleb128 0x39
 2997 0e0c B1010000 		.4byte	.LASF159
 2998 0e10 01       		.byte	0x1
 2999 0e11 5F       		.byte	0x5f
 3000 0e12 1D0E0000 		.4byte	0xe1d
 3001 0e16 01       		.byte	0x1
 3002 0e17 05       		.byte	0x5
ARM GAS  /cygdrive/c/Users/Chris/AppData/Local/Temp/cc7xwWEZ.s 			page 62


 3003 0e18 03       		.byte	0x3
 3004 0e19 00000000 		.4byte	gConfigCs
 3005 0e1d 11       		.uleb128 0x11
 3006 0e1e 04       		.byte	0x4
 3007 0e1f 85090000 		.4byte	0x985
 3008 0e23 39       		.uleb128 0x39
 3009 0e24 01030000 		.4byte	.LASF160
 3010 0e28 01       		.byte	0x1
 3011 0e29 60       		.byte	0x60
 3012 0e2a 350E0000 		.4byte	0xe35
 3013 0e2e 01       		.byte	0x1
 3014 0e2f 05       		.byte	0x5
 3015 0e30 03       		.byte	0x3
 3016 0e31 00000000 		.4byte	gSFBootValidChecksum
 3017 0e35 02       		.uleb128 0x2
 3018 0e36 01       		.byte	0x1
 3019 0e37 02       		.byte	0x2
 3020 0e38 B3030000 		.4byte	.LASF161
 3021 0e3c 39       		.uleb128 0x39
 3022 0e3d C4030000 		.4byte	.LASF162
 3023 0e41 01       		.byte	0x1
 3024 0e42 61       		.byte	0x61
 3025 0e43 0E030000 		.4byte	0x30e
 3026 0e47 01       		.byte	0x1
 3027 0e48 05       		.byte	0x5
 3028 0e49 03       		.byte	0x3
 3029 0e4a 00000000 		.4byte	app_code_entry
 3030 0e4e 39       		.uleb128 0x39
 3031 0e4f AE050000 		.4byte	.LASF163
 3032 0e53 01       		.byte	0x1
 3033 0e54 6A       		.byte	0x6a
 3034 0e55 70000000 		.4byte	0x70
 3035 0e59 01       		.byte	0x1
 3036 0e5a 05       		.byte	0x5
 3037 0e5b 03       		.byte	0x3
 3038 0e5c 00000000 		.4byte	wait
 3039 0e60 3B       		.uleb128 0x3b
 3040 0e61 70696E00 		.ascii	"pin\000"
 3041 0e65 01       		.byte	0x1
 3042 0e66 6B       		.byte	0x6b
 3043 0e67 30000000 		.4byte	0x30
 3044 0e6b 01       		.byte	0x1
 3045 0e6c 05       		.byte	0x5
 3046 0e6d 03       		.byte	0x3
 3047 0e6e 00000000 		.4byte	pin
 3048 0e72 3B       		.uleb128 0x3b
 3049 0e73 7800     		.ascii	"x\000"
 3050 0e75 01       		.byte	0x1
 3051 0e76 6C       		.byte	0x6c
 3052 0e77 30000000 		.4byte	0x30
 3053 0e7b 01       		.byte	0x1
 3054 0e7c 05       		.byte	0x5
 3055 0e7d 03       		.byte	0x3
 3056 0e7e 00000000 		.4byte	x
 3057 0e82 39       		.uleb128 0x39
 3058 0e83 7B040000 		.4byte	.LASF164
 3059 0e87 01       		.byte	0x1
ARM GAS  /cygdrive/c/Users/Chris/AppData/Local/Temp/cc7xwWEZ.s 			page 63


 3060 0e88 6D       		.byte	0x6d
 3061 0e89 30000000 		.4byte	0x30
 3062 0e8d 01       		.byte	0x1
 3063 0e8e 05       		.byte	0x5
 3064 0e8f 03       		.byte	0x3
 3065 0e90 00000000 		.4byte	uart
 3066 0e94 39       		.uleb128 0x39
 3067 0e95 A8050000 		.4byte	.LASF165
 3068 0e99 01       		.byte	0x1
 3069 0e9a 6E       		.byte	0x6e
 3070 0e9b 30000000 		.4byte	0x30
 3071 0e9f 01       		.byte	0x1
 3072 0ea0 05       		.byte	0x5
 3073 0ea1 03       		.byte	0x3
 3074 0ea2 00000000 		.4byte	index
 3075 0ea6 39       		.uleb128 0x39
 3076 0ea7 19000000 		.4byte	.LASF166
 3077 0eab 01       		.byte	0x1
 3078 0eac 6F       		.byte	0x6f
 3079 0ead 350E0000 		.4byte	0xe35
 3080 0eb1 01       		.byte	0x1
 3081 0eb2 05       		.byte	0x5
 3082 0eb3 03       		.byte	0x3
 3083 0eb4 00000000 		.4byte	gGotFirstPage
 3084 0eb8 00       		.byte	0x0
 3085              		.section	.debug_abbrev
 3086 0000 01       		.uleb128 0x1
 3087 0001 11       		.uleb128 0x11
 3088 0002 01       		.byte	0x1
 3089 0003 25       		.uleb128 0x25
 3090 0004 0E       		.uleb128 0xe
 3091 0005 13       		.uleb128 0x13
 3092 0006 0B       		.uleb128 0xb
 3093 0007 03       		.uleb128 0x3
 3094 0008 0E       		.uleb128 0xe
 3095 0009 1B       		.uleb128 0x1b
 3096 000a 0E       		.uleb128 0xe
 3097 000b 11       		.uleb128 0x11
 3098 000c 01       		.uleb128 0x1
 3099 000d 52       		.uleb128 0x52
 3100 000e 01       		.uleb128 0x1
 3101 000f 55       		.uleb128 0x55
 3102 0010 06       		.uleb128 0x6
 3103 0011 10       		.uleb128 0x10
 3104 0012 06       		.uleb128 0x6
 3105 0013 00       		.byte	0x0
 3106 0014 00       		.byte	0x0
 3107 0015 02       		.uleb128 0x2
 3108 0016 24       		.uleb128 0x24
 3109 0017 00       		.byte	0x0
 3110 0018 0B       		.uleb128 0xb
 3111 0019 0B       		.uleb128 0xb
 3112 001a 3E       		.uleb128 0x3e
 3113 001b 0B       		.uleb128 0xb
 3114 001c 03       		.uleb128 0x3
 3115 001d 0E       		.uleb128 0xe
 3116 001e 00       		.byte	0x0
ARM GAS  /cygdrive/c/Users/Chris/AppData/Local/Temp/cc7xwWEZ.s 			page 64


 3117 001f 00       		.byte	0x0
 3118 0020 03       		.uleb128 0x3
 3119 0021 16       		.uleb128 0x16
 3120 0022 00       		.byte	0x0
 3121 0023 03       		.uleb128 0x3
 3122 0024 0E       		.uleb128 0xe
 3123 0025 3A       		.uleb128 0x3a
 3124 0026 0B       		.uleb128 0xb
 3125 0027 3B       		.uleb128 0x3b
 3126 0028 0B       		.uleb128 0xb
 3127 0029 49       		.uleb128 0x49
 3128 002a 13       		.uleb128 0x13
 3129 002b 00       		.byte	0x0
 3130 002c 00       		.byte	0x0
 3131 002d 04       		.uleb128 0x4
 3132 002e 24       		.uleb128 0x24
 3133 002f 00       		.byte	0x0
 3134 0030 0B       		.uleb128 0xb
 3135 0031 0B       		.uleb128 0xb
 3136 0032 3E       		.uleb128 0x3e
 3137 0033 0B       		.uleb128 0xb
 3138 0034 03       		.uleb128 0x3
 3139 0035 08       		.uleb128 0x8
 3140 0036 00       		.byte	0x0
 3141 0037 00       		.byte	0x0
 3142 0038 05       		.uleb128 0x5
 3143 0039 13       		.uleb128 0x13
 3144 003a 01       		.byte	0x1
 3145 003b 03       		.uleb128 0x3
 3146 003c 0E       		.uleb128 0xe
 3147 003d 0B       		.uleb128 0xb
 3148 003e 0B       		.uleb128 0xb
 3149 003f 01       		.uleb128 0x1
 3150 0040 13       		.uleb128 0x13
 3151 0041 00       		.byte	0x0
 3152 0042 00       		.byte	0x0
 3153 0043 06       		.uleb128 0x6
 3154 0044 0D       		.uleb128 0xd
 3155 0045 00       		.byte	0x0
 3156 0046 03       		.uleb128 0x3
 3157 0047 0E       		.uleb128 0xe
 3158 0048 49       		.uleb128 0x49
 3159 0049 13       		.uleb128 0x13
 3160 004a 38       		.uleb128 0x38
 3161 004b 0A       		.uleb128 0xa
 3162 004c 34       		.uleb128 0x34
 3163 004d 0C       		.uleb128 0xc
 3164 004e 00       		.byte	0x0
 3165 004f 00       		.byte	0x0
 3166 0050 07       		.uleb128 0x7
 3167 0051 0F       		.uleb128 0xf
 3168 0052 00       		.byte	0x0
 3169 0053 0B       		.uleb128 0xb
 3170 0054 0B       		.uleb128 0xb
 3171 0055 00       		.byte	0x0
 3172 0056 00       		.byte	0x0
 3173 0057 08       		.uleb128 0x8
ARM GAS  /cygdrive/c/Users/Chris/AppData/Local/Temp/cc7xwWEZ.s 			page 65


 3174 0058 16       		.uleb128 0x16
 3175 0059 00       		.byte	0x0
 3176 005a 03       		.uleb128 0x3
 3177 005b 0E       		.uleb128 0xe
 3178 005c 3A       		.uleb128 0x3a
 3179 005d 0B       		.uleb128 0xb
 3180 005e 3B       		.uleb128 0x3b
 3181 005f 05       		.uleb128 0x5
 3182 0060 49       		.uleb128 0x49
 3183 0061 13       		.uleb128 0x13
 3184 0062 00       		.byte	0x0
 3185 0063 00       		.byte	0x0
 3186 0064 09       		.uleb128 0x9
 3187 0065 13       		.uleb128 0x13
 3188 0066 01       		.byte	0x1
 3189 0067 03       		.uleb128 0x3
 3190 0068 0E       		.uleb128 0xe
 3191 0069 0B       		.uleb128 0xb
 3192 006a 0B       		.uleb128 0xb
 3193 006b 3A       		.uleb128 0x3a
 3194 006c 0B       		.uleb128 0xb
 3195 006d 3B       		.uleb128 0x3b
 3196 006e 0B       		.uleb128 0xb
 3197 006f 01       		.uleb128 0x1
 3198 0070 13       		.uleb128 0x13
 3199 0071 00       		.byte	0x0
 3200 0072 00       		.byte	0x0
 3201 0073 0A       		.uleb128 0xa
 3202 0074 17       		.uleb128 0x17
 3203 0075 01       		.byte	0x1
 3204 0076 03       		.uleb128 0x3
 3205 0077 0E       		.uleb128 0xe
 3206 0078 0B       		.uleb128 0xb
 3207 0079 0B       		.uleb128 0xb
 3208 007a 3A       		.uleb128 0x3a
 3209 007b 0B       		.uleb128 0xb
 3210 007c 3B       		.uleb128 0x3b
 3211 007d 0B       		.uleb128 0xb
 3212 007e 01       		.uleb128 0x1
 3213 007f 13       		.uleb128 0x13
 3214 0080 00       		.byte	0x0
 3215 0081 00       		.byte	0x0
 3216 0082 0B       		.uleb128 0xb
 3217 0083 0D       		.uleb128 0xd
 3218 0084 00       		.byte	0x0
 3219 0085 03       		.uleb128 0x3
 3220 0086 0E       		.uleb128 0xe
 3221 0087 3A       		.uleb128 0x3a
 3222 0088 0B       		.uleb128 0xb
 3223 0089 3B       		.uleb128 0x3b
 3224 008a 0B       		.uleb128 0xb
 3225 008b 49       		.uleb128 0x49
 3226 008c 13       		.uleb128 0x13
 3227 008d 00       		.byte	0x0
 3228 008e 00       		.byte	0x0
 3229 008f 0C       		.uleb128 0xc
 3230 0090 0D       		.uleb128 0xd
ARM GAS  /cygdrive/c/Users/Chris/AppData/Local/Temp/cc7xwWEZ.s 			page 66


 3231 0091 00       		.byte	0x0
 3232 0092 03       		.uleb128 0x3
 3233 0093 0E       		.uleb128 0xe
 3234 0094 3A       		.uleb128 0x3a
 3235 0095 0B       		.uleb128 0xb
 3236 0096 3B       		.uleb128 0x3b
 3237 0097 0B       		.uleb128 0xb
 3238 0098 49       		.uleb128 0x49
 3239 0099 13       		.uleb128 0x13
 3240 009a 38       		.uleb128 0x38
 3241 009b 0A       		.uleb128 0xa
 3242 009c 00       		.byte	0x0
 3243 009d 00       		.byte	0x0
 3244 009e 0D       		.uleb128 0xd
 3245 009f 01       		.uleb128 0x1
 3246 00a0 01       		.byte	0x1
 3247 00a1 49       		.uleb128 0x49
 3248 00a2 13       		.uleb128 0x13
 3249 00a3 01       		.uleb128 0x1
 3250 00a4 13       		.uleb128 0x13
 3251 00a5 00       		.byte	0x0
 3252 00a6 00       		.byte	0x0
 3253 00a7 0E       		.uleb128 0xe
 3254 00a8 21       		.uleb128 0x21
 3255 00a9 00       		.byte	0x0
 3256 00aa 49       		.uleb128 0x49
 3257 00ab 13       		.uleb128 0x13
 3258 00ac 2F       		.uleb128 0x2f
 3259 00ad 0B       		.uleb128 0xb
 3260 00ae 00       		.byte	0x0
 3261 00af 00       		.byte	0x0
 3262 00b0 0F       		.uleb128 0xf
 3263 00b1 24       		.uleb128 0x24
 3264 00b2 00       		.byte	0x0
 3265 00b3 0B       		.uleb128 0xb
 3266 00b4 0B       		.uleb128 0xb
 3267 00b5 3E       		.uleb128 0x3e
 3268 00b6 0B       		.uleb128 0xb
 3269 00b7 00       		.byte	0x0
 3270 00b8 00       		.byte	0x0
 3271 00b9 10       		.uleb128 0x10
 3272 00ba 0D       		.uleb128 0xd
 3273 00bb 00       		.byte	0x0
 3274 00bc 03       		.uleb128 0x3
 3275 00bd 08       		.uleb128 0x8
 3276 00be 3A       		.uleb128 0x3a
 3277 00bf 0B       		.uleb128 0xb
 3278 00c0 3B       		.uleb128 0x3b
 3279 00c1 0B       		.uleb128 0xb
 3280 00c2 49       		.uleb128 0x49
 3281 00c3 13       		.uleb128 0x13
 3282 00c4 38       		.uleb128 0x38
 3283 00c5 0A       		.uleb128 0xa
 3284 00c6 00       		.byte	0x0
 3285 00c7 00       		.byte	0x0
 3286 00c8 11       		.uleb128 0x11
 3287 00c9 0F       		.uleb128 0xf
ARM GAS  /cygdrive/c/Users/Chris/AppData/Local/Temp/cc7xwWEZ.s 			page 67


 3288 00ca 00       		.byte	0x0
 3289 00cb 0B       		.uleb128 0xb
 3290 00cc 0B       		.uleb128 0xb
 3291 00cd 49       		.uleb128 0x49
 3292 00ce 13       		.uleb128 0x13
 3293 00cf 00       		.byte	0x0
 3294 00d0 00       		.byte	0x0
 3295 00d1 12       		.uleb128 0x12
 3296 00d2 13       		.uleb128 0x13
 3297 00d3 01       		.byte	0x1
 3298 00d4 03       		.uleb128 0x3
 3299 00d5 0E       		.uleb128 0xe
 3300 00d6 0B       		.uleb128 0xb
 3301 00d7 05       		.uleb128 0x5
 3302 00d8 3A       		.uleb128 0x3a
 3303 00d9 0B       		.uleb128 0xb
 3304 00da 3B       		.uleb128 0x3b
 3305 00db 0B       		.uleb128 0xb
 3306 00dc 01       		.uleb128 0x1
 3307 00dd 13       		.uleb128 0x13
 3308 00de 00       		.byte	0x0
 3309 00df 00       		.byte	0x0
 3310 00e0 13       		.uleb128 0x13
 3311 00e1 15       		.uleb128 0x15
 3312 00e2 00       		.byte	0x0
 3313 00e3 00       		.byte	0x0
 3314 00e4 00       		.byte	0x0
 3315 00e5 14       		.uleb128 0x14
 3316 00e6 15       		.uleb128 0x15
 3317 00e7 01       		.byte	0x1
 3318 00e8 49       		.uleb128 0x49
 3319 00e9 13       		.uleb128 0x13
 3320 00ea 01       		.uleb128 0x1
 3321 00eb 13       		.uleb128 0x13
 3322 00ec 00       		.byte	0x0
 3323 00ed 00       		.byte	0x0
 3324 00ee 15       		.uleb128 0x15
 3325 00ef 05       		.uleb128 0x5
 3326 00f0 00       		.byte	0x0
 3327 00f1 49       		.uleb128 0x49
 3328 00f2 13       		.uleb128 0x13
 3329 00f3 00       		.byte	0x0
 3330 00f4 00       		.byte	0x0
 3331 00f5 16       		.uleb128 0x16
 3332 00f6 13       		.uleb128 0x13
 3333 00f7 01       		.byte	0x1
 3334 00f8 03       		.uleb128 0x3
 3335 00f9 0E       		.uleb128 0xe
 3336 00fa 0B       		.uleb128 0xb
 3337 00fb 05       		.uleb128 0x5
 3338 00fc 3A       		.uleb128 0x3a
 3339 00fd 0B       		.uleb128 0xb
 3340 00fe 3B       		.uleb128 0x3b
 3341 00ff 05       		.uleb128 0x5
 3342 0100 01       		.uleb128 0x1
 3343 0101 13       		.uleb128 0x13
 3344 0102 00       		.byte	0x0
ARM GAS  /cygdrive/c/Users/Chris/AppData/Local/Temp/cc7xwWEZ.s 			page 68


 3345 0103 00       		.byte	0x0
 3346 0104 17       		.uleb128 0x17
 3347 0105 17       		.uleb128 0x17
 3348 0106 01       		.byte	0x1
 3349 0107 03       		.uleb128 0x3
 3350 0108 0E       		.uleb128 0xe
 3351 0109 0B       		.uleb128 0xb
 3352 010a 0B       		.uleb128 0xb
 3353 010b 3A       		.uleb128 0x3a
 3354 010c 0B       		.uleb128 0xb
 3355 010d 3B       		.uleb128 0x3b
 3356 010e 05       		.uleb128 0x5
 3357 010f 01       		.uleb128 0x1
 3358 0110 13       		.uleb128 0x13
 3359 0111 00       		.byte	0x0
 3360 0112 00       		.byte	0x0
 3361 0113 18       		.uleb128 0x18
 3362 0114 13       		.uleb128 0x13
 3363 0115 01       		.byte	0x1
 3364 0116 03       		.uleb128 0x3
 3365 0117 0E       		.uleb128 0xe
 3366 0118 0B       		.uleb128 0xb
 3367 0119 0B       		.uleb128 0xb
 3368 011a 3A       		.uleb128 0x3a
 3369 011b 0B       		.uleb128 0xb
 3370 011c 3B       		.uleb128 0x3b
 3371 011d 05       		.uleb128 0x5
 3372 011e 01       		.uleb128 0x1
 3373 011f 13       		.uleb128 0x13
 3374 0120 00       		.byte	0x0
 3375 0121 00       		.byte	0x0
 3376 0122 19       		.uleb128 0x19
 3377 0123 0D       		.uleb128 0xd
 3378 0124 00       		.byte	0x0
 3379 0125 03       		.uleb128 0x3
 3380 0126 0E       		.uleb128 0xe
 3381 0127 3A       		.uleb128 0x3a
 3382 0128 0B       		.uleb128 0xb
 3383 0129 3B       		.uleb128 0x3b
 3384 012a 05       		.uleb128 0x5
 3385 012b 49       		.uleb128 0x49
 3386 012c 13       		.uleb128 0x13
 3387 012d 38       		.uleb128 0x38
 3388 012e 0A       		.uleb128 0xa
 3389 012f 00       		.byte	0x0
 3390 0130 00       		.byte	0x0
 3391 0131 1A       		.uleb128 0x1a
 3392 0132 0D       		.uleb128 0xd
 3393 0133 00       		.byte	0x0
 3394 0134 03       		.uleb128 0x3
 3395 0135 0E       		.uleb128 0xe
 3396 0136 3A       		.uleb128 0x3a
 3397 0137 0B       		.uleb128 0xb
 3398 0138 3B       		.uleb128 0x3b
 3399 0139 05       		.uleb128 0x5
 3400 013a 49       		.uleb128 0x49
 3401 013b 13       		.uleb128 0x13
ARM GAS  /cygdrive/c/Users/Chris/AppData/Local/Temp/cc7xwWEZ.s 			page 69


 3402 013c 00       		.byte	0x0
 3403 013d 00       		.byte	0x0
 3404 013e 1B       		.uleb128 0x1b
 3405 013f 26       		.uleb128 0x26
 3406 0140 00       		.byte	0x0
 3407 0141 49       		.uleb128 0x49
 3408 0142 13       		.uleb128 0x13
 3409 0143 00       		.byte	0x0
 3410 0144 00       		.byte	0x0
 3411 0145 1C       		.uleb128 0x1c
 3412 0146 15       		.uleb128 0x15
 3413 0147 01       		.byte	0x1
 3414 0148 01       		.uleb128 0x1
 3415 0149 13       		.uleb128 0x13
 3416 014a 00       		.byte	0x0
 3417 014b 00       		.byte	0x0
 3418 014c 1D       		.uleb128 0x1d
 3419 014d 35       		.uleb128 0x35
 3420 014e 00       		.byte	0x0
 3421 014f 49       		.uleb128 0x49
 3422 0150 13       		.uleb128 0x13
 3423 0151 00       		.byte	0x0
 3424 0152 00       		.byte	0x0
 3425 0153 1E       		.uleb128 0x1e
 3426 0154 21       		.uleb128 0x21
 3427 0155 00       		.byte	0x0
 3428 0156 49       		.uleb128 0x49
 3429 0157 13       		.uleb128 0x13
 3430 0158 2F       		.uleb128 0x2f
 3431 0159 05       		.uleb128 0x5
 3432 015a 00       		.byte	0x0
 3433 015b 00       		.byte	0x0
 3434 015c 1F       		.uleb128 0x1f
 3435 015d 2E       		.uleb128 0x2e
 3436 015e 01       		.byte	0x1
 3437 015f 3F       		.uleb128 0x3f
 3438 0160 0C       		.uleb128 0xc
 3439 0161 03       		.uleb128 0x3
 3440 0162 0E       		.uleb128 0xe
 3441 0163 3A       		.uleb128 0x3a
 3442 0164 0B       		.uleb128 0xb
 3443 0165 3B       		.uleb128 0x3b
 3444 0166 0B       		.uleb128 0xb
 3445 0167 49       		.uleb128 0x49
 3446 0168 13       		.uleb128 0x13
 3447 0169 11       		.uleb128 0x11
 3448 016a 01       		.uleb128 0x1
 3449 016b 12       		.uleb128 0x12
 3450 016c 01       		.uleb128 0x1
 3451 016d 40       		.uleb128 0x40
 3452 016e 0A       		.uleb128 0xa
 3453 016f 01       		.uleb128 0x1
 3454 0170 13       		.uleb128 0x13
 3455 0171 00       		.byte	0x0
 3456 0172 00       		.byte	0x0
 3457 0173 20       		.uleb128 0x20
 3458 0174 05       		.uleb128 0x5
ARM GAS  /cygdrive/c/Users/Chris/AppData/Local/Temp/cc7xwWEZ.s 			page 70


 3459 0175 00       		.byte	0x0
 3460 0176 49       		.uleb128 0x49
 3461 0177 13       		.uleb128 0x13
 3462 0178 02       		.uleb128 0x2
 3463 0179 0A       		.uleb128 0xa
 3464 017a 00       		.byte	0x0
 3465 017b 00       		.byte	0x0
 3466 017c 21       		.uleb128 0x21
 3467 017d 2E       		.uleb128 0x2e
 3468 017e 01       		.byte	0x1
 3469 017f 3F       		.uleb128 0x3f
 3470 0180 0C       		.uleb128 0xc
 3471 0181 03       		.uleb128 0x3
 3472 0182 0E       		.uleb128 0xe
 3473 0183 3A       		.uleb128 0x3a
 3474 0184 0B       		.uleb128 0xb
 3475 0185 3B       		.uleb128 0x3b
 3476 0186 0B       		.uleb128 0xb
 3477 0187 11       		.uleb128 0x11
 3478 0188 01       		.uleb128 0x1
 3479 0189 12       		.uleb128 0x12
 3480 018a 01       		.uleb128 0x1
 3481 018b 40       		.uleb128 0x40
 3482 018c 0A       		.uleb128 0xa
 3483 018d 01       		.uleb128 0x1
 3484 018e 13       		.uleb128 0x13
 3485 018f 00       		.byte	0x0
 3486 0190 00       		.byte	0x0
 3487 0191 22       		.uleb128 0x22
 3488 0192 2E       		.uleb128 0x2e
 3489 0193 01       		.byte	0x1
 3490 0194 03       		.uleb128 0x3
 3491 0195 0E       		.uleb128 0xe
 3492 0196 34       		.uleb128 0x34
 3493 0197 0C       		.uleb128 0xc
 3494 0198 20       		.uleb128 0x20
 3495 0199 0B       		.uleb128 0xb
 3496 019a 01       		.uleb128 0x1
 3497 019b 13       		.uleb128 0x13
 3498 019c 00       		.byte	0x0
 3499 019d 00       		.byte	0x0
 3500 019e 23       		.uleb128 0x23
 3501 019f 05       		.uleb128 0x5
 3502 01a0 00       		.byte	0x0
 3503 01a1 03       		.uleb128 0x3
 3504 01a2 0E       		.uleb128 0xe
 3505 01a3 3A       		.uleb128 0x3a
 3506 01a4 0B       		.uleb128 0xb
 3507 01a5 3B       		.uleb128 0x3b
 3508 01a6 05       		.uleb128 0x5
 3509 01a7 49       		.uleb128 0x49
 3510 01a8 13       		.uleb128 0x13
 3511 01a9 00       		.byte	0x0
 3512 01aa 00       		.byte	0x0
 3513 01ab 24       		.uleb128 0x24
 3514 01ac 2E       		.uleb128 0x2e
 3515 01ad 01       		.byte	0x1
ARM GAS  /cygdrive/c/Users/Chris/AppData/Local/Temp/cc7xwWEZ.s 			page 71


 3516 01ae 03       		.uleb128 0x3
 3517 01af 0E       		.uleb128 0xe
 3518 01b0 34       		.uleb128 0x34
 3519 01b1 0C       		.uleb128 0xc
 3520 01b2 11       		.uleb128 0x11
 3521 01b3 01       		.uleb128 0x1
 3522 01b4 12       		.uleb128 0x12
 3523 01b5 01       		.uleb128 0x1
 3524 01b6 40       		.uleb128 0x40
 3525 01b7 0A       		.uleb128 0xa
 3526 01b8 01       		.uleb128 0x1
 3527 01b9 13       		.uleb128 0x13
 3528 01ba 00       		.byte	0x0
 3529 01bb 00       		.byte	0x0
 3530 01bc 25       		.uleb128 0x25
 3531 01bd 1D       		.uleb128 0x1d
 3532 01be 01       		.byte	0x1
 3533 01bf 31       		.uleb128 0x31
 3534 01c0 13       		.uleb128 0x13
 3535 01c1 11       		.uleb128 0x11
 3536 01c2 01       		.uleb128 0x1
 3537 01c3 12       		.uleb128 0x12
 3538 01c4 01       		.uleb128 0x1
 3539 01c5 58       		.uleb128 0x58
 3540 01c6 0B       		.uleb128 0xb
 3541 01c7 59       		.uleb128 0x59
 3542 01c8 05       		.uleb128 0x5
 3543 01c9 00       		.byte	0x0
 3544 01ca 00       		.byte	0x0
 3545 01cb 26       		.uleb128 0x26
 3546 01cc 05       		.uleb128 0x5
 3547 01cd 00       		.byte	0x0
 3548 01ce 31       		.uleb128 0x31
 3549 01cf 13       		.uleb128 0x13
 3550 01d0 00       		.byte	0x0
 3551 01d1 00       		.byte	0x0
 3552 01d2 27       		.uleb128 0x27
 3553 01d3 2E       		.uleb128 0x2e
 3554 01d4 01       		.byte	0x1
 3555 01d5 3F       		.uleb128 0x3f
 3556 01d6 0C       		.uleb128 0xc
 3557 01d7 03       		.uleb128 0x3
 3558 01d8 0E       		.uleb128 0xe
 3559 01d9 3A       		.uleb128 0x3a
 3560 01da 0B       		.uleb128 0xb
 3561 01db 3B       		.uleb128 0x3b
 3562 01dc 05       		.uleb128 0x5
 3563 01dd 8740     		.uleb128 0x2007
 3564 01df 0E       		.uleb128 0xe
 3565 01e0 49       		.uleb128 0x49
 3566 01e1 13       		.uleb128 0x13
 3567 01e2 11       		.uleb128 0x11
 3568 01e3 01       		.uleb128 0x1
 3569 01e4 12       		.uleb128 0x12
 3570 01e5 01       		.uleb128 0x1
 3571 01e6 40       		.uleb128 0x40
 3572 01e7 06       		.uleb128 0x6
ARM GAS  /cygdrive/c/Users/Chris/AppData/Local/Temp/cc7xwWEZ.s 			page 72


 3573 01e8 01       		.uleb128 0x1
 3574 01e9 13       		.uleb128 0x13
 3575 01ea 00       		.byte	0x0
 3576 01eb 00       		.byte	0x0
 3577 01ec 28       		.uleb128 0x28
 3578 01ed 05       		.uleb128 0x5
 3579 01ee 00       		.byte	0x0
 3580 01ef 03       		.uleb128 0x3
 3581 01f0 0E       		.uleb128 0xe
 3582 01f1 3A       		.uleb128 0x3a
 3583 01f2 0B       		.uleb128 0xb
 3584 01f3 3B       		.uleb128 0x3b
 3585 01f4 05       		.uleb128 0x5
 3586 01f5 49       		.uleb128 0x49
 3587 01f6 13       		.uleb128 0x13
 3588 01f7 02       		.uleb128 0x2
 3589 01f8 06       		.uleb128 0x6
 3590 01f9 00       		.byte	0x0
 3591 01fa 00       		.byte	0x0
 3592 01fb 29       		.uleb128 0x29
 3593 01fc 34       		.uleb128 0x34
 3594 01fd 00       		.byte	0x0
 3595 01fe 03       		.uleb128 0x3
 3596 01ff 08       		.uleb128 0x8
 3597 0200 3A       		.uleb128 0x3a
 3598 0201 0B       		.uleb128 0xb
 3599 0202 3B       		.uleb128 0x3b
 3600 0203 05       		.uleb128 0x5
 3601 0204 49       		.uleb128 0x49
 3602 0205 13       		.uleb128 0x13
 3603 0206 02       		.uleb128 0x2
 3604 0207 0A       		.uleb128 0xa
 3605 0208 00       		.byte	0x0
 3606 0209 00       		.byte	0x0
 3607 020a 2A       		.uleb128 0x2a
 3608 020b 2E       		.uleb128 0x2e
 3609 020c 01       		.byte	0x1
 3610 020d 3F       		.uleb128 0x3f
 3611 020e 0C       		.uleb128 0xc
 3612 020f 03       		.uleb128 0x3
 3613 0210 0E       		.uleb128 0xe
 3614 0211 3A       		.uleb128 0x3a
 3615 0212 0B       		.uleb128 0xb
 3616 0213 3B       		.uleb128 0x3b
 3617 0214 05       		.uleb128 0x5
 3618 0215 8740     		.uleb128 0x2007
 3619 0217 0E       		.uleb128 0xe
 3620 0218 11       		.uleb128 0x11
 3621 0219 01       		.uleb128 0x1
 3622 021a 12       		.uleb128 0x12
 3623 021b 01       		.uleb128 0x1
 3624 021c 40       		.uleb128 0x40
 3625 021d 06       		.uleb128 0x6
 3626 021e 01       		.uleb128 0x1
 3627 021f 13       		.uleb128 0x13
 3628 0220 00       		.byte	0x0
 3629 0221 00       		.byte	0x0
ARM GAS  /cygdrive/c/Users/Chris/AppData/Local/Temp/cc7xwWEZ.s 			page 73


 3630 0222 2B       		.uleb128 0x2b
 3631 0223 34       		.uleb128 0x34
 3632 0224 00       		.byte	0x0
 3633 0225 03       		.uleb128 0x3
 3634 0226 0E       		.uleb128 0xe
 3635 0227 3A       		.uleb128 0x3a
 3636 0228 0B       		.uleb128 0xb
 3637 0229 3B       		.uleb128 0x3b
 3638 022a 05       		.uleb128 0x5
 3639 022b 49       		.uleb128 0x49
 3640 022c 13       		.uleb128 0x13
 3641 022d 02       		.uleb128 0x2
 3642 022e 0A       		.uleb128 0xa
 3643 022f 00       		.byte	0x0
 3644 0230 00       		.byte	0x0
 3645 0231 2C       		.uleb128 0x2c
 3646 0232 0B       		.uleb128 0xb
 3647 0233 01       		.byte	0x1
 3648 0234 11       		.uleb128 0x11
 3649 0235 01       		.uleb128 0x1
 3650 0236 12       		.uleb128 0x12
 3651 0237 01       		.uleb128 0x1
 3652 0238 00       		.byte	0x0
 3653 0239 00       		.byte	0x0
 3654 023a 2D       		.uleb128 0x2d
 3655 023b 34       		.uleb128 0x34
 3656 023c 00       		.byte	0x0
 3657 023d 03       		.uleb128 0x3
 3658 023e 08       		.uleb128 0x8
 3659 023f 3A       		.uleb128 0x3a
 3660 0240 0B       		.uleb128 0xb
 3661 0241 3B       		.uleb128 0x3b
 3662 0242 05       		.uleb128 0x5
 3663 0243 49       		.uleb128 0x49
 3664 0244 13       		.uleb128 0x13
 3665 0245 02       		.uleb128 0x2
 3666 0246 06       		.uleb128 0x6
 3667 0247 00       		.byte	0x0
 3668 0248 00       		.byte	0x0
 3669 0249 2E       		.uleb128 0x2e
 3670 024a 34       		.uleb128 0x34
 3671 024b 00       		.byte	0x0
 3672 024c 03       		.uleb128 0x3
 3673 024d 0E       		.uleb128 0xe
 3674 024e 3A       		.uleb128 0x3a
 3675 024f 0B       		.uleb128 0xb
 3676 0250 3B       		.uleb128 0x3b
 3677 0251 05       		.uleb128 0x5
 3678 0252 49       		.uleb128 0x49
 3679 0253 13       		.uleb128 0x13
 3680 0254 02       		.uleb128 0x2
 3681 0255 06       		.uleb128 0x6
 3682 0256 00       		.byte	0x0
 3683 0257 00       		.byte	0x0
 3684 0258 2F       		.uleb128 0x2f
 3685 0259 2E       		.uleb128 0x2e
 3686 025a 01       		.byte	0x1
ARM GAS  /cygdrive/c/Users/Chris/AppData/Local/Temp/cc7xwWEZ.s 			page 74


 3687 025b 3F       		.uleb128 0x3f
 3688 025c 0C       		.uleb128 0xc
 3689 025d 03       		.uleb128 0x3
 3690 025e 0E       		.uleb128 0xe
 3691 025f 3A       		.uleb128 0x3a
 3692 0260 0B       		.uleb128 0xb
 3693 0261 3B       		.uleb128 0x3b
 3694 0262 0B       		.uleb128 0xb
 3695 0263 8740     		.uleb128 0x2007
 3696 0265 0E       		.uleb128 0xe
 3697 0266 11       		.uleb128 0x11
 3698 0267 01       		.uleb128 0x1
 3699 0268 12       		.uleb128 0x12
 3700 0269 01       		.uleb128 0x1
 3701 026a 40       		.uleb128 0x40
 3702 026b 06       		.uleb128 0x6
 3703 026c 01       		.uleb128 0x1
 3704 026d 13       		.uleb128 0x13
 3705 026e 00       		.byte	0x0
 3706 026f 00       		.byte	0x0
 3707 0270 30       		.uleb128 0x30
 3708 0271 05       		.uleb128 0x5
 3709 0272 00       		.byte	0x0
 3710 0273 03       		.uleb128 0x3
 3711 0274 0E       		.uleb128 0xe
 3712 0275 3A       		.uleb128 0x3a
 3713 0276 0B       		.uleb128 0xb
 3714 0277 3B       		.uleb128 0x3b
 3715 0278 0B       		.uleb128 0xb
 3716 0279 49       		.uleb128 0x49
 3717 027a 13       		.uleb128 0x13
 3718 027b 02       		.uleb128 0x2
 3719 027c 06       		.uleb128 0x6
 3720 027d 00       		.byte	0x0
 3721 027e 00       		.byte	0x0
 3722 027f 31       		.uleb128 0x31
 3723 0280 0B       		.uleb128 0xb
 3724 0281 01       		.byte	0x1
 3725 0282 55       		.uleb128 0x55
 3726 0283 06       		.uleb128 0x6
 3727 0284 01       		.uleb128 0x1
 3728 0285 13       		.uleb128 0x13
 3729 0286 00       		.byte	0x0
 3730 0287 00       		.byte	0x0
 3731 0288 32       		.uleb128 0x32
 3732 0289 34       		.uleb128 0x34
 3733 028a 00       		.byte	0x0
 3734 028b 03       		.uleb128 0x3
 3735 028c 0E       		.uleb128 0xe
 3736 028d 3A       		.uleb128 0x3a
 3737 028e 0B       		.uleb128 0xb
 3738 028f 3B       		.uleb128 0x3b
 3739 0290 0B       		.uleb128 0xb
 3740 0291 49       		.uleb128 0x49
 3741 0292 13       		.uleb128 0x13
 3742 0293 02       		.uleb128 0x2
 3743 0294 06       		.uleb128 0x6
ARM GAS  /cygdrive/c/Users/Chris/AppData/Local/Temp/cc7xwWEZ.s 			page 75


 3744 0295 00       		.byte	0x0
 3745 0296 00       		.byte	0x0
 3746 0297 33       		.uleb128 0x33
 3747 0298 34       		.uleb128 0x34
 3748 0299 00       		.byte	0x0
 3749 029a 03       		.uleb128 0x3
 3750 029b 0E       		.uleb128 0xe
 3751 029c 3A       		.uleb128 0x3a
 3752 029d 0B       		.uleb128 0xb
 3753 029e 3B       		.uleb128 0x3b
 3754 029f 0B       		.uleb128 0xb
 3755 02a0 49       		.uleb128 0x49
 3756 02a1 13       		.uleb128 0x13
 3757 02a2 00       		.byte	0x0
 3758 02a3 00       		.byte	0x0
 3759 02a4 34       		.uleb128 0x34
 3760 02a5 34       		.uleb128 0x34
 3761 02a6 00       		.byte	0x0
 3762 02a7 03       		.uleb128 0x3
 3763 02a8 08       		.uleb128 0x8
 3764 02a9 3A       		.uleb128 0x3a
 3765 02aa 0B       		.uleb128 0xb
 3766 02ab 3B       		.uleb128 0x3b
 3767 02ac 0B       		.uleb128 0xb
 3768 02ad 49       		.uleb128 0x49
 3769 02ae 13       		.uleb128 0x13
 3770 02af 00       		.byte	0x0
 3771 02b0 00       		.byte	0x0
 3772 02b1 35       		.uleb128 0x35
 3773 02b2 2E       		.uleb128 0x2e
 3774 02b3 01       		.byte	0x1
 3775 02b4 3F       		.uleb128 0x3f
 3776 02b5 0C       		.uleb128 0xc
 3777 02b6 03       		.uleb128 0x3
 3778 02b7 0E       		.uleb128 0xe
 3779 02b8 3A       		.uleb128 0x3a
 3780 02b9 0B       		.uleb128 0xb
 3781 02ba 3B       		.uleb128 0x3b
 3782 02bb 0B       		.uleb128 0xb
 3783 02bc 49       		.uleb128 0x49
 3784 02bd 13       		.uleb128 0x13
 3785 02be 11       		.uleb128 0x11
 3786 02bf 01       		.uleb128 0x1
 3787 02c0 12       		.uleb128 0x12
 3788 02c1 01       		.uleb128 0x1
 3789 02c2 40       		.uleb128 0x40
 3790 02c3 06       		.uleb128 0x6
 3791 02c4 01       		.uleb128 0x1
 3792 02c5 13       		.uleb128 0x13
 3793 02c6 00       		.byte	0x0
 3794 02c7 00       		.byte	0x0
 3795 02c8 36       		.uleb128 0x36
 3796 02c9 34       		.uleb128 0x34
 3797 02ca 00       		.byte	0x0
 3798 02cb 03       		.uleb128 0x3
 3799 02cc 08       		.uleb128 0x8
 3800 02cd 3A       		.uleb128 0x3a
ARM GAS  /cygdrive/c/Users/Chris/AppData/Local/Temp/cc7xwWEZ.s 			page 76


 3801 02ce 0B       		.uleb128 0xb
 3802 02cf 3B       		.uleb128 0x3b
 3803 02d0 0B       		.uleb128 0xb
 3804 02d1 49       		.uleb128 0x49
 3805 02d2 13       		.uleb128 0x13
 3806 02d3 02       		.uleb128 0x2
 3807 02d4 0A       		.uleb128 0xa
 3808 02d5 00       		.byte	0x0
 3809 02d6 00       		.byte	0x0
 3810 02d7 37       		.uleb128 0x37
 3811 02d8 21       		.uleb128 0x21
 3812 02d9 00       		.byte	0x0
 3813 02da 00       		.byte	0x0
 3814 02db 00       		.byte	0x0
 3815 02dc 38       		.uleb128 0x38
 3816 02dd 34       		.uleb128 0x34
 3817 02de 00       		.byte	0x0
 3818 02df 03       		.uleb128 0x3
 3819 02e0 0E       		.uleb128 0xe
 3820 02e1 3A       		.uleb128 0x3a
 3821 02e2 0B       		.uleb128 0xb
 3822 02e3 3B       		.uleb128 0x3b
 3823 02e4 0B       		.uleb128 0xb
 3824 02e5 49       		.uleb128 0x49
 3825 02e6 13       		.uleb128 0x13
 3826 02e7 3F       		.uleb128 0x3f
 3827 02e8 0C       		.uleb128 0xc
 3828 02e9 3C       		.uleb128 0x3c
 3829 02ea 0C       		.uleb128 0xc
 3830 02eb 00       		.byte	0x0
 3831 02ec 00       		.byte	0x0
 3832 02ed 39       		.uleb128 0x39
 3833 02ee 34       		.uleb128 0x34
 3834 02ef 00       		.byte	0x0
 3835 02f0 03       		.uleb128 0x3
 3836 02f1 0E       		.uleb128 0xe
 3837 02f2 3A       		.uleb128 0x3a
 3838 02f3 0B       		.uleb128 0xb
 3839 02f4 3B       		.uleb128 0x3b
 3840 02f5 0B       		.uleb128 0xb
 3841 02f6 49       		.uleb128 0x49
 3842 02f7 13       		.uleb128 0x13
 3843 02f8 3F       		.uleb128 0x3f
 3844 02f9 0C       		.uleb128 0xc
 3845 02fa 02       		.uleb128 0x2
 3846 02fb 0A       		.uleb128 0xa
 3847 02fc 00       		.byte	0x0
 3848 02fd 00       		.byte	0x0
 3849 02fe 3A       		.uleb128 0x3a
 3850 02ff 34       		.uleb128 0x34
 3851 0300 00       		.byte	0x0
 3852 0301 03       		.uleb128 0x3
 3853 0302 0E       		.uleb128 0xe
 3854 0303 3A       		.uleb128 0x3a
 3855 0304 0B       		.uleb128 0xb
 3856 0305 3B       		.uleb128 0x3b
 3857 0306 0B       		.uleb128 0xb
ARM GAS  /cygdrive/c/Users/Chris/AppData/Local/Temp/cc7xwWEZ.s 			page 77


 3858 0307 49       		.uleb128 0x49
 3859 0308 13       		.uleb128 0x13
 3860 0309 02       		.uleb128 0x2
 3861 030a 0A       		.uleb128 0xa
 3862 030b 00       		.byte	0x0
 3863 030c 00       		.byte	0x0
 3864 030d 3B       		.uleb128 0x3b
 3865 030e 34       		.uleb128 0x34
 3866 030f 00       		.byte	0x0
 3867 0310 03       		.uleb128 0x3
 3868 0311 08       		.uleb128 0x8
 3869 0312 3A       		.uleb128 0x3a
 3870 0313 0B       		.uleb128 0xb
 3871 0314 3B       		.uleb128 0x3b
 3872 0315 0B       		.uleb128 0xb
 3873 0316 49       		.uleb128 0x49
 3874 0317 13       		.uleb128 0x13
 3875 0318 3F       		.uleb128 0x3f
 3876 0319 0C       		.uleb128 0xc
 3877 031a 02       		.uleb128 0x2
 3878 031b 0A       		.uleb128 0xa
 3879 031c 00       		.byte	0x0
 3880 031d 00       		.byte	0x0
 3881 031e 00       		.byte	0x0
 3882              		.section	.debug_pubnames,"",%progbits
 3883 0000 C1010000 		.4byte	0x1c1
 3884 0004 0200     		.2byte	0x2
 3885 0006 00000000 		.4byte	.Ldebug_info0
 3886 000a B90E0000 		.4byte	0xeb9
 3887 000e EE090000 		.4byte	0x9ee
 3888 0012 5F766670 		.ascii	"_vfprintf_r\000"
 3888      72696E74 
 3888      665F7200 
 3889 001e 2B0A0000 		.4byte	0xa2b
 3890 0022 5F6D616C 		.ascii	"_malloc_r\000"
 3890      6C6F635F 
 3890      7200
 3891 002c 540A0000 		.4byte	0xa54
 3892 0030 5F667265 		.ascii	"_free_r\000"
 3892      655F7200 
 3893 0038 790A0000 		.4byte	0xa79
 3894 003c 5F726561 		.ascii	"_realloc_r\000"
 3894      6C6C6F63 
 3894      5F7200
 3895 0047 A90A0000 		.4byte	0xaa9
 3896 004b 7265616C 		.ascii	"realloc\000"
 3896      6C6F6300 
 3897 0053 D20A0000 		.4byte	0xad2
 3898 0057 5F63616C 		.ascii	"_calloc_r\000"
 3898      6C6F635F 
 3898      7200
 3899 0061 020B0000 		.4byte	0xb02
 3900 0065 6D616C6C 		.ascii	"malloc\000"
 3900      6F6300
 3901 006c 240B0000 		.4byte	0xb24
 3902 0070 66726565 		.ascii	"free\000"
 3902      00
ARM GAS  /cygdrive/c/Users/Chris/AppData/Local/Temp/cc7xwWEZ.s 			page 78


 3903 0075 960B0000 		.4byte	0xb96
 3904 0079 42756666 		.ascii	"BufferLoad\000"
 3904      65724C6F 
 3904      616400
 3905 0084 E60B0000 		.4byte	0xbe6
 3906 0088 426C6F63 		.ascii	"BlockRead\000"
 3906      6B526561 
 3906      6400
 3907 0092 760C0000 		.4byte	0xc76
 3908 0096 42757474 		.ascii	"ButterflyService\000"
 3908      6572666C 
 3908      79536572 
 3908      76696365 
 3908      00
 3909 00a7 F50C0000 		.4byte	0xcf5
 3910 00ab 6D61696E 		.ascii	"main\000"
 3910      00
 3911 00b0 350D0000 		.4byte	0xd35
 3912 00b4 6B436F6E 		.ascii	"kConfigMemLength\000"
 3912      6669674D 
 3912      656D4C65 
 3912      6E677468 
 3912      00
 3913 00c5 470D0000 		.4byte	0xd47
 3914 00c9 6B417070 		.ascii	"kApplicationStartAddr\000"
 3914      6C696361 
 3914      74696F6E 
 3914      53746172 
 3914      74416464 
 3915 00df 590D0000 		.4byte	0xd59
 3916 00e3 67416464 		.ascii	"gAddress\000"
 3916      72657373 
 3916      00
 3917 00ec 6B0D0000 		.4byte	0xd6b
 3918 00f0 67416464 		.ascii	"gAddressPgm\000"
 3918      72657373 
 3918      50676D00 
 3919 00fc 8E0D0000 		.4byte	0xd8e
 3920 0100 67427566 		.ascii	"gBuffer\000"
 3920      66657200 
 3921 0108 A00D0000 		.4byte	0xda0
 3922 010c 67436F6E 		.ascii	"gConfigMem\000"
 3922      6669674D 
 3922      656D00
 3923 0117 B20D0000 		.4byte	0xdb2
 3924 011b 67446576 		.ascii	"gDevice\000"
 3924      69636500 
 3925 0123 C40D0000 		.4byte	0xdc4
 3926 0127 67446576 		.ascii	"gDevType\000"
 3926      54797065 
 3926      00
 3927 0130 D60D0000 		.4byte	0xdd6
 3928 0134 67526563 		.ascii	"gRecvCommand\000"
 3928      76436F6D 
 3928      6D616E64 
 3928      00
 3929 0141 E80D0000 		.4byte	0xde8
ARM GAS  /cygdrive/c/Users/Chris/AppData/Local/Temp/cc7xwWEZ.s 			page 79


 3930 0145 70757267 		.ascii	"purge\000"
 3930      6500
 3931 014b 0B0E0000 		.4byte	0xe0b
 3932 014f 67436F6E 		.ascii	"gConfigCs\000"
 3932      66696743 
 3932      7300
 3933 0159 230E0000 		.4byte	0xe23
 3934 015d 67534642 		.ascii	"gSFBootValidChecksum\000"
 3934      6F6F7456 
 3934      616C6964 
 3934      43686563 
 3934      6B73756D 
 3935 0172 3C0E0000 		.4byte	0xe3c
 3936 0176 6170705F 		.ascii	"app_code_entry\000"
 3936      636F6465 
 3936      5F656E74 
 3936      727900
 3937 0185 4E0E0000 		.4byte	0xe4e
 3938 0189 77616974 		.ascii	"wait\000"
 3938      00
 3939 018e 600E0000 		.4byte	0xe60
 3940 0192 70696E00 		.ascii	"pin\000"
 3941 0196 720E0000 		.4byte	0xe72
 3942 019a 7800     		.ascii	"x\000"
 3943 019c 820E0000 		.4byte	0xe82
 3944 01a0 75617274 		.ascii	"uart\000"
 3944      00
 3945 01a5 940E0000 		.4byte	0xe94
 3946 01a9 696E6465 		.ascii	"index\000"
 3946      7800
 3947 01af A60E0000 		.4byte	0xea6
 3948 01b3 67476F74 		.ascii	"gGotFirstPage\000"
 3948      46697273 
 3948      74506167 
 3948      6500
 3949 01c1 00000000 		.4byte	0x0
 3950              		.section	.debug_aranges,"",%progbits
 3951 0000 7C000000 		.4byte	0x7c
 3952 0004 0200     		.2byte	0x2
 3953 0006 00000000 		.4byte	.Ldebug_info0
 3954 000a 04       		.byte	0x4
 3955 000b 00       		.byte	0x0
 3956 000c 0000     		.2byte	0x0
 3957 000e 0000     		.2byte	0x0
 3958 0010 00000000 		.4byte	.LFB2
 3959 0014 08000000 		.4byte	.LFE2-.LFB2
 3960 0018 00000000 		.4byte	.LFB3
 3961 001c 08000000 		.4byte	.LFE3-.LFB3
 3962 0020 00000000 		.4byte	.LFB4
 3963 0024 04000000 		.4byte	.LFE4-.LFB4
 3964 0028 00000000 		.4byte	.LFB5
 3965 002c 08000000 		.4byte	.LFE5-.LFB5
 3966 0030 00000000 		.4byte	.LFB6
 3967 0034 08000000 		.4byte	.LFE6-.LFB6
 3968 0038 00000000 		.4byte	.LFB7
 3969 003c 08000000 		.4byte	.LFE7-.LFB7
 3970 0040 00000000 		.4byte	.LFB8
ARM GAS  /cygdrive/c/Users/Chris/AppData/Local/Temp/cc7xwWEZ.s 			page 80


 3971 0044 08000000 		.4byte	.LFE8-.LFB8
 3972 0048 00000000 		.4byte	.LFB9
 3973 004c 04000000 		.4byte	.LFE9-.LFB9
 3974 0050 00000000 		.4byte	.LFB15
 3975 0054 1C000000 		.4byte	.LFE15-.LFB15
 3976 0058 00000000 		.4byte	.LFB13
 3977 005c 9C000000 		.4byte	.LFE13-.LFB13
 3978 0060 00000000 		.4byte	.LFB12
 3979 0064 84000000 		.4byte	.LFE12-.LFB12
 3980 0068 00000000 		.4byte	.LFB11
 3981 006c 80030000 		.4byte	.LFE11-.LFB11
 3982 0070 00000000 		.4byte	.LFB10
 3983 0074 3C000000 		.4byte	.LFE10-.LFB10
 3984 0078 00000000 		.4byte	0x0
 3985 007c 00000000 		.4byte	0x0
 3986              		.section	.debug_ranges,"",%progbits
 3987              	.Ldebug_ranges0:
 3988 0000 F0010000 		.4byte	.LBB10
 3989 0004 20020000 		.4byte	.LBE10
 3990 0008 24020000 		.4byte	.LBB12
 3991 000c 28020000 		.4byte	.LBE12
 3992 0010 00000000 		.4byte	0x0
 3993 0014 00000000 		.4byte	0x0
 3994 0018 00000000 		.4byte	.Ltext0
 3995 001c 00000000 		.4byte	.Letext0
 3996 0020 00000000 		.4byte	.LFB2
 3997 0024 08000000 		.4byte	.LFE2
 3998 0028 00000000 		.4byte	.LFB3
 3999 002c 08000000 		.4byte	.LFE3
 4000 0030 00000000 		.4byte	.LFB4
 4001 0034 04000000 		.4byte	.LFE4
 4002 0038 00000000 		.4byte	.LFB5
 4003 003c 08000000 		.4byte	.LFE5
 4004 0040 00000000 		.4byte	.LFB6
 4005 0044 08000000 		.4byte	.LFE6
 4006 0048 00000000 		.4byte	.LFB7
 4007 004c 08000000 		.4byte	.LFE7
 4008 0050 00000000 		.4byte	.LFB8
 4009 0054 08000000 		.4byte	.LFE8
 4010 0058 00000000 		.4byte	.LFB9
 4011 005c 04000000 		.4byte	.LFE9
 4012 0060 00000000 		.4byte	.LFB15
 4013 0064 1C000000 		.4byte	.LFE15
 4014 0068 00000000 		.4byte	.LFB13
 4015 006c 9C000000 		.4byte	.LFE13
 4016 0070 00000000 		.4byte	.LFB12
 4017 0074 84000000 		.4byte	.LFE12
 4018 0078 00000000 		.4byte	.LFB11
 4019 007c 80030000 		.4byte	.LFE11
 4020 0080 00000000 		.4byte	.LFB10
 4021 0084 3C000000 		.4byte	.LFE10
 4022 0088 00000000 		.4byte	0x0
 4023 008c 00000000 		.4byte	0x0
 4024              		.section	.debug_str,"MS",%progbits,1
 4025              	.LASF42:
 4026 0000 5F64736F 		.ascii	"_dso_handle\000"
 4026      5F68616E 
ARM GAS  /cygdrive/c/Users/Chris/AppData/Local/Temp/cc7xwWEZ.s 			page 81


 4026      646C6500 
 4027              	.LASF132:
 4028 000c 6D616C6C 		.ascii	"malloc\000"
 4028      6F6300
 4029              	.LASF50:
 4030 0013 5F73697A 		.ascii	"_size\000"
 4030      6500
 4031              	.LASF166:
 4032 0019 67476F74 		.ascii	"gGotFirstPage\000"
 4032      46697273 
 4032      74506167 
 4032      6500
 4033              	.LASF12:
 4034 0027 73697A65 		.ascii	"size_t\000"
 4034      5F7400
 4035              	.LASF115:
 4036 002e 5F72616E 		.ascii	"_rand48\000"
 4036      64343800 
 4037              	.LASF94:
 4038 0036 5F656D65 		.ascii	"_emergency\000"
 4038      7267656E 
 4038      637900
 4039              	.LASF9:
 4040 0041 75696E74 		.ascii	"uint64_t\000"
 4040      36345F74 
 4040      00
 4041              	.LASF64:
 4042 004a 5F646174 		.ascii	"_data\000"
 4042      6100
 4043              	.LASF67:
 4044 0050 3C616E6F 		.ascii	"<anonymous union>\000"
 4044      6E796D6F 
 4044      75732075 
 4044      6E696F6E 
 4044      3E00
 4045              	.LASF84:
 4046 0062 5F776372 		.ascii	"_wcrtomb_state\000"
 4046      746F6D62 
 4046      5F737461 
 4046      746500
 4047              	.LASF85:
 4048 0071 5F776373 		.ascii	"_wcsrtombs_state\000"
 4048      72746F6D 
 4048      62735F73 
 4048      74617465 
 4048      00
 4049              	.LASF10:
 4050 0082 6C6F6E67 		.ascii	"long long unsigned int\000"
 4050      206C6F6E 
 4050      6720756E 
 4050      7369676E 
 4050      65642069 
 4051              	.LASF54:
 4052 0099 5F6C6266 		.ascii	"_lbfsize\000"
 4052      73697A65 
 4052      00
 4053              	.LASF157:
ARM GAS  /cygdrive/c/Users/Chris/AppData/Local/Temp/cc7xwWEZ.s 			page 82


 4054 00a2 70757267 		.ascii	"purge\000"
 4054      6500
 4055              	.LASF82:
 4056 00a8 5F6D6272 		.ascii	"_mbrtowc_state\000"
 4056      746F7763 
 4056      5F737461 
 4056      746500
 4057              	.LASF134:
 4058 00b7 66726565 		.ascii	"free\000"
 4058      00
 4059              	.LASF167:
 4060 00bc 474E5520 		.ascii	"GNU C++ 4.3.2\000"
 4060      432B2B20 
 4060      342E332E 
 4060      3200
 4061              	.LASF77:
 4062 00ca 5F776374 		.ascii	"_wctomb_state\000"
 4062      6F6D625F 
 4062      73746174 
 4062      6500
 4063              	.LASF31:
 4064 00d8 5F5F746D 		.ascii	"__tm_sec\000"
 4064      5F736563 
 4064      00
 4065              	.LASF8:
 4066 00e1 6C6F6E67 		.ascii	"long long int\000"
 4066      206C6F6E 
 4066      6720696E 
 4066      7400
 4067              	.LASF0:
 4068 00ef 7369676E 		.ascii	"signed char\000"
 4068      65642063 
 4068      68617200 
 4069              	.LASF60:
 4070 00fb 5F756275 		.ascii	"_ubuf\000"
 4070      6600
 4071              	.LASF49:
 4072 0101 5F626173 		.ascii	"_base\000"
 4072      6500
 4073              	.LASF150:
 4074 0107 67416464 		.ascii	"gAddress\000"
 4074      72657373 
 4074      00
 4075              	.LASF33:
 4076 0110 5F5F746D 		.ascii	"__tm_hour\000"
 4076      5F686F75 
 4076      7200
 4077              	.LASF109:
 4078 011a 5F5F7366 		.ascii	"__sf\000"
 4078      00
 4079              	.LASF40:
 4080 011f 5F6F6E5F 		.ascii	"_on_exit_args\000"
 4080      65786974 
 4080      5F617267 
 4080      7300
 4081              	.LASF175:
 4082 012d 5F5A3942 		.ascii	"_Z9BlockReadjh\000"
ARM GAS  /cygdrive/c/Users/Chris/AppData/Local/Temp/cc7xwWEZ.s 			page 83


 4082      6C6F636B 
 4082      52656164 
 4082      6A6800
 4083              	.LASF171:
 4084 013c 5F5F7374 		.ascii	"__static_initialization_and_destruction_0\000"
 4084      61746963 
 4084      5F696E69 
 4084      7469616C 
 4084      697A6174 
 4085              	.LASF55:
 4086 0166 5F636F6F 		.ascii	"_cookie\000"
 4086      6B696500 
 4087              	.LASF108:
 4088 016e 5F5F7367 		.ascii	"__sglue\000"
 4088      6C756500 
 4089              	.LASF4:
 4090 0176 6C6F6E67 		.ascii	"long int\000"
 4090      20696E74 
 4090      00
 4091              	.LASF129:
 4092 017f 5F726561 		.ascii	"_realloc_r\000"
 4092      6C6C6F63 
 4092      5F7200
 4093              	.LASF174:
 4094 018a 5F5A3130 		.ascii	"_Z10BufferLoadjh\000"
 4094      42756666 
 4094      65724C6F 
 4094      61646A68 
 4094      00
 4095              	.LASF52:
 4096 019b 5F666C61 		.ascii	"_flags\000"
 4096      677300
 4097              	.LASF44:
 4098 01a2 5F69735F 		.ascii	"_is_cxa\000"
 4098      63786100 
 4099              	.LASF90:
 4100 01aa 5F737464 		.ascii	"_stdin\000"
 4100      696E00
 4101              	.LASF159:
 4102 01b1 67436F6E 		.ascii	"gConfigCs\000"
 4102      66696743 
 4102      7300
 4103              	.LASF170:
 4104 01bb 5F5F7661 		.ascii	"__va_list\000"
 4104      5F6C6973 
 4104      7400
 4105              	.LASF62:
 4106 01c5 5F626C6B 		.ascii	"_blksize\000"
 4106      73697A65 
 4106      00
 4107              	.LASF158:
 4108 01ce 6752756E 		.ascii	"gRunning\000"
 4108      6E696E67 
 4108      00
 4109              	.LASF120:
 4110 01d7 646F7562 		.ascii	"double\000"
 4110      6C6500
ARM GAS  /cygdrive/c/Users/Chris/AppData/Local/Temp/cc7xwWEZ.s 			page 84


 4111              	.LASF127:
 4112 01de 5F766670 		.ascii	"_vfprintf_r\000"
 4112      72696E74 
 4112      665F7200 
 4113              	.LASF104:
 4114 01ea 5F637674 		.ascii	"_cvtbuf\000"
 4114      62756600 
 4115              	.LASF63:
 4116 01f2 5F6F6666 		.ascii	"_offset\000"
 4116      73657400 
 4117              	.LASF83:
 4118 01fa 5F6D6273 		.ascii	"_mbsrtowcs_state\000"
 4118      72746F77 
 4118      63735F73 
 4118      74617465 
 4118      00
 4119              	.LASF81:
 4120 020b 5F6D6272 		.ascii	"_mbrlen_state\000"
 4120      6C656E5F 
 4120      73746174 
 4120      6500
 4121              	.LASF41:
 4122 0219 5F666E61 		.ascii	"_fnargs\000"
 4122      72677300 
 4123              	.LASF142:
 4124 0221 62797465 		.ascii	"byte\000"
 4124      00
 4125              	.LASF47:
 4126 0226 5F666E73 		.ascii	"_fns\000"
 4126      00
 4127              	.LASF28:
 4128 022b 5F736967 		.ascii	"_sign\000"
 4128      6E00
 4129              	.LASF22:
 4130 0231 5F666C6F 		.ascii	"_flock_t\000"
 4130      636B5F74 
 4130      00
 4131              	.LASF92:
 4132 023a 5F737464 		.ascii	"_stderr\000"
 4132      65727200 
 4133              	.LASF25:
 4134 0242 5F426967 		.ascii	"_Bigint\000"
 4134      696E7400 
 4135              	.LASF148:
 4136 024a 6B436F6E 		.ascii	"kConfigMemLength\000"
 4136      6669674D 
 4136      656D4C65 
 4136      6E677468 
 4136      00
 4137              	.LASF135:
 4138 025b 5F5F696E 		.ascii	"__initialize_p\000"
 4138      69746961 
 4138      6C697A65 
 4138      5F7000
 4139              	.LASF56:
 4140 026a 5F726561 		.ascii	"_read\000"
 4140      6400
ARM GAS  /cygdrive/c/Users/Chris/AppData/Local/Temp/cc7xwWEZ.s 			page 85


 4141              	.LASF100:
 4142 0270 5F726573 		.ascii	"_result_k\000"
 4142      756C745F 
 4142      6B00
 4143              	.LASF30:
 4144 027a 5F5F746D 		.ascii	"__tm\000"
 4144      00
 4145              	.LASF11:
 4146 027f 756E7369 		.ascii	"unsigned int\000"
 4146      676E6564 
 4146      20696E74 
 4146      00
 4147              	.LASF19:
 4148 028c 5F5F7763 		.ascii	"__wchb\000"
 4148      686200
 4149              	.LASF91:
 4150 0293 5F737464 		.ascii	"_stdout\000"
 4150      6F757400 
 4151              	.LASF103:
 4152 029b 5F637674 		.ascii	"_cvtlen\000"
 4152      6C656E00 
 4153              	.LASF7:
 4154 02a3 6C6F6E67 		.ascii	"long unsigned int\000"
 4154      20756E73 
 4154      69676E65 
 4154      6420696E 
 4154      7400
 4155              	.LASF53:
 4156 02b5 5F66696C 		.ascii	"_file\000"
 4156      6500
 4157              	.LASF143:
 4158 02bb 42757474 		.ascii	"ButterflyService\000"
 4158      6572666C 
 4158      79536572 
 4158      76696365 
 4158      00
 4159              	.LASF176:
 4160 02cc 5F5A3136 		.ascii	"_Z16ButterflyServicec\000"
 4160      42757474 
 4160      6572666C 
 4160      79536572 
 4160      76696365 
 4161              	.LASF144:
 4162 02e2 72656376 		.ascii	"recvCommand\000"
 4162      436F6D6D 
 4162      616E6400 
 4163              	.LASF123:
 4164 02ee 53464243 		.ascii	"SFBChecksum\000"
 4164      6865636B 
 4164      73756D00 
 4165              	.LASF113:
 4166 02fa 5F6E696F 		.ascii	"_niobs\000"
 4166      627300
 4167              	.LASF160:
 4168 0301 67534642 		.ascii	"gSFBootValidChecksum\000"
 4168      6F6F7456 
 4168      616C6964 
ARM GAS  /cygdrive/c/Users/Chris/AppData/Local/Temp/cc7xwWEZ.s 			page 86


 4168      43686563 
 4168      6B73756D 
 4169              	.LASF107:
 4170 0316 5F736967 		.ascii	"_sig_func\000"
 4170      5F66756E 
 4170      6300
 4171              	.LASF137:
 4172 0320 73697A65 		.ascii	"size\000"
 4172      00
 4173              	.LASF3:
 4174 0325 73686F72 		.ascii	"short unsigned int\000"
 4174      7420756E 
 4174      7369676E 
 4174      65642069 
 4174      6E7400
 4175              	.LASF106:
 4176 0338 5F617465 		.ascii	"_atexit0\000"
 4176      78697430 
 4176      00
 4177              	.LASF79:
 4178 0341 5F736967 		.ascii	"_signal_buf\000"
 4178      6E616C5F 
 4178      62756600 
 4179              	.LASF70:
 4180 034d 5F617363 		.ascii	"_asctime_buf\000"
 4180      74696D65 
 4180      5F627566 
 4180      00
 4181              	.LASF153:
 4182 035a 67436F6E 		.ascii	"gConfigMem\000"
 4182      6669674D 
 4182      656D00
 4183              	.LASF99:
 4184 0365 5F726573 		.ascii	"_result\000"
 4184      756C7400 
 4185              	.LASF18:
 4186 036d 5F5F7763 		.ascii	"__wch\000"
 4186      6800
 4187              	.LASF125:
 4188 0373 53706172 		.ascii	"SpareConfigData\000"
 4188      65436F6E 
 4188      66696744 
 4188      61746100 
 4189              	.LASF152:
 4190 0383 67427566 		.ascii	"gBuffer\000"
 4190      66657200 
 4191              	.LASF172:
 4192 038b 5F474C4F 		.ascii	"_GLOBAL__I__vfprintf_r\000"
 4192      42414C5F 
 4192      5F495F5F 
 4192      76667072 
 4192      696E7466 
 4193              	.LASF16:
 4194 03a2 77696E74 		.ascii	"wint_t\000"
 4194      5F7400
 4195              	.LASF131:
 4196 03a9 5F63616C 		.ascii	"_calloc_r\000"
ARM GAS  /cygdrive/c/Users/Chris/AppData/Local/Temp/cc7xwWEZ.s 			page 87


 4196      6C6F635F 
 4196      7200
 4197              	.LASF161:
 4198 03b3 626F6F6C 		.ascii	"bool\000"
 4198      00
 4199              	.LASF65:
 4200 03b8 5F6C6F63 		.ascii	"_lock\000"
 4200      6B00
 4201              	.LASF117:
 4202 03be 5F6D756C 		.ascii	"_mult\000"
 4202      7400
 4203              	.LASF162:
 4204 03c4 6170705F 		.ascii	"app_code_entry\000"
 4204      636F6465 
 4204      5F656E74 
 4204      727900
 4205              	.LASF119:
 4206 03d3 46494C45 		.ascii	"FILE\000"
 4206      00
 4207              	.LASF57:
 4208 03d8 5F777269 		.ascii	"_write\000"
 4208      746500
 4209              	.LASF36:
 4210 03df 5F5F746D 		.ascii	"__tm_year\000"
 4210      5F796561 
 4210      7200
 4211              	.LASF138:
 4212 03e9 6D656D54 		.ascii	"memType\000"
 4212      79706500 
 4213              	.LASF87:
 4214 03f1 5F6E6D61 		.ascii	"_nmalloc\000"
 4214      6C6C6F63 
 4214      00
 4215              	.LASF122:
 4216 03fa 6C6F6E67 		.ascii	"long double\000"
 4216      20646F75 
 4216      626C6500 
 4217              	.LASF173:
 4218 0406 42756666 		.ascii	"BufferLoad\000"
 4218      65724C6F 
 4218      616400
 4219              	.LASF13:
 4220 0411 5F5F676E 		.ascii	"__gnuc_va_list\000"
 4220      75635F76 
 4220      615F6C69 
 4220      737400
 4221              	.LASF86:
 4222 0420 5F6E6578 		.ascii	"_nextf\000"
 4222      746600
 4223              	.LASF126:
 4224 0427 41707044 		.ascii	"AppData\000"
 4224      61746100 
 4225              	.LASF151:
 4226 042f 67416464 		.ascii	"gAddressPgm\000"
 4226      72657373 
 4226      50676D00 
 4227              	.LASF155:
ARM GAS  /cygdrive/c/Users/Chris/AppData/Local/Temp/cc7xwWEZ.s 			page 88


 4228 043b 67446576 		.ascii	"gDevType\000"
 4228      54797065 
 4228      00
 4229              	.LASF35:
 4230 0444 5F5F746D 		.ascii	"__tm_mon\000"
 4230      5F6D6F6E 
 4230      00
 4231              	.LASF45:
 4232 044d 5F617465 		.ascii	"_atexit\000"
 4232      78697400 
 4233              	.LASF97:
 4234 0455 5F5F7364 		.ascii	"__sdidinit\000"
 4234      6964696E 
 4234      697400
 4235              	.LASF72:
 4236 0460 5F67616D 		.ascii	"_gamma_signgam\000"
 4236      6D615F73 
 4236      69676E67 
 4236      616D00
 4237              	.LASF141:
 4238 046f 62797465 		.ascii	"byteCntDumb\000"
 4238      436E7444 
 4238      756D6200 
 4239              	.LASF164:
 4240 047b 75617274 		.ascii	"uart\000"
 4240      00
 4241              	.LASF121:
 4242 0480 666C6F61 		.ascii	"float\000"
 4242      7400
 4243              	.LASF102:
 4244 0486 5F667265 		.ascii	"_freelist\000"
 4244      656C6973 
 4244      7400
 4245              	.LASF154:
 4246 0490 67446576 		.ascii	"gDevice\000"
 4246      69636500 
 4247              	.LASF14:
 4248 0498 5F4C4F43 		.ascii	"_LOCK_RECURSIVE_T\000"
 4248      4B5F5245 
 4248      43555253 
 4248      4956455F 
 4248      5400
 4249              	.LASF124:
 4250 04aa 41707043 		.ascii	"AppChecksum\000"
 4250      6865636B 
 4250      73756D00 
 4251              	.LASF133:
 4252 04b6 5F667265 		.ascii	"_free_r\000"
 4252      655F7200 
 4253              	.LASF140:
 4254 04be 62797465 		.ascii	"byteCntPgm\000"
 4254      436E7450 
 4254      676D00
 4255              	.LASF1:
 4256 04c9 756E7369 		.ascii	"unsigned char\000"
 4256      676E6564 
 4256      20636861 
ARM GAS  /cygdrive/c/Users/Chris/AppData/Local/Temp/cc7xwWEZ.s 			page 89


 4256      7200
 4257              	.LASF105:
 4258 04d7 5F6E6577 		.ascii	"_new\000"
 4258      00
 4259              	.LASF2:
 4260 04dc 73686F72 		.ascii	"short int\000"
 4260      7420696E 
 4260      7400
 4261              	.LASF38:
 4262 04e6 5F5F746D 		.ascii	"__tm_yday\000"
 4262      5F796461 
 4262      7900
 4263              	.LASF168:
 4264 04f0 6D61696E 		.ascii	"main.cpp\000"
 4264      2E637070 
 4264      00
 4265              	.LASF114:
 4266 04f9 5F696F62 		.ascii	"_iobs\000"
 4266      7300
 4267              	.LASF111:
 4268 04ff 5F5F4649 		.ascii	"__FILE\000"
 4268      4C4500
 4269              	.LASF51:
 4270 0506 5F5F7346 		.ascii	"__sFILE\000"
 4270      494C4500 
 4271              	.LASF73:
 4272 050e 5F72616E 		.ascii	"_rand_next\000"
 4272      645F6E65 
 4272      787400
 4273              	.LASF75:
 4274 0519 5F6D626C 		.ascii	"_mblen_state\000"
 4274      656E5F73 
 4274      74617465 
 4274      00
 4275              	.LASF93:
 4276 0526 5F696E63 		.ascii	"_inc\000"
 4276      00
 4277              	.LASF46:
 4278 052b 5F696E64 		.ascii	"_ind\000"
 4278      00
 4279              	.LASF96:
 4280 0530 5F637572 		.ascii	"_current_locale\000"
 4280      72656E74 
 4280      5F6C6F63 
 4280      616C6500 
 4281              	.LASF128:
 4282 0540 5F6D616C 		.ascii	"_malloc_r\000"
 4282      6C6F635F 
 4282      7200
 4283              	.LASF98:
 4284 054a 5F5F636C 		.ascii	"__cleanup\000"
 4284      65616E75 
 4284      7000
 4285              	.LASF27:
 4286 0554 5F6D6178 		.ascii	"_maxwds\000"
 4286      77647300 
 4287              	.LASF66:
ARM GAS  /cygdrive/c/Users/Chris/AppData/Local/Temp/cc7xwWEZ.s 			page 90


 4288 055c 5F726565 		.ascii	"_reent\000"
 4288      6E7400
 4289              	.LASF116:
 4290 0563 5F736565 		.ascii	"_seed\000"
 4290      6400
 4291              	.LASF20:
 4292 0569 5F5F636F 		.ascii	"__count\000"
 4292      756E7400 
 4293              	.LASF6:
 4294 0571 75696E74 		.ascii	"uint32_t\000"
 4294      33325F74 
 4294      00
 4295              	.LASF58:
 4296 057a 5F736565 		.ascii	"_seek\000"
 4296      6B00
 4297              	.LASF15:
 4298 0580 5F66706F 		.ascii	"_fpos_t\000"
 4298      735F7400 
 4299              	.LASF89:
 4300 0588 5F657272 		.ascii	"_errno\000"
 4300      6E6F00
 4301              	.LASF110:
 4302 058f 63686172 		.ascii	"char\000"
 4302      00
 4303              	.LASF145:
 4304 0594 62756666 		.ascii	"bufferSize\000"
 4304      65725369 
 4304      7A6500
 4305              	.LASF32:
 4306 059f 5F5F746D 		.ascii	"__tm_min\000"
 4306      5F6D696E 
 4306      00
 4307              	.LASF165:
 4308 05a8 696E6465 		.ascii	"index\000"
 4308      7800
 4309              	.LASF163:
 4310 05ae 77616974 		.ascii	"wait\000"
 4310      00
 4311              	.LASF26:
 4312 05b3 5F6E6578 		.ascii	"_next\000"
 4312      7400
 4313              	.LASF69:
 4314 05b9 5F737472 		.ascii	"_strtok_last\000"
 4314      746F6B5F 
 4314      6C617374 
 4314      00
 4315              	.LASF21:
 4316 05c6 5F5F7661 		.ascii	"__value\000"
 4316      6C756500 
 4317              	.LASF139:
 4318 05ce 426C6F63 		.ascii	"BlockRead\000"
 4318      6B526561 
 4318      6400
 4319              	.LASF43:
 4320 05d8 5F666E74 		.ascii	"_fntypes\000"
 4320      79706573 
 4320      00
ARM GAS  /cygdrive/c/Users/Chris/AppData/Local/Temp/cc7xwWEZ.s 			page 91


 4321              	.LASF17:
 4322 05e1 5F5F6170 		.ascii	"__ap\000"
 4322      00
 4323              	.LASF118:
 4324 05e6 5F616464 		.ascii	"_add\000"
 4324      00
 4325              	.LASF23:
 4326 05eb 5F5F554C 		.ascii	"__ULong\000"
 4326      6F6E6700 
 4327              	.LASF149:
 4328 05f3 6B417070 		.ascii	"kApplicationStartAddr\000"
 4328      6C696361 
 4328      74696F6E 
 4328      53746172 
 4328      74416464 
 4329              	.LASF80:
 4330 0609 5F676574 		.ascii	"_getdate_err\000"
 4330      64617465 
 4330      5F657272 
 4330      00
 4331              	.LASF95:
 4332 0616 5F637572 		.ascii	"_current_category\000"
 4332      72656E74 
 4332      5F636174 
 4332      65676F72 
 4332      7900
 4333              	.LASF24:
 4334 0628 3C616E6F 		.ascii	"<anonymous struct>\000"
 4334      6E796D6F 
 4334      75732073 
 4334      74727563 
 4334      743E00
 4335              	.LASF68:
 4336 063b 5F756E75 		.ascii	"_unused_rand\000"
 4336      7365645F 
 4336      72616E64 
 4336      00
 4337              	.LASF156:
 4338 0648 67526563 		.ascii	"gRecvCommand\000"
 4338      76436F6D 
 4338      6D616E64 
 4338      00
 4339              	.LASF29:
 4340 0655 5F776473 		.ascii	"_wds\000"
 4340      00
 4341              	.LASF37:
 4342 065a 5F5F746D 		.ascii	"__tm_wday\000"
 4342      5F776461 
 4342      7900
 4343              	.LASF112:
 4344 0664 5F676C75 		.ascii	"_glue\000"
 4344      6500
 4345              	.LASF5:
 4346 066a 75696E74 		.ascii	"uint8_t\000"
 4346      385F7400 
 4347              	.LASF78:
 4348 0672 5F6C3634 		.ascii	"_l64a_buf\000"
ARM GAS  /cygdrive/c/Users/Chris/AppData/Local/Temp/cc7xwWEZ.s 			page 92


 4348      615F6275 
 4348      6600
 4349              	.LASF147:
 4350 067c 73656374 		.ascii	"sector_end_map\000"
 4350      6F725F65 
 4350      6E645F6D 
 4350      617000
 4351              	.LASF76:
 4352 068b 5F6D6274 		.ascii	"_mbtowc_state\000"
 4352      6F77635F 
 4352      73746174 
 4352      6500
 4353              	.LASF61:
 4354 0699 5F6E6275 		.ascii	"_nbuf\000"
 4354      6600
 4355              	.LASF88:
 4356 069f 5F756E75 		.ascii	"_unused\000"
 4356      73656400 
 4357              	.LASF39:
 4358 06a7 5F5F746D 		.ascii	"__tm_isdst\000"
 4358      5F697364 
 4358      737400
 4359              	.LASF71:
 4360 06b2 5F6C6F63 		.ascii	"_localtime_buf\000"
 4360      616C7469 
 4360      6D655F62 
 4360      756600
 4361              	.LASF59:
 4362 06c1 5F636C6F 		.ascii	"_close\000"
 4362      736500
 4363              	.LASF130:
 4364 06c8 7265616C 		.ascii	"realloc\000"
 4364      6C6F6300 
 4365              	.LASF74:
 4366 06d0 5F723438 		.ascii	"_r48\000"
 4366      00
 4367              	.LASF169:
 4368 06d5 2F637967 		.ascii	"/cygdrive/c/Users/Chris/Desktop/sfboot2.0/sfboot\000"
 4368      64726976 
 4368      652F632F 
 4368      55736572 
 4368      732F4368 
 4369              	.LASF101:
 4370 0706 5F703573 		.ascii	"_p5s\000"
 4370      00
 4371              	.LASF136:
 4372 070b 5F5F7072 		.ascii	"__priority\000"
 4372      696F7269 
 4372      747900
 4373              	.LASF146:
 4374 0716 6D61696E 		.ascii	"main\000"
 4374      00
 4375              	.LASF48:
 4376 071b 5F5F7362 		.ascii	"__sbuf\000"
 4376      756600
 4377              	.LASF34:
 4378 0722 5F5F746D 		.ascii	"__tm_mday\000"
ARM GAS  /cygdrive/c/Users/Chris/AppData/Local/Temp/cc7xwWEZ.s 			page 93


 4378      5F6D6461 
 4378      7900
 4379              		.ident	"GCC: (AHAX Arm-Linux 2008q3-66) 4.3.2"
ARM GAS  /cygdrive/c/Users/Chris/AppData/Local/Temp/cc7xwWEZ.s 			page 94


DEFINED SYMBOLS
                            *ABS*:00000000 main.cpp
/cygdrive/c/Users/Chris/AppData/Local/Temp/cc7xwWEZ.s:24     .text._vfprintf_r:00000000 _vfprintf_r
/cygdrive/c/Users/Chris/AppData/Local/Temp/cc7xwWEZ.s:33     .text._vfprintf_r:00000000 $a
/cygdrive/c/Users/Chris/AppData/Local/Temp/cc7xwWEZ.s:41     .text._malloc_r:00000000 _malloc_r
/cygdrive/c/Users/Chris/AppData/Local/Temp/cc7xwWEZ.s:49     .text._malloc_r:00000000 $a
/cygdrive/c/Users/Chris/AppData/Local/Temp/cc7xwWEZ.s:57     .text._free_r:00000000 _free_r
/cygdrive/c/Users/Chris/AppData/Local/Temp/cc7xwWEZ.s:65     .text._free_r:00000000 $a
/cygdrive/c/Users/Chris/AppData/Local/Temp/cc7xwWEZ.s:72     .text._realloc_r:00000000 _realloc_r
/cygdrive/c/Users/Chris/AppData/Local/Temp/cc7xwWEZ.s:80     .text._realloc_r:00000000 $a
/cygdrive/c/Users/Chris/AppData/Local/Temp/cc7xwWEZ.s:88     .text.realloc:00000000 realloc
/cygdrive/c/Users/Chris/AppData/Local/Temp/cc7xwWEZ.s:96     .text.realloc:00000000 $a
/cygdrive/c/Users/Chris/AppData/Local/Temp/cc7xwWEZ.s:104    .text._calloc_r:00000000 _calloc_r
/cygdrive/c/Users/Chris/AppData/Local/Temp/cc7xwWEZ.s:112    .text._calloc_r:00000000 $a
/cygdrive/c/Users/Chris/AppData/Local/Temp/cc7xwWEZ.s:120    .text.malloc:00000000 malloc
/cygdrive/c/Users/Chris/AppData/Local/Temp/cc7xwWEZ.s:128    .text.malloc:00000000 $a
/cygdrive/c/Users/Chris/AppData/Local/Temp/cc7xwWEZ.s:136    .text.free:00000000 free
/cygdrive/c/Users/Chris/AppData/Local/Temp/cc7xwWEZ.s:144    .text.free:00000000 $a
/cygdrive/c/Users/Chris/AppData/Local/Temp/cc7xwWEZ.s:150    .text._GLOBAL__I__vfprintf_r:00000000 _GLOBAL__I__vfprintf_r
/cygdrive/c/Users/Chris/AppData/Local/Temp/cc7xwWEZ.s:160    .text._GLOBAL__I__vfprintf_r:00000000 $a
/cygdrive/c/Users/Chris/AppData/Local/Temp/cc7xwWEZ.s:171    .text._GLOBAL__I__vfprintf_r:00000014 $d
/cygdrive/c/Users/Chris/AppData/Local/Temp/cc7xwWEZ.s:177    .init_array:00000000 $d
/cygdrive/c/Users/Chris/AppData/Local/Temp/cc7xwWEZ.s:182    .text._Z10BufferLoadjh:00000000 _Z10BufferLoadjh
/cygdrive/c/Users/Chris/AppData/Local/Temp/cc7xwWEZ.s:189    .text._Z10BufferLoadjh:00000000 $a
/cygdrive/c/Users/Chris/AppData/Local/Temp/cc7xwWEZ.s:249    .text._Z10BufferLoadjh:0000008c $d
/cygdrive/c/Users/Chris/AppData/Local/Temp/cc7xwWEZ.s:259    .text._Z9BlockReadjh:00000000 _Z9BlockReadjh
/cygdrive/c/Users/Chris/AppData/Local/Temp/cc7xwWEZ.s:266    .text._Z9BlockReadjh:00000000 $a
/cygdrive/c/Users/Chris/AppData/Local/Temp/cc7xwWEZ.s:334    .text._Z9BlockReadjh:00000078 $d
/cygdrive/c/Users/Chris/AppData/Local/Temp/cc7xwWEZ.s:343    .text._Z16ButterflyServicec:00000000 _Z16ButterflyServicec
/cygdrive/c/Users/Chris/AppData/Local/Temp/cc7xwWEZ.s:352    .text._Z16ButterflyServicec:00000000 $a
/cygdrive/c/Users/Chris/AppData/Local/Temp/cc7xwWEZ.s:364    .text._Z16ButterflyServicec:00000014 $d
/cygdrive/c/Users/Chris/AppData/Local/Temp/cc7xwWEZ.s:418    .text._Z16ButterflyServicec:000000e4 $a
/cygdrive/c/Users/Chris/AppData/Local/Temp/cc7xwWEZ.s:673    .text._Z16ButterflyServicec:00000350 $d
/cygdrive/c/Users/Chris/AppData/Local/Temp/cc7xwWEZ.s:691    .text.main:00000000 main
/cygdrive/c/Users/Chris/AppData/Local/Temp/cc7xwWEZ.s:697    .text.main:00000000 $a
/cygdrive/c/Users/Chris/AppData/Local/Temp/cc7xwWEZ.s:752    .bss.kConfigMemLength:00000000 kConfigMemLength
/cygdrive/c/Users/Chris/AppData/Local/Temp/cc7xwWEZ.s:799    .data.kApplicationStartAddr:00000000 kApplicationStartAddr
/cygdrive/c/Users/Chris/AppData/Local/Temp/cc7xwWEZ.s:792    .bss.gAddress:00000000 gAddress
/cygdrive/c/Users/Chris/AppData/Local/Temp/cc7xwWEZ.s:863    .bss.gAddressPgm:00000000 gAddressPgm
/cygdrive/c/Users/Chris/AppData/Local/Temp/cc7xwWEZ.s:785    .bss.gBuffer:00000000 gBuffer
/cygdrive/c/Users/Chris/AppData/Local/Temp/cc7xwWEZ.s:806    .bss.gConfigMem:00000000 gConfigMem
/cygdrive/c/Users/Chris/AppData/Local/Temp/cc7xwWEZ.s:829    .bss.gDevice:00000000 gDevice
/cygdrive/c/Users/Chris/AppData/Local/Temp/cc7xwWEZ.s:763    .bss.gDevType:00000000 gDevType
/cygdrive/c/Users/Chris/AppData/Local/Temp/cc7xwWEZ.s:779    .bss.gRecvCommand:00000000 gRecvCommand
/cygdrive/c/Users/Chris/AppData/Local/Temp/cc7xwWEZ.s:818    .bss.purge:00000000 purge
/cygdrive/c/Users/Chris/AppData/Local/Temp/cc7xwWEZ.s:758    .data.gConfigCs:00000000 gConfigCs
/cygdrive/c/Users/Chris/AppData/Local/Temp/cc7xwWEZ.s:811    .bss.gSFBootValidChecksum:00000000 gSFBootValidChecksum
/cygdrive/c/Users/Chris/AppData/Local/Temp/cc7xwWEZ.s:870    .bss.app_code_entry:00000000 app_code_entry
/cygdrive/c/Users/Chris/AppData/Local/Temp/cc7xwWEZ.s:769    .bss.wait:00000000 wait
/cygdrive/c/Users/Chris/AppData/Local/Temp/cc7xwWEZ.s:851    .bss.pin:00000000 pin
/cygdrive/c/Users/Chris/AppData/Local/Temp/cc7xwWEZ.s:823    .bss.x:00000000 x
/cygdrive/c/Users/Chris/AppData/Local/Temp/cc7xwWEZ.s:774    .bss.uart:00000000 uart
/cygdrive/c/Users/Chris/AppData/Local/Temp/cc7xwWEZ.s:856    .bss.index:00000000 index
/cygdrive/c/Users/Chris/AppData/Local/Temp/cc7xwWEZ.s:839    .bss.gGotFirstPage:00000000 gGotFirstPage
/cygdrive/c/Users/Chris/AppData/Local/Temp/cc7xwWEZ.s:759    .data.gConfigCs:00000000 $d
/cygdrive/c/Users/Chris/AppData/Local/Temp/cc7xwWEZ.s:800    .data.kApplicationStartAddr:00000000 $d
/cygdrive/c/Users/Chris/AppData/Local/Temp/cc7xwWEZ.s:846    .bss._ZL8gRunning:00000000 _ZL8gRunning
ARM GAS  /cygdrive/c/Users/Chris/AppData/Local/Temp/cc7xwWEZ.s 			page 95


/cygdrive/c/Users/Chris/AppData/Local/Temp/cc7xwWEZ.s:874    .debug_frame:00000000 $d
/cygdrive/c/Users/Chris/AppData/Local/Temp/cc7xwWEZ.s:1048   .debug_loc:00000000 $d

UNDEFINED SYMBOLS
_Z14SerialBusyReadh
_Z11write_flashPjPhj
_Z11SerialWritehi
_Z16erase_user_flashv
_Z15SFBChecksumInitPm
_Z19SFBChecksumAddBytesPmPKci
_Z9SerialStrhPc
sector_end_map
_Z7sysInitv
_Z7pinModehh
_Z13turnOnAllLEDsv
_Z8spinLEDsj
_Z13wiggleAllPinsv
_Z19toggleOutboundPowerv
