ARM GAS  /cygdrive/c/Users/Chris/AppData/Local/Temp/ccYLs35m.s 			page 1


   1              		.cpu arm7tdmi
   2              		.fpu softvfp
   3              		.eabi_attribute 20, 1
   4              		.eabi_attribute 21, 1
   5              		.eabi_attribute 23, 3
   6              		.eabi_attribute 24, 1
   7              		.eabi_attribute 25, 1
   8              		.eabi_attribute 26, 1
   9              		.eabi_attribute 30, 4
  10              		.eabi_attribute 18, 4
  11              		.file	"nothrow.cpp"
  18 0000 C4000000 		.text
  18      02008400 
  18      00000201 
  18      FB0E0D00 
  18      01010101 
  19              	.Ltext0:
  20              		.section	.text._Z5raisei,"ax",%progbits
  21              		.align	2
  22              		.global	_Z5raisei
  23              		.type	_Z5raisei, %function
  24              	_Z5raisei:
  25              	.LFB4:
  26              		.file 1 "nothrow.cpp"
   1:nothrow.cpp   **** #include <stdlib.h>                   // for malloc and free
   2:nothrow.cpp   **** 
   3:nothrow.cpp   **** void *operator new(size_t size) throw() { return malloc(size); }
   4:nothrow.cpp   **** 
   5:nothrow.cpp   **** void operator delete(void *p) throw() { free(p); }
   6:nothrow.cpp   **** 
   7:nothrow.cpp   **** int raise(int sig) { return 0; }
  27              		.loc 1 7 0
  28              		@ Function supports interworking.
  29              		@ args = 0, pretend = 0, frame = 0
  30              		@ frame_needed = 0, uses_anonymous_args = 0
  31              		@ link register save eliminated.
  32              	.LVL0:
  33              		.loc 1 7 0
  34 0000 0000A0E3 		mov	r0, #0
  35              	.LVL1:
  36 0004 1EFF2FE1 		bx	lr
  37              	.LFE4:
  38              		.size	_Z5raisei, .-_Z5raisei
  39              		.section	.text.__aeabi_atexit,"ax",%progbits
  40              		.align	2
  41              		.global	__aeabi_atexit
  42              		.type	__aeabi_atexit, %function
  43              	__aeabi_atexit:
  44              	.LFB5:
   8:nothrow.cpp   **** 
   9:nothrow.cpp   **** extern "C" int __aeabi_atexit(void *object,
ARM GAS  /cygdrive/c/Users/Chris/AppData/Local/Temp/ccYLs35m.s 			page 2


  10:nothrow.cpp   ****                               void (*destructor)(void *),
  11:nothrow.cpp   ****                               void *dso_handle)
  45              		.loc 1 11 0
  46              		@ Function supports interworking.
  47              		@ args = 0, pretend = 0, frame = 0
  48              		@ frame_needed = 0, uses_anonymous_args = 0
  49              		@ link register save eliminated.
  50              	.LVL2:
  12:nothrow.cpp   **** {
  13:nothrow.cpp   ****   return 0;
  14:nothrow.cpp   **** }
  51              		.loc 1 14 0
  52 0000 0000A0E3 		mov	r0, #0
  53              	.LVL3:
  54 0004 1EFF2FE1 		bx	lr
  55              	.LFE5:
  56              		.size	__aeabi_atexit, .-__aeabi_atexit
  57              		.section	.text._ZdlPv,"ax",%progbits
  58              		.align	2
  59              		.global	_ZdlPv
  60              		.type	_ZdlPv, %function
  61              	_ZdlPv:
  62              	.LFB3:
  63              		.loc 1 5 0
  64              		@ Function supports interworking.
  65              		@ args = 0, pretend = 0, frame = 0
  66              		@ frame_needed = 0, uses_anonymous_args = 0
  67              	.LVL4:
  68 0000 10402DE9 		stmfd	sp!, {r4, lr}
  69              	.LCFI0:
  70              		.loc 1 5 0
  71 0004 FEFFFFEB 		bl	free
  72              	.LVL5:
  73 0008 1040BDE8 		ldmfd	sp!, {r4, lr}
  74 000c 1EFF2FE1 		bx	lr
  75              	.LFE3:
  76              		.size	_ZdlPv, .-_ZdlPv
  77              		.section	.text._Znwj,"ax",%progbits
  78              		.align	2
  79              		.global	_Znwj
  80              		.type	_Znwj, %function
  81              	_Znwj:
  82              	.LFB2:
  83              		.loc 1 3 0
  84              		@ Function supports interworking.
  85              		@ args = 0, pretend = 0, frame = 0
  86              		@ frame_needed = 0, uses_anonymous_args = 0
  87              	.LVL6:
  88 0000 10402DE9 		stmfd	sp!, {r4, lr}
  89              	.LCFI1:
  90              		.loc 1 3 0
  91 0004 FEFFFFEB 		bl	malloc
  92              	.LVL7:
  93 0008 1040BDE8 		ldmfd	sp!, {r4, lr}
  94 000c 1EFF2FE1 		bx	lr
  95              	.LFE2:
  96              		.size	_Znwj, .-_Znwj
ARM GAS  /cygdrive/c/Users/Chris/AppData/Local/Temp/ccYLs35m.s 			page 3


  97              		.section	.debug_frame,"",%progbits
  98              	.Lframe0:
  99 0000 0C000000 		.4byte	.LECIE0-.LSCIE0
 100              	.LSCIE0:
 101 0004 FFFFFFFF 		.4byte	0xffffffff
 102 0008 01       		.byte	0x1
 103 0009 00       		.ascii	"\000"
 104 000a 01       		.uleb128 0x1
 105 000b 7C       		.sleb128 -4
 106 000c 0E       		.byte	0xe
 107 000d 0C       		.byte	0xc
 108 000e 0D       		.uleb128 0xd
 109 000f 00       		.uleb128 0x0
 110              		.align	2
 111              	.LECIE0:
 112              	.LSFDE0:
 113 0010 0C000000 		.4byte	.LEFDE0-.LASFDE0
 114              	.LASFDE0:
 115 0014 00000000 		.4byte	.Lframe0
 116 0018 00000000 		.4byte	.LFB4
 117 001c 08000000 		.4byte	.LFE4-.LFB4
 118              		.align	2
 119              	.LEFDE0:
 120              	.LSFDE2:
 121 0020 0C000000 		.4byte	.LEFDE2-.LASFDE2
 122              	.LASFDE2:
 123 0024 00000000 		.4byte	.Lframe0
 124 0028 00000000 		.4byte	.LFB5
 125 002c 08000000 		.4byte	.LFE5-.LFB5
 126              		.align	2
 127              	.LEFDE2:
 128              	.LSFDE4:
 129 0030 14000000 		.4byte	.LEFDE4-.LASFDE4
 130              	.LASFDE4:
 131 0034 00000000 		.4byte	.Lframe0
 132 0038 00000000 		.4byte	.LFB3
 133 003c 10000000 		.4byte	.LFE3-.LFB3
 134 0040 44       		.byte	0x4
 135              		.4byte	.LCFI0-.LFB3
 136 0041 0E       		.byte	0xe
 137 0042 08       		.uleb128 0x8
 138 0043 8E       		.byte	0x8e
 139 0044 01       		.uleb128 0x1
 140 0045 84       		.byte	0x84
 141 0046 02       		.uleb128 0x2
 142 0047 00       		.align	2
 143              	.LEFDE4:
 144              	.LSFDE6:
 145 0048 14000000 		.4byte	.LEFDE6-.LASFDE6
 146              	.LASFDE6:
 147 004c 00000000 		.4byte	.Lframe0
 148 0050 00000000 		.4byte	.LFB2
 149 0054 10000000 		.4byte	.LFE2-.LFB2
 150 0058 44       		.byte	0x4
 151              		.4byte	.LCFI1-.LFB2
 152 0059 0E       		.byte	0xe
 153 005a 08       		.uleb128 0x8
ARM GAS  /cygdrive/c/Users/Chris/AppData/Local/Temp/ccYLs35m.s 			page 4


 154 005b 8E       		.byte	0x8e
 155 005c 01       		.uleb128 0x1
 156 005d 84       		.byte	0x84
 157 005e 02       		.uleb128 0x2
 158 005f 00       		.align	2
 159              	.LEFDE6:
 160              		.text
 161              	.Letext0: