ARM GAS  C:\Users\Chris\AppData\Local\Temp/ccu2aaaa.s 			page 1


   1              		.cpu arm7tdmi
   2              		.fpu softvfp
   3              		.eabi_attribute 20, 1
   4              		.eabi_attribute 21, 1
   5              		.eabi_attribute 23, 3
   6              		.eabi_attribute 24, 1
   7              		.eabi_attribute 25, 1
   8              		.eabi_attribute 26, 1
   9              		.eabi_attribute 30, 4
  10              		.eabi_attribute 18, 4
  11              		.file	"sbl_iap.cpp"
  18 0000 78010000 		.text
  18      02003900 
  18      00000201 
  18      FB0E0D00 
  18      01010101 
  19              	.Ltext0:
  20              		.section	.text._Z9iap_entryPjS_,"ax",%progbits
  21              		.align	2
  22              		.global	_Z9iap_entryPjS_
  23              		.type	_Z9iap_entryPjS_, %function
  24              	_Z9iap_entryPjS_:
  25              	.LFB7:
  26              		.file 1 "sbl_iap.cpp"
   1:sbl_iap.cpp   **** //-----------------------------------------------------------------------------
   2:sbl_iap.cpp   **** // Software that is described herein is for illustrative purposes only  
   3:sbl_iap.cpp   **** // which provides customers with programming information regarding the  
   4:sbl_iap.cpp   **** // products. This software is supplied "AS IS" without any warranties.  
   5:sbl_iap.cpp   **** // NXP Semiconductors assumes no responsibility or liability for the 
   6:sbl_iap.cpp   **** // use of the software, conveys no license or title under any patent, 
   7:sbl_iap.cpp   **** // copyright, or mask work right to the product. NXP Semiconductors 
   8:sbl_iap.cpp   **** // reserves the right to make changes in the software without 
   9:sbl_iap.cpp   **** // notification. NXP Semiconductors also make no representation or 
  10:sbl_iap.cpp   **** // warranty that such application will be suitable for the specified 
  11:sbl_iap.cpp   **** // use without further testing or modification. 
  12:sbl_iap.cpp   **** //-----------------------------------------------------------------------------
  13:sbl_iap.cpp   **** 
  14:sbl_iap.cpp   **** #include <LPC23XX.H>
  15:sbl_iap.cpp   **** #include "type.h"
  16:sbl_iap.cpp   **** #include "sbl_iap.h"
  17:sbl_iap.cpp   **** #include "sbl_config.h"
  18:sbl_iap.cpp   **** 
  19:sbl_iap.cpp   **** const unsigned crp __attribute__((section(".ARM.__at_0x1FC"))) = CRP;
  20:sbl_iap.cpp   **** 
  21:sbl_iap.cpp   **** const unsigned sector_start_map[MAX_FLASH_SECTOR] = {SECTOR_0_START,             \
  22:sbl_iap.cpp   **** SECTOR_1_START,SECTOR_2_START,SECTOR_3_START,SECTOR_4_START,SECTOR_5_START,      \
  23:sbl_iap.cpp   **** SECTOR_6_START,SECTOR_7_START,SECTOR_8_START,SECTOR_9_START,SECTOR_10_START,     \
  24:sbl_iap.cpp   **** SECTOR_11_START,SECTOR_12_START,SECTOR_13_START,SECTOR_14_START,SECTOR_15_START, \
  25:sbl_iap.cpp   **** SECTOR_16_START,SECTOR_17_START,SECTOR_18_START,SECTOR_19_START,SECTOR_20_START, \
  26:sbl_iap.cpp   **** SECTOR_21_START,SECTOR_22_START,SECTOR_23_START,SECTOR_24_START,SECTOR_25_START, \
  27:sbl_iap.cpp   **** SECTOR_26_START,SECTOR_27_START,SECTOR_28_START,SECTOR_29_START,SECTOR_30_START, \
ARM GAS  C:\Users\Chris\AppData\Local\Temp/ccu2aaaa.s 			page 2


  28:sbl_iap.cpp   **** SECTOR_31_START};
  29:sbl_iap.cpp   **** 
  30:sbl_iap.cpp   **** const unsigned sector_end_map[MAX_FLASH_SECTOR] = {SECTOR_0_END,SECTOR_1_END,    \
  31:sbl_iap.cpp   **** SECTOR_2_END,SECTOR_3_END,SECTOR_4_END,SECTOR_5_END,SECTOR_6_END,SECTOR_7_END,   \
  32:sbl_iap.cpp   **** SECTOR_8_END,SECTOR_9_END,SECTOR_10_END,SECTOR_11_END,SECTOR_12_END,             \
  33:sbl_iap.cpp   **** SECTOR_13_END,SECTOR_14_END,SECTOR_15_END,SECTOR_16_END,SECTOR_17_END,           \
  34:sbl_iap.cpp   **** SECTOR_18_END,SECTOR_19_END,SECTOR_20_END,SECTOR_21_END,SECTOR_22_END,           \
  35:sbl_iap.cpp   **** SECTOR_23_END,SECTOR_24_END,SECTOR_25_END,SECTOR_26_END,                         \
  36:sbl_iap.cpp   **** SECTOR_27_END,SECTOR_28_END,SECTOR_29_END,SECTOR_30_END,SECTOR_31_END};
  37:sbl_iap.cpp   **** 
  38:sbl_iap.cpp   **** unsigned param_table[5];
  39:sbl_iap.cpp   **** unsigned result_table[5];
  40:sbl_iap.cpp   **** 
  41:sbl_iap.cpp   **** unsigned cclk = CCLK;
  42:sbl_iap.cpp   **** char flash_buf[FLASH_BUF_SIZE];
  43:sbl_iap.cpp   **** 
  44:sbl_iap.cpp   **** unsigned * flash_address = 0;
  45:sbl_iap.cpp   **** unsigned byte_ctr = 0;
  46:sbl_iap.cpp   **** 
  47:sbl_iap.cpp   **** 
  48:sbl_iap.cpp   **** void write_data(unsigned cclk,unsigned flash_address,unsigned * flash_data_buf, unsigned count);
  49:sbl_iap.cpp   **** void find_erase_prepare_sector(unsigned cclk, unsigned flash_address);
  50:sbl_iap.cpp   **** void erase_sector(unsigned start_sector,unsigned end_sector,unsigned cclk);
  51:sbl_iap.cpp   **** void prepare_sector(unsigned start_sector,unsigned end_sector,unsigned cclk);
  52:sbl_iap.cpp   **** void iap_entry(unsigned param_tab[],unsigned result_tab[]);
  53:sbl_iap.cpp   **** void enable_interrupts(unsigned interrupts);
  54:sbl_iap.cpp   **** void disable_interrupts(unsigned interrupts);
  55:sbl_iap.cpp   **** 
  56:sbl_iap.cpp   **** unsigned write_flash(unsigned int * dst, unsigned char * src, unsigned no_of_bytes)
  57:sbl_iap.cpp   **** {
  58:sbl_iap.cpp   ****   unsigned i;
  59:sbl_iap.cpp   **** 
  60:sbl_iap.cpp   ****     if (flash_address == 0)
  61:sbl_iap.cpp   **** 	{
  62:sbl_iap.cpp   **** 	  /* Store flash start address */
  63:sbl_iap.cpp   **** 	  flash_address = (unsigned *)dst;
  64:sbl_iap.cpp   **** 	}
  65:sbl_iap.cpp   **** 	for( i = 0;i<no_of_bytes;i++ )
  66:sbl_iap.cpp   **** 	{
  67:sbl_iap.cpp   **** 	  flash_buf[(byte_ctr+i)] = *(src+i);
  68:sbl_iap.cpp   ****     }
  69:sbl_iap.cpp   **** 	byte_ctr = byte_ctr + no_of_bytes;
  70:sbl_iap.cpp   **** 
  71:sbl_iap.cpp   **** 	if( byte_ctr == FLASH_BUF_SIZE)
  72:sbl_iap.cpp   **** 	{
  73:sbl_iap.cpp   **** 	  /* We have accumulated enough bytes to trigger a flash write */
  74:sbl_iap.cpp   **** 	  find_erase_prepare_sector(cclk, (unsigned)flash_address);
  75:sbl_iap.cpp   ****       if(result_table[0] != CMD_SUCCESS)
  76:sbl_iap.cpp   ****       {
  77:sbl_iap.cpp   ****         while(1); /* No way to recover. Just let Windows report a write failure */
  78:sbl_iap.cpp   ****       }
  79:sbl_iap.cpp   ****       write_data(cclk,(unsigned)flash_address,(unsigned *)flash_buf,FLASH_BUF_SIZE);
  80:sbl_iap.cpp   ****       if(result_table[0] != CMD_SUCCESS)
  81:sbl_iap.cpp   ****       {
  82:sbl_iap.cpp   ****         while(1); /* No way to recover. Just let Windows report a write failure */
  83:sbl_iap.cpp   ****       }
  84:sbl_iap.cpp   **** 	  /* Reset byte counter and flash address */
ARM GAS  C:\Users\Chris\AppData\Local\Temp/ccu2aaaa.s 			page 3


  85:sbl_iap.cpp   **** 	  byte_ctr = 0;
  86:sbl_iap.cpp   **** 	  flash_address = 0;
  87:sbl_iap.cpp   **** 	}
  88:sbl_iap.cpp   ****     return(CMD_SUCCESS);
  89:sbl_iap.cpp   **** }
  90:sbl_iap.cpp   **** 
  91:sbl_iap.cpp   **** void find_erase_prepare_sector(unsigned cclk, unsigned flash_address)
  92:sbl_iap.cpp   **** {
  93:sbl_iap.cpp   ****     unsigned i;
  94:sbl_iap.cpp   ****     unsigned interrupts;
  95:sbl_iap.cpp   **** 
  96:sbl_iap.cpp   **** 
  97:sbl_iap.cpp   ****     interrupts  = VICIntEnable;
  98:sbl_iap.cpp   **** 	disable_interrupts(interrupts);
  99:sbl_iap.cpp   **** 
 100:sbl_iap.cpp   ****     for(i=USER_START_SECTOR;i<=MAX_USER_SECTOR;i++)
 101:sbl_iap.cpp   ****     {
 102:sbl_iap.cpp   ****         if(flash_address < sector_end_map[i])
 103:sbl_iap.cpp   ****         {
 104:sbl_iap.cpp   ****             if( flash_address == sector_start_map[i])
 105:sbl_iap.cpp   ****             {
 106:sbl_iap.cpp   ****                 prepare_sector(i,i,cclk);
 107:sbl_iap.cpp   ****                 erase_sector(i,i,cclk);
 108:sbl_iap.cpp   ****             }
 109:sbl_iap.cpp   ****             prepare_sector(i,i,cclk);
 110:sbl_iap.cpp   ****             break;
 111:sbl_iap.cpp   ****         }
 112:sbl_iap.cpp   ****     }
 113:sbl_iap.cpp   **** 	enable_interrupts(interrupts);
 114:sbl_iap.cpp   **** }
 115:sbl_iap.cpp   **** 
 116:sbl_iap.cpp   **** void write_data(unsigned cclk,unsigned flash_address,unsigned * flash_data_buf, unsigned count)
 117:sbl_iap.cpp   **** {
 118:sbl_iap.cpp   ****     unsigned interrupts;
 119:sbl_iap.cpp   **** 
 120:sbl_iap.cpp   ****     interrupts  = VICIntEnable;
 121:sbl_iap.cpp   **** 	disable_interrupts(interrupts);
 122:sbl_iap.cpp   ****     param_table[0] = COPY_RAM_TO_FLASH;
 123:sbl_iap.cpp   ****     param_table[1] = flash_address;
 124:sbl_iap.cpp   ****     param_table[2] = (unsigned)flash_data_buf;
 125:sbl_iap.cpp   ****     param_table[3] = count;
 126:sbl_iap.cpp   ****     param_table[4] = cclk;
 127:sbl_iap.cpp   ****     iap_entry(param_table,result_table);
 128:sbl_iap.cpp   **** 	enable_interrupts(interrupts);
 129:sbl_iap.cpp   **** }
 130:sbl_iap.cpp   **** 
 131:sbl_iap.cpp   **** void erase_sector(unsigned start_sector,unsigned end_sector,unsigned cclk)
 132:sbl_iap.cpp   **** {
 133:sbl_iap.cpp   ****     param_table[0] = ERASE_SECTOR;
 134:sbl_iap.cpp   ****     param_table[1] = start_sector;
 135:sbl_iap.cpp   ****     param_table[2] = end_sector;
 136:sbl_iap.cpp   ****     param_table[3] = cclk;
 137:sbl_iap.cpp   ****     iap_entry(param_table,result_table);
 138:sbl_iap.cpp   **** }
 139:sbl_iap.cpp   **** 
 140:sbl_iap.cpp   **** void prepare_sector(unsigned start_sector,unsigned end_sector,unsigned cclk)
 141:sbl_iap.cpp   **** {
ARM GAS  C:\Users\Chris\AppData\Local\Temp/ccu2aaaa.s 			page 4


 142:sbl_iap.cpp   ****     param_table[0] = PREPARE_SECTOR_FOR_WRITE;
 143:sbl_iap.cpp   ****     param_table[1] = start_sector;
 144:sbl_iap.cpp   ****     param_table[2] = end_sector;
 145:sbl_iap.cpp   ****     param_table[3] = cclk;
 146:sbl_iap.cpp   ****     iap_entry(param_table,result_table);
 147:sbl_iap.cpp   **** }
 148:sbl_iap.cpp   **** 
 149:sbl_iap.cpp   **** void iap_entry(unsigned param_tab[],unsigned result_tab[])
  27              	supports interworking.
  28              		@ args = 0, pretend = 0, frame = 0
  29              		@ frame_needed = 0, uses_anonymous_args = 0
  30              	.LVL0:
  31              		stmfd	sp!, {r4, lr}
  32 0000 10402DE9 	.LCFI0:
  33              	.LBB2:
  34              		.loc 1 154 0
 150:sbl_iap.cpp   **** {
 151:sbl_iap.cpp   ****     void (*iap)(unsigned [],unsigned []);
 152:sbl_iap.cpp   **** 
 153:sbl_iap.cpp   ****     iap = (void (*)(unsigned [],unsigned []))IAP_ADDRESS;
 154:sbl_iap.cpp   ****     iap(param_tab,result_tab);
  35              	 #-2147483634
  36 0004 3A31E0E3 		mov	lr, pc
  37 0008 0FE0A0E1 		bx	r3
  38 000c 13FF2FE1 	.LVL1:
  39              	.LBE2:
  40              		.loc 1 155 0
 155:sbl_iap.cpp   **** }
  41              		sp!, {r4, lr}
  42 0010 1040BDE8 		bx	lr
  43 0014 1EFF2FE1 	.LFE7:
  44              		.size	_Z9iap_entryPjS_, .-_Z9iap_entryPjS_
  45              		.section	.text._Z14prepare_sectorjjj,"ax",%progbits
  46              		.align	2
  47              		.global	_Z14prepare_sectorjjj
  48              		.type	_Z14prepare_sectorjjj, %function
  49              	_Z14prepare_sectorjjj:
  50              	.LFB6:
  51              		.loc 1 140 0
  52              		@ Function supports interworking.
  53              		@ args = 0, pretend = 0, frame = 0
  54              		@ frame_needed = 0, uses_anonymous_args = 0
  55              		@ link register save eliminated.
  56              	.LVL2:
  57              		.loc 1 142 0
  58              		ldr	ip, .L5
  59 0000 1CC09FE5 		.loc 1 144 0
  60              		str	r1, [ip, #8]
  61 0004 08108CE5 		.loc 1 146 0
  62              		ldr	r1, .L5+4
  63 0008 18109FE5 	.LVL3:
  64              		.loc 1 143 0
  65              		str	r0, [ip, #4]
  66 000c 04008CE5 		.loc 1 142 0
  67              		mov	r3, #50
  68 0010 3230A0E3 		.loc 1 146 0
  69              		mov	r0, ip
ARM GAS  C:\Users\Chris\AppData\Local\Temp/ccu2aaaa.s 			page 5


  70 0014 0C00A0E1 	.LVL4:
  71              		.loc 1 142 0
  72              		str	r3, [ip, #0]
  73 0018 00308CE5 		.loc 1 145 0
  74              		str	r2, [ip, #12]
  75 001c 0C208CE5 		.loc 1 147 0
  76              		.loc 1 146 0
  77              		b	_Z9iap_entryPjS_
  78 0020 FEFFFFEA 	.LVL5:
  79              	.L6:
  80              		.align	2
  81              	.L5:
  82              		.word	.LANCHOR0
  83 0024 00000000 		.word	.LANCHOR1
  84 0028 00000000 	.LFE6:
  85              		.size	_Z14prepare_sectorjjj, .-_Z14prepare_sectorjjj
  86              		.section	.text._Z12erase_sectorjjj,"ax",%progbits
  87              		.align	2
  88              		.global	_Z12erase_sectorjjj
  89              		.type	_Z12erase_sectorjjj, %function
  90              	_Z12erase_sectorjjj:
  91              	.LFB5:
  92              		.loc 1 131 0
  93              		@ Function supports interworking.
  94              		@ args = 0, pretend = 0, frame = 0
  95              		@ frame_needed = 0, uses_anonymous_args = 0
  96              		@ link register save eliminated.
  97              	.LVL6:
  98              		.loc 1 133 0
  99              		ldr	ip, .L9
 100 0000 1CC09FE5 		.loc 1 135 0
 101              		str	r1, [ip, #8]
 102 0004 08108CE5 		.loc 1 137 0
 103              		ldr	r1, .L9+4
 104 0008 18109FE5 	.LVL7:
 105              		.loc 1 134 0
 106              		str	r0, [ip, #4]
 107 000c 04008CE5 		.loc 1 133 0
 108              		mov	r3, #52
 109 0010 3430A0E3 		.loc 1 137 0
 110              		mov	r0, ip
 111 0014 0C00A0E1 	.LVL8:
 112              		.loc 1 133 0
 113              		str	r3, [ip, #0]
 114 0018 00308CE5 		.loc 1 136 0
 115              		str	r2, [ip, #12]
 116 001c 0C208CE5 		.loc 1 138 0
 117              		.loc 1 137 0
 118              		b	_Z9iap_entryPjS_
 119 0020 FEFFFFEA 	.LVL9:
 120              	.L10:
 121              		.align	2
 122              	.L9:
 123              		.word	.LANCHOR0
 124 0024 00000000 		.word	.LANCHOR1
 125 0028 00000000 	.LFE5:
 126              		.size	_Z12erase_sectorjjj, .-_Z12erase_sectorjjj
ARM GAS  C:\Users\Chris\AppData\Local\Temp/ccu2aaaa.s 			page 6


 127              		.section	.text._Z17enable_interruptsj,"ax",%progbits
 128              		.align	2
 129              		.global	_Z17enable_interruptsj
 130              		.type	_Z17enable_interruptsj, %function
 131              	_Z17enable_interruptsj:
 132              	.LFB8:
 133              		.loc 1 157 0
 156:sbl_iap.cpp   **** 
 157:sbl_iap.cpp   **** void enable_interrupts(unsigned interrupts)
 134              	ses_anonymous_args = 0
 135              		@ link register save eliminated.
 136              	.LVL10:
 137              		.loc 1 159 0
 138              		mvn	r3, #0
 139              		str	r0, [r3, #-4079]
 158:sbl_iap.cpp   **** {
 159:sbl_iap.cpp   ****     VICIntEnable = interrupts;
 140              	1 160 0
 141 0000 0030E0E3 		bx	lr
 142 0004 EF0F03E5 	.LFE8:
 160:sbl_iap.cpp   **** }
 143              	ize	_Z17enable_interruptsj, .-_Z17enable_interruptsj
 144 0008 1EFF2FE1 		.section	.text._Z18disable_interruptsj,"ax",%progbits
 145              		.align	2
 146              		.global	_Z18disable_interruptsj
 147              		.type	_Z18disable_interruptsj, %function
 148              	_Z18disable_interruptsj:
 149              	.LFB9:
 150              		.loc 1 162 0
 151              		@ Function supports interworking.
 152              		@ args = 0, pretend = 0, frame = 0
 161:sbl_iap.cpp   **** 
 162:sbl_iap.cpp   **** void disable_interrupts(unsigned interrupts)
 153              	eeded = 0, uses_anonymous_args = 0
 154              		@ link register save eliminated.
 155              	.LVL11:
 156              		.loc 1 164 0
 157              		mvn	r3, #0
 158              		str	r0, [r3, #-4075]
 163:sbl_iap.cpp   **** {
 164:sbl_iap.cpp   ****     VICIntEnClr = interrupts;
 159              	1 165 0
 160 0000 0030E0E3 		bx	lr
 161 0004 EB0F03E5 	.LFE9:
 165:sbl_iap.cpp   **** }
 162              	ize	_Z18disable_interruptsj, .-_Z18disable_interruptsj
 163 0008 1EFF2FE1 		.section	.text._Z10write_datajjPjj,"ax",%progbits
 164              		.align	2
 165              		.global	_Z10write_datajjPjj
 166              		.type	_Z10write_datajjPjj, %function
 167              	_Z10write_datajjPjj:
 168              	.LFB4:
 169              		.loc 1 116 0
 170              		@ Function supports interworking.
 171              		@ args = 0, pretend = 0, frame = 0
 172              		@ frame_needed = 0, uses_anonymous_args = 0
 173              	.LVL12:
ARM GAS  C:\Users\Chris\AppData\Local\Temp/ccu2aaaa.s 			page 7


 174              	.LBB3:
 175              		.loc 1 120 0
 176              		mvn	ip, #0
 177              	.LBE3:
 178              		.loc 1 116 0
 179 0000 00C0E0E3 		stmfd	sp!, {r4, r5, r6, r7, r8, lr}
 180              	.LCFI1:
 181              	.LBB4:
 182 0004 F0412DE9 		.loc 1 120 0
 183              		ldr	r7, [ip, #-4079]
 184              	.LVL13:
 185              	.LBE4:
 186 0008 EF7F1CE5 		.loc 1 116 0
 187              		mov	r8, r0
 188              	.LBB5:
 189              		.loc 1 121 0
 190 000c 0080A0E1 		mov	r0, r7
 191              	.LVL14:
 192              	.LBE5:
 193 0010 0700A0E1 		.loc 1 116 0
 194              		mov	r4, r1
 195              		mov	r5, r2
 196              		mov	r6, r3
 197 0014 0140A0E1 	.LBB6:
 198 0018 0250A0E1 		.loc 1 121 0
 199 001c 0360A0E1 		bl	_Z18disable_interruptsj
 200              	.LVL15:
 201              		.loc 1 122 0
 202 0020 FEFFFFEB 		ldr	r2, .L17
 203              		mov	r3, #51
 204              		.loc 1 127 0
 205 0024 20209FE5 		mov	r0, r2
 206 0028 3330A0E3 		ldr	r1, .L17+4
 207              		.loc 1 122 0
 208 002c 0200A0E1 		stmia	r2, {r3, r4, r5, r6}	@ phole stm
 209 0030 18109FE5 		.loc 1 126 0
 210              		str	r8, [r2, #16]
 211 0034 780082E8 		.loc 1 127 0
 212              		bl	_Z9iap_entryPjS_
 213 0038 108082E5 		.loc 1 128 0
 214              		mov	r0, r7
 215 003c FEFFFFEB 	.LBE6:
 216              		.loc 1 129 0
 217 0040 0700A0E1 		ldmfd	sp!, {r4, r5, r6, r7, r8, lr}
 218              	.LBB7:
 219              		.loc 1 128 0
 220 0044 F041BDE8 		b	_Z17enable_interruptsj
 221              	.L18:
 222              		.align	2
 223 0048 FEFFFFEA 	.L17:
 224              		.word	.LANCHOR0
 225              		.word	.LANCHOR1
 226              	.LBE7:
 227 004c 00000000 	.LFE4:
 228 0050 00000000 		.size	_Z10write_datajjPjj, .-_Z10write_datajjPjj
 229              		.section	.text._Z25find_erase_prepare_sectorjj,"ax",%progbits
 230              		.align	2
ARM GAS  C:\Users\Chris\AppData\Local\Temp/ccu2aaaa.s 			page 8


 231              		.global	_Z25find_erase_prepare_sectorjj
 232              		.type	_Z25find_erase_prepare_sectorjj, %function
 233              	_Z25find_erase_prepare_sectorjj:
 234              	.LFB3:
 235              		.loc 1 91 0
 236              		@ Function supports interworking.
 237              		@ args = 0, pretend = 0, frame = 0
 238              		@ frame_needed = 0, uses_anonymous_args = 0
 239              	.LVL16:
 240              	.LBB8:
 241              		.loc 1 97 0
 242              		mvn	r3, #0
 243              	.LBE8:
 244              		.loc 1 91 0
 245 0000 0030E0E3 		stmfd	sp!, {r4, r5, r6, r7, r8, lr}
 246              	.LCFI2:
 247              	.LBB9:
 248 0004 F0412DE9 		.loc 1 97 0
 249              		ldr	r7, [r3, #-4079]
 250              	.LVL17:
 251              	.LBE9:
 252 0008 EF7F13E5 		.loc 1 91 0
 253              		mov	r5, r0
 254              	.LBB10:
 255              		.loc 1 98 0
 256 000c 0050A0E1 		mov	r0, r7
 257              	.LVL18:
 258              	.LBE10:
 259 0010 0700A0E1 		.loc 1 91 0
 260              		mov	r6, r1
 261              	.LBB11:
 262              		.loc 1 98 0
 263 0014 0160A0E1 		bl	_Z18disable_interruptsj
 264              	.LVL19:
 265              		mov	r4, #4
 266 0018 FEFFFFEB 	.LVL20:
 267              	.L23:
 268 001c 0440A0E3 		.loc 1 102 0
 269              		ldr	r3, .L25
 270              		ldr	r3, [r3, r4, asl #2]
 271              		cmp	r6, r3
 272 0020 64309FE5 		bcs	.L20
 273 0024 043193E7 		.loc 1 104 0
 274 0028 030056E1 		ldr	r3, .L25+4
 275 002c 1000002A 		ldr	r3, [r3, r4, asl #2]
 276              		cmp	r6, r3
 277 0030 58309FE5 		bne	.L21
 278 0034 043193E7 		.loc 1 106 0
 279 0038 030056E1 		mov	r0, r4
 280 003c 0700001A 		mov	r1, r4
 281              		mov	r2, r5
 282 0040 0400A0E1 		bl	_Z14prepare_sectorjjj
 283 0044 0410A0E1 		.loc 1 107 0
 284 0048 0520A0E1 		mov	r0, r4
 285 004c FEFFFFEB 		mov	r1, r4
 286              		mov	r2, r5
 287 0050 0400A0E1 		bl	_Z12erase_sectorjjj
ARM GAS  C:\Users\Chris\AppData\Local\Temp/ccu2aaaa.s 			page 9


 288 0054 0410A0E1 	.L21:
 289 0058 0520A0E1 		.loc 1 109 0
 290 005c FEFFFFEB 		mov	r0, r4
 291              		mov	r2, r5
 292              		mov	r1, r4
 293 0060 0400A0E1 	.LVL21:
 294 0064 0520A0E1 		bl	_Z14prepare_sectorjjj
 295 0068 0410A0E1 		b	.L22
 296              	.LVL22:
 297 006c FEFFFFEB 	.L20:
 298 0070 020000EA 		.loc 1 100 0
 299              		add	r4, r4, #1
 300              		cmp	r4, #27
 301              		bne	.L23
 302 0074 014084E2 	.L22:
 303 0078 1B0054E3 		.loc 1 113 0
 304 007c E7FFFF1A 		mov	r0, r7
 305              	.LBE11:
 306              		.loc 1 114 0
 307 0080 0700A0E1 		ldmfd	sp!, {r4, r5, r6, r7, r8, lr}
 308              	.LBB12:
 309              		.loc 1 113 0
 310 0084 F041BDE8 		b	_Z17enable_interruptsj
 311              	.L26:
 312              		.align	2
 313 0088 FEFFFFEA 	.L25:
 314              		.word	.LANCHOR2
 315              		.word	.LANCHOR3
 316              	.LBE12:
 317 008c 00000000 	.LFE3:
 318 0090 00000000 		.size	_Z25find_erase_prepare_sectorjj, .-_Z25find_erase_prepare_sectorjj
 319              		.section	.text._Z11write_flashPjPhj,"ax",%progbits
 320              		.align	2
 321              		.global	_Z11write_flashPjPhj
 322              		.type	_Z11write_flashPjPhj, %function
 323              	_Z11write_flashPjPhj:
 324              	.LFB2:
 325              		.loc 1 56 0
 326              		@ Function supports interworking.
 327              		@ args = 0, pretend = 0, frame = 0
 328              		@ frame_needed = 0, uses_anonymous_args = 0
 329              	.LVL23:
 330              	.LBB13:
 331              		.loc 1 60 0
 332              		ldr	ip, .L37
 333              		ldr	r3, [ip, #0]
 334              		cmp	r3, #0
 335 0000 B4C09FE5 		.loc 1 67 0
 336 0004 00309CE5 		ldr	r3, .L37+4
 337 0008 000053E3 	.LBE13:
 338              		.loc 1 56 0
 339 000c AC309FE5 		stmfd	sp!, {r4, r5, r6, r7, r8, lr}
 340              	.LCFI3:
 341              		.loc 1 56 0
 342 0010 F0412DE9 		mov	r4, r2
 343              	.LBB14:
 344              		.loc 1 67 0
ARM GAS  C:\Users\Chris\AppData\Local\Temp/ccu2aaaa.s 			page 10


 345 0014 0240A0E1 		ldr	r2, [r3, #0]
 346              	.LVL24:
 347              		ldr	r3, .L37+8
 348 0018 002093E5 		.loc 1 63 0
 349              		streq	r0, [ip, #0]
 350 001c A0309FE5 		.loc 1 67 0
 351              		add	ip, r3, r2
 352 0020 00008C05 		mov	r0, #0
 353              	.LVL25:
 354 0024 02C083E0 		b	.L29
 355 0028 0000A0E3 	.L30:
 356              		ldrb	r3, [r1, r0]	@ zero_extendqisi2
 357 002c 020000EA 		strb	r3, [ip, #-1]
 358              		.loc 1 65 0
 359 0030 0030D1E7 		add	r0, r0, #1
 360 0034 01304CE5 	.L29:
 361              		cmp	r0, r4
 362 0038 010080E2 		add	ip, ip, #1
 363              		bcc	.L30
 364 003c 040050E1 		.loc 1 69 0
 365 0040 01C08CE2 		add	r4, r4, r2
 366 0044 F9FFFF3A 	.LVL26:
 367              		ldr	r8, .L37+4
 368 0048 024084E0 		.loc 1 71 0
 369              		cmp	r4, #512
 370 004c 6C809FE5 		.loc 1 69 0
 371              		str	r4, [r8, #0]
 372 0050 020C54E3 		.loc 1 71 0
 373              		bne	.L31
 374 0054 004088E5 		.loc 1 74 0
 375              		ldr	r6, .L37+12
 376 0058 1400001A 		ldr	r5, .L37
 377              		.loc 1 75 0
 378 005c 64609FE5 		ldr	r7, .L37+16
 379 0060 54509FE5 		.loc 1 74 0
 380              		ldr	r0, [r6, #0]
 381 0064 60709FE5 	.LVL27:
 382              		ldr	r1, [r5, #0]
 383 0068 000096E5 	.LVL28:
 384              		bl	_Z25find_erase_prepare_sectorjj
 385 006c 001095E5 		.loc 1 75 0
 386              		ldr	r3, [r7, #0]
 387 0070 FEFFFFEB 		cmp	r3, #0
 388              		beq	.L32
 389 0074 003097E5 	.L33:
 390 0078 000053E3 		b	.L33
 391 007c 0000000A 	.L32:
 392              		.loc 1 79 0
 393 0080 FEFFFFEA 		mov	r3, r4
 394              		ldr	r0, [r6, #0]
 395              		ldr	r1, [r5, #0]
 396 0084 0430A0E1 		ldr	r2, .L37+8
 397 0088 000096E5 		bl	_Z10write_datajjPjj
 398 008c 001095E5 		.loc 1 80 0
 399 0090 2C209FE5 		ldr	r3, [r7, #0]
 400 0094 FEFFFFEB 		cmp	r3, #0
 401              		.loc 1 86 0
ARM GAS  C:\Users\Chris\AppData\Local\Temp/ccu2aaaa.s 			page 11


 402 0098 003097E5 		streq	r3, [r5, #0]
 403 009c 000053E3 		.loc 1 85 0
 404              		streq	r3, [r8, #0]
 405 00a0 00308505 		.loc 1 80 0
 406              		beq	.L31
 407 00a4 00308805 	.L35:
 408              		b	.L35
 409 00a8 0000000A 	.LVL29:
 410              	.L31:
 411 00ac FEFFFFEA 	.LBE14:
 412              		.loc 1 89 0
 413              		mov	r0, #0
 414              	.LVL30:
 415              		ldmfd	sp!, {r4, r5, r6, r7, r8, lr}
 416 00b0 0000A0E3 		bx	lr
 417              	.L38:
 418 00b4 F041BDE8 		.align	2
 419 00b8 1EFF2FE1 	.L37:
 420              		.word	.LANCHOR4
 421              		.word	.LANCHOR5
 422              		.word	.LANCHOR6
 423 00bc 00000000 		.word	.LANCHOR7
 424 00c0 00000000 		.word	.LANCHOR1
 425 00c4 00000000 	.LFE2:
 426 00c8 00000000 		.size	_Z11write_flashPjPhj, .-_Z11write_flashPjPhj
 427 00cc 00000000 		.section	.text._Z17execute_user_codev,"ax",%progbits
 428              		.align	2
 429              		.global	_Z17execute_user_codev
 430              		.type	_Z17execute_user_codev, %function
 431              	_Z17execute_user_codev:
 432              	.LFB10:
 433              		.loc 1 169 0
 434              		@ Function supports interworking.
 435              		@ args = 0, pretend = 0, frame = 0
 166:sbl_iap.cpp   **** 
 167:sbl_iap.cpp   **** void (*user_code_entry)(void);
 168:sbl_iap.cpp   **** 
 169:sbl_iap.cpp   **** void execute_user_code(void)
 436              	= 0, uses_anonymous_args = 0
 437              		.loc 1 172 0
 438              		ldr	r3, .L41
 439              		mov	r2, #16384
 170:sbl_iap.cpp   **** {
 171:sbl_iap.cpp   **** 
 172:sbl_iap.cpp   ****     user_code_entry =  (void (*)(void))USER_FLASH_START;
 440              	c 1 169 0
 441 0000 18309FE5 		stmfd	sp!, {r4, lr}
 442 0004 0129A0E3 	.LCFI4:
 443              		.loc 1 172 0
 444 0008 10402DE9 		str	r2, [r3, #0]
 445              		.loc 1 174 0
 446              		mov	lr, pc
 447 000c 002083E5 		bx	r2
 173:sbl_iap.cpp   **** 
 174:sbl_iap.cpp   ****     user_code_entry();
 448              	175 0
 449 0010 0FE0A0E1 		ldmfd	sp!, {r4, lr}
ARM GAS  C:\Users\Chris\AppData\Local\Temp/ccu2aaaa.s 			page 12


 450 0014 12FF2FE1 		bx	lr
 175:sbl_iap.cpp   **** }
 451              	2:
 452 0018 1040BDE8 		.align	2
 453 001c 1EFF2FE1 	.L41:
 454              		.word	.LANCHOR8
 455              	.LFE10:
 456              		.size	_Z17execute_user_codev, .-_Z17execute_user_codev
 457 0020 00000000 		.section	.text._Z17user_code_presentv,"ax",%progbits
 458              		.align	2
 459              		.global	_Z17user_code_presentv
 460              		.type	_Z17user_code_presentv, %function
 461              	_Z17user_code_presentv:
 462              	.LFB11:
 463              		.loc 1 177 0
 464              		@ Function supports interworking.
 465              		@ args = 0, pretend = 0, frame = 0
 176:sbl_iap.cpp   **** 
 177:sbl_iap.cpp   **** BOOL user_code_present(void)
 466              	 = 0, uses_anonymous_args = 0
 467              		.loc 1 179 0
 468              		ldr	r2, .L45
 469              		.loc 1 177 0
 178:sbl_iap.cpp   **** {
 179:sbl_iap.cpp   ****     param_table[0] = BLANK_CHECK_SECTOR;
 470              	fd	sp!, {r4, lr}
 471 0000 38209FE5 	.LCFI5:
 472              		.loc 1 182 0
 473 0004 10402DE9 		ldr	r4, .L45+4
 474              		.loc 1 180 0
 180:sbl_iap.cpp   ****     param_table[1] = USER_START_SECTOR;
 181:sbl_iap.cpp   ****     param_table[2] = USER_START_SECTOR;
 182:sbl_iap.cpp   ****     iap_entry(param_table,result_table);
 475              	ip, #4
 476 0008 34409FE5 		.loc 1 179 0
 477              		mov	r3, #53
 478 000c 04C0A0E3 		.loc 1 182 0
 479              		mov	r0, r2
 480 0010 3530A0E3 		mov	r1, r4
 481              		.loc 1 179 0
 482 0014 0200A0E1 		str	r3, [r2, #0]
 483 0018 0410A0E1 		.loc 1 181 0
 484              		str	ip, [r2, #8]
 485 001c 003082E5 		.loc 1 180 0
 486              		str	ip, [r2, #4]
 487 0020 08C082E5 		.loc 1 182 0
 488              		bl	_Z9iap_entryPjS_
 489 0024 04C082E5 		ldr	r0, [r4, #0]
 490              		.loc 1 191 0
 491 0028 FEFFFFEB 		subs	r0, r0, #0
 492 002c 000094E5 		movne	r0, #1
 183:sbl_iap.cpp   **** 	if( result_table[0] == CMD_SUCCESS )
 184:sbl_iap.cpp   **** 	{
 185:sbl_iap.cpp   **** 	    return (FALSE);
 186:sbl_iap.cpp   **** 	}
 187:sbl_iap.cpp   **** 	else
 188:sbl_iap.cpp   **** 	{
ARM GAS  C:\Users\Chris\AppData\Local\Temp/ccu2aaaa.s 			page 13


 189:sbl_iap.cpp   **** 	    return (TRUE);
 190:sbl_iap.cpp   **** 	}
 191:sbl_iap.cpp   **** }
 493              	r}
 494 0030 000050E2 		bx	lr
 495 0034 0100A013 	.L46:
 496 0038 1040BDE8 		.align	2
 497 003c 1EFF2FE1 	.L45:
 498              		.word	.LANCHOR0
 499              		.word	.LANCHOR1
 500              	.LFE11:
 501 0040 00000000 		.size	_Z17user_code_presentv, .-_Z17user_code_presentv
 502 0044 00000000 		.section	.text._Z19check_isp_entry_pinv,"ax",%progbits
 503              		.align	2
 504              		.global	_Z19check_isp_entry_pinv
 505              		.type	_Z19check_isp_entry_pinv, %function
 506              	_Z19check_isp_entry_pinv:
 507              	.LFB12:
 508              		.loc 1 193 0
 509              		@ Function supports interworking.
 510              		@ args = 0, pretend = 0, frame = 0
 192:sbl_iap.cpp   **** 
 193:sbl_iap.cpp   **** void check_isp_entry_pin(void)
 511              	0, uses_anonymous_args = 0
 512              		@ link register save eliminated.
 513              		.loc 1 195 0
 514              		ldr	r3, .L50
 515              		ldr	r3, [r3, #0]
 194:sbl_iap.cpp   **** {
 195:sbl_iap.cpp   ****     if( (*(volatile unsigned *)ISP_ENTRY_GPIO_REG) & (0x1<<ISP_ENTRY_PIN) )
 516              	r3, #64
 517 0000 0C309FE5 		bxeq	lr
 518 0004 003093E5 		.loc 1 203 0
 519 0008 400013E3 		.loc 1 197 0
 520 000c 1EFF2F01 		b	_Z17execute_user_codev
 196:sbl_iap.cpp   **** 	{
 197:sbl_iap.cpp   **** 	    execute_user_code();
 198:sbl_iap.cpp   **** 	}
 199:sbl_iap.cpp   **** 	else
 200:sbl_iap.cpp   **** 	{
 201:sbl_iap.cpp   **** 	    // Enter ISP mode
 202:sbl_iap.cpp   **** 	}		 
 203:sbl_iap.cpp   **** }
 521              	
 522              		.align	2
 523 0010 FEFFFFEA 	.L50:
 524              		.word	-536707072
 525              	.LFE12:
 526              		.size	_Z19check_isp_entry_pinv, .-_Z19check_isp_entry_pinv
 527 0014 008002E0 		.section	.text._Z16erase_user_flashv,"ax",%progbits
 528              		.align	2
 529              		.global	_Z16erase_user_flashv
 530              		.type	_Z16erase_user_flashv, %function
 531              	_Z16erase_user_flashv:
 532              	.LFB13:
 533              		.loc 1 205 0
 534              		@ Function supports interworking.
ARM GAS  C:\Users\Chris\AppData\Local\Temp/ccu2aaaa.s 			page 14


 535              		@ args = 0, pretend = 0, frame = 0
 204:sbl_iap.cpp   **** 
 205:sbl_iap.cpp   **** void erase_user_flash(void)
 536              	d = 0, uses_anonymous_args = 0
 537              		stmfd	sp!, {r4, lr}
 538              	.LCFI6:
 539              		.loc 1 207 0
 540 0000 10402DE9 		ldr	r4, .L56
 541              		mov	r0, #4
 206:sbl_iap.cpp   **** {
 207:sbl_iap.cpp   ****     prepare_sector(USER_START_SECTOR,MAX_USER_SECTOR,cclk);
 542              	1, #26
 543 0004 38409FE5 		ldr	r2, [r4, #0]
 544 0008 0400A0E3 		bl	_Z14prepare_sectorjjj
 545 000c 1A10A0E3 		.loc 1 208 0
 546 0010 002094E5 		ldr	r2, [r4, #0]
 547 0014 FEFFFFEB 		mov	r0, #4
 208:sbl_iap.cpp   ****     erase_sector(USER_START_SECTOR,MAX_USER_SECTOR,cclk);
 548              	1, #26
 549 0018 002094E5 		bl	_Z12erase_sectorjjj
 550 001c 0400A0E3 		.loc 1 209 0
 551 0020 1A10A0E3 		ldr	r3, .L56+4
 552 0024 FEFFFFEB 		ldr	r3, [r3, #0]
 209:sbl_iap.cpp   **** 	if(result_table[0] != CMD_SUCCESS)
 553              	r3, #0
 554 0028 18309FE5 		beq	.L55
 555 002c 003093E5 	.L54:
 556 0030 000053E3 		b	.L54
 557 0034 0000000A 	.L55:
 558              		.loc 1 213 0
 559 0038 FEFFFFEA 		ldmfd	sp!, {r4, lr}
 560              		bx	lr
 210:sbl_iap.cpp   ****     {
 211:sbl_iap.cpp   ****       while(1); /* No way to recover. Just let Windows report a write failure */
 212:sbl_iap.cpp   ****     }
 213:sbl_iap.cpp   **** }
 561              	align	2
 562 003c 1040BDE8 	.L56:
 563 0040 1EFF2FE1 		.word	.LANCHOR7
 564              		.word	.LANCHOR1
 565              	.LFE13:
 566              		.size	_Z16erase_user_flashv, .-_Z16erase_user_flashv
 567 0044 00000000 		.global	crp
 568 0048 00000000 		.global	sector_start_map
 569              		.global	sector_end_map
 570              		.global	param_table
 571              		.global	result_table
 572              		.global	cclk
 573              		.global	flash_buf
 574              		.global	flash_address
 575              		.global	byte_ctr
 576              		.global	user_code_entry
 577              		.section	.bss.user_code_entry,"aw",%nobits
 578              		.align	2
 579              		.set	.LANCHOR8,. + 0
 580              		.type	user_code_entry, %object
 581              		.size	user_code_entry, 4
ARM GAS  C:\Users\Chris\AppData\Local\Temp/ccu2aaaa.s 			page 15


 582              	user_code_entry:
 583              		.space	4
 584              		.section	.bss.flash_address,"aw",%nobits
 585              		.align	2
 586              		.set	.LANCHOR4,. + 0
 587 0000 00000000 		.type	flash_address, %object
 588              		.size	flash_address, 4
 589              	flash_address:
 590              		.space	4
 591              		.section	.data.cclk,"aw",%progbits
 592              		.align	2
 593              		.set	.LANCHOR7,. + 0
 594 0000 00000000 		.type	cclk, %object
 595              		.size	cclk, 4
 596              	cclk:
 597              		.word	72000
 598              		.section	.bss.result_table,"aw",%nobits
 599              		.align	2
 600              		.set	.LANCHOR1,. + 0
 601 0000 40190100 		.type	result_table, %object
 602              		.size	result_table, 20
 603              	result_table:
 604              		.space	20
 605              		.section	.bss.param_table,"aw",%nobits
 606              		.align	2
 607              		.set	.LANCHOR0,. + 0
 608 0000 00000000 		.type	param_table, %object
 608      00000000 
 608      00000000 
 608      00000000 
 608      00000000 
 609              		.size	param_table, 20
 610              	param_table:
 611              		.space	20
 612              		.section	.bss.flash_buf,"aw",%nobits
 613              		.set	.LANCHOR6,. + 0
 614              		.type	flash_buf, %object
 615 0000 00000000 		.size	flash_buf, 512
 615      00000000 
 615      00000000 
 615      00000000 
 615      00000000 
 616              	flash_buf:
 617              		.space	512
 618              		.section	.bss.byte_ctr,"aw",%nobits
 619              		.align	2
 620              		.set	.LANCHOR5,. + 0
 621 0000 00000000 		.type	byte_ctr, %object
 621      00000000 
 621      00000000 
 621      00000000 
 621      00000000 
 622              		.size	byte_ctr, 4
 623              	byte_ctr:
 624              		.space	4
 625              		.section	.ARM.__at_0x1FC,"a",%progbits
 626              		.align	2
ARM GAS  C:\Users\Chris\AppData\Local\Temp/ccu2aaaa.s 			page 16


 627              		.type	crp, %object
 628 0000 00000000 		.size	crp, 4
 629              	crp:
 630              		.word	287454020
 631              		.section	.rodata.sector_end_map,"a",%progbits
 632              		.align	2
 633              		.set	.LANCHOR2,. + 0
 634 0000 44332211 		.type	sector_end_map, %object
 635              		.size	sector_end_map, 128
 636              	sector_end_map:
 637              		.word	4095
 638              		.word	8191
 639              		.word	12287
 640              		.word	16383
 641 0000 FF0F0000 		.word	20479
 642 0004 FF1F0000 		.word	24575
 643 0008 FF2F0000 		.word	28671
 644 000c FF3F0000 		.word	32767
 645 0010 FF4F0000 		.word	65535
 646 0014 FF5F0000 		.word	98303
 647 0018 FF6F0000 		.word	131071
 648 001c FF7F0000 		.word	163839
 649 0020 FFFF0000 		.word	196607
 650 0024 FF7F0100 		.word	229375
 651 0028 FFFF0100 		.word	262143
 652 002c FF7F0200 		.word	294911
 653 0030 FFFF0200 		.word	327679
 654 0034 FF7F0300 		.word	360447
 655 0038 FFFF0300 		.word	393215
 656 003c FF7F0400 		.word	425983
 657 0040 FFFF0400 		.word	458751
 658 0044 FF7F0500 		.word	491519
 659 0048 FFFF0500 		.word	495615
 660 004c FF7F0600 		.word	499711
 661 0050 FFFF0600 		.word	503807
 662 0054 FF7F0700 		.word	507903
 663 0058 FF8F0700 		.word	511999
 664 005c FF9F0700 		.word	516095
 665 0060 FFAF0700 		.word	-1
 666 0064 FFBF0700 		.word	-1
 667 0068 FFCF0700 		.word	-1
 668 006c FFDF0700 		.word	-1
 669 0070 FFFFFFFF 		.section	.rodata.sector_start_map,"a",%progbits
 670 0074 FFFFFFFF 		.align	2
 671 0078 FFFFFFFF 		.set	.LANCHOR3,. + 0
 672 007c FFFFFFFF 		.type	sector_start_map, %object
 673              		.size	sector_start_map, 128
 674              	sector_start_map:
 675              		.word	0
 676              		.word	4096
 677              		.word	8192
 678              		.word	12288
 679 0000 00000000 		.word	16384
 680 0004 00100000 		.word	20480
 681 0008 00200000 		.word	24576
 682 000c 00300000 		.word	28672
 683 0010 00400000 		.word	32768
ARM GAS  C:\Users\Chris\AppData\Local\Temp/ccu2aaaa.s 			page 17


 684 0014 00500000 		.word	65536
 685 0018 00600000 		.word	98304
 686 001c 00700000 		.word	131072
 687 0020 00800000 		.word	163840
 688 0024 00000100 		.word	196608
 689 0028 00800100 		.word	229376
 690 002c 00000200 		.word	262144
 691 0030 00800200 		.word	294912
 692 0034 00000300 		.word	327680
 693 0038 00800300 		.word	360448
 694 003c 00000400 		.word	393216
 695 0040 00800400 		.word	425984
 696 0044 00000500 		.word	458752
 697 0048 00800500 		.word	491520
 698 004c 00000600 		.word	495616
 699 0050 00800600 		.word	499712
 700 0054 00000700 		.word	503808
 701 0058 00800700 		.word	507904
 702 005c 00900700 		.word	512000
 703 0060 00A00700 		.word	-1
 704 0064 00B00700 		.word	-1
 705 0068 00C00700 		.word	-1
 706 006c 00D00700 		.word	-1
 707 0070 FFFFFFFF 		.section	.debug_frame,"",%progbits
 708 0074 FFFFFFFF 	.Lframe0:
 709 0078 FFFFFFFF 		.4byte	.LECIE0-.LSCIE0
 710 007c FFFFFFFF 	.LSCIE0:
 711              		.4byte	0xffffffff
 712              		.byte	0x1
 713 0000 0C000000 		.ascii	"\000"
 714              		.uleb128 0x1
 715 0004 FFFFFFFF 		.sleb128 -4
 716 0008 01       		.byte	0xe
 717 0009 00       		.byte	0xc
 718 000a 01       		.uleb128 0xd
 719 000b 7C       		.uleb128 0x0
 720 000c 0E       		.align	2
 721 000d 0C       	.LECIE0:
 722 000e 0D       	.LSFDE0:
 723 000f 00       		.4byte	.LEFDE0-.LASFDE0
 724              	.LASFDE0:
 725              		.4byte	.Lframe0
 726              		.4byte	.LFB7
 727 0010 14000000 		.4byte	.LFE7-.LFB7
 728              		.byte	0x4
 729 0014 00000000 		.4byte	.LCFI0-.LFB7
 730 0018 00000000 		.byte	0xe
 731 001c 18000000 		.uleb128 0x8
 732 0020 44       		.byte	0x8e
 733              		.uleb128 0x1
 734 0021 0E       		.byte	0x84
 735 0022 08       		.uleb128 0x2
 736 0023 8E       		.align	2
 737 0024 01       	.LEFDE0:
 738 0025 84       	.LSFDE2:
 739 0026 02       		.4byte	.LEFDE2-.LASFDE2
 740 0027 00       	.LASFDE2:
ARM GAS  C:\Users\Chris\AppData\Local\Temp/ccu2aaaa.s 			page 18


 741              		.4byte	.Lframe0
 742              		.4byte	.LFB6
 743 0028 0C000000 		.4byte	.LFE6-.LFB6
 744              		.align	2
 745 002c 00000000 	.LEFDE2:
 746 0030 00000000 	.LSFDE4:
 747 0034 2C000000 		.4byte	.LEFDE4-.LASFDE4
 748              	.LASFDE4:
 749              		.4byte	.Lframe0
 750              		.4byte	.LFB5
 751 0038 0C000000 		.4byte	.LFE5-.LFB5
 752              		.align	2
 753 003c 00000000 	.LEFDE4:
 754 0040 00000000 	.LSFDE6:
 755 0044 2C000000 		.4byte	.LEFDE6-.LASFDE6
 756              	.LASFDE6:
 757              		.4byte	.Lframe0
 758              		.4byte	.LFB8
 759 0048 0C000000 		.4byte	.LFE8-.LFB8
 760              		.align	2
 761 004c 00000000 	.LEFDE6:
 762 0050 00000000 	.LSFDE8:
 763 0054 0C000000 		.4byte	.LEFDE8-.LASFDE8
 764              	.LASFDE8:
 765              		.4byte	.Lframe0
 766              		.4byte	.LFB9
 767 0058 0C000000 		.4byte	.LFE9-.LFB9
 768              		.align	2
 769 005c 00000000 	.LEFDE8:
 770 0060 00000000 	.LSFDE10:
 771 0064 0C000000 		.4byte	.LEFDE10-.LASFDE10
 772              	.LASFDE10:
 773              		.4byte	.Lframe0
 774              		.4byte	.LFB4
 775 0068 1C000000 		.4byte	.LFE4-.LFB4
 776              		.byte	0x4
 777 006c 00000000 		.4byte	.LCFI1-.LFB4
 778 0070 00000000 		.byte	0xe
 779 0074 54000000 		.uleb128 0x18
 780 0078 48       		.byte	0x8e
 781              		.uleb128 0x1
 782 0079 0E       		.byte	0x88
 783 007a 18       		.uleb128 0x2
 784 007b 8E       		.byte	0x87
 785 007c 01       		.uleb128 0x3
 786 007d 88       		.byte	0x86
 787 007e 02       		.uleb128 0x4
 788 007f 87       		.byte	0x85
 789 0080 03       		.uleb128 0x5
 790 0081 86       		.byte	0x84
 791 0082 04       		.uleb128 0x6
 792 0083 85       		.align	2
 793 0084 05       	.LEFDE10:
 794 0085 84       	.LSFDE12:
 795 0086 06       		.4byte	.LEFDE12-.LASFDE12
 796 0087 00       	.LASFDE12:
 797              		.4byte	.Lframe0
ARM GAS  C:\Users\Chris\AppData\Local\Temp/ccu2aaaa.s 			page 19


 798              		.4byte	.LFB3
 799 0088 1C000000 		.4byte	.LFE3-.LFB3
 800              		.byte	0x4
 801 008c 00000000 		.4byte	.LCFI2-.LFB3
 802 0090 00000000 		.byte	0xe
 803 0094 94000000 		.uleb128 0x18
 804 0098 48       		.byte	0x8e
 805              		.uleb128 0x1
 806 0099 0E       		.byte	0x88
 807 009a 18       		.uleb128 0x2
 808 009b 8E       		.byte	0x87
 809 009c 01       		.uleb128 0x3
 810 009d 88       		.byte	0x86
 811 009e 02       		.uleb128 0x4
 812 009f 87       		.byte	0x85
 813 00a0 03       		.uleb128 0x5
 814 00a1 86       		.byte	0x84
 815 00a2 04       		.uleb128 0x6
 816 00a3 85       		.align	2
 817 00a4 05       	.LEFDE12:
 818 00a5 84       	.LSFDE14:
 819 00a6 06       		.4byte	.LEFDE14-.LASFDE14
 820 00a7 00       	.LASFDE14:
 821              		.4byte	.Lframe0
 822              		.4byte	.LFB2
 823 00a8 1C000000 		.4byte	.LFE2-.LFB2
 824              		.byte	0x4
 825 00ac 00000000 		.4byte	.LCFI3-.LFB2
 826 00b0 00000000 		.byte	0xe
 827 00b4 D0000000 		.uleb128 0x18
 828 00b8 54       		.byte	0x8e
 829              		.uleb128 0x1
 830 00b9 0E       		.byte	0x88
 831 00ba 18       		.uleb128 0x2
 832 00bb 8E       		.byte	0x87
 833 00bc 01       		.uleb128 0x3
 834 00bd 88       		.byte	0x86
 835 00be 02       		.uleb128 0x4
 836 00bf 87       		.byte	0x85
 837 00c0 03       		.uleb128 0x5
 838 00c1 86       		.byte	0x84
 839 00c2 04       		.uleb128 0x6
 840 00c3 85       		.align	2
 841 00c4 05       	.LEFDE14:
 842 00c5 84       	.LSFDE16:
 843 00c6 06       		.4byte	.LEFDE16-.LASFDE16
 844 00c7 00       	.LASFDE16:
 845              		.4byte	.Lframe0
 846              		.4byte	.LFB10
 847 00c8 14000000 		.4byte	.LFE10-.LFB10
 848              		.byte	0x4
 849 00cc 00000000 		.4byte	.LCFI4-.LFB10
 850 00d0 00000000 		.byte	0xe
 851 00d4 24000000 		.uleb128 0x8
 852 00d8 4C       		.byte	0x8e
 853              		.uleb128 0x1
 854 00d9 0E       		.byte	0x84
ARM GAS  C:\Users\Chris\AppData\Local\Temp/ccu2aaaa.s 			page 20


 855 00da 08       		.uleb128 0x2
 856 00db 8E       		.align	2
 857 00dc 01       	.LEFDE16:
 858 00dd 84       	.LSFDE18:
 859 00de 02       		.4byte	.LEFDE18-.LASFDE18
 860 00df 00       	.LASFDE18:
 861              		.4byte	.Lframe0
 862              		.4byte	.LFB11
 863 00e0 14000000 		.4byte	.LFE11-.LFB11
 864              		.byte	0x4
 865 00e4 00000000 		.4byte	.LCFI5-.LFB11
 866 00e8 00000000 		.byte	0xe
 867 00ec 48000000 		.uleb128 0x8
 868 00f0 48       		.byte	0x8e
 869              		.uleb128 0x1
 870 00f1 0E       		.byte	0x84
 871 00f2 08       		.uleb128 0x2
 872 00f3 8E       		.align	2
 873 00f4 01       	.LEFDE18:
 874 00f5 84       	.LSFDE20:
 875 00f6 02       		.4byte	.LEFDE20-.LASFDE20
 876 00f7 00       	.LASFDE20:
 877              		.4byte	.Lframe0
 878              		.4byte	.LFB12
 879 00f8 0C000000 		.4byte	.LFE12-.LFB12
 880              		.align	2
 881 00fc 00000000 	.LEFDE20:
 882 0100 00000000 	.LSFDE22:
 883 0104 18000000 		.4byte	.LEFDE22-.LASFDE22
 884              	.LASFDE22:
 885              		.4byte	.Lframe0
 886              		.4byte	.LFB13
 887 0108 14000000 		.4byte	.LFE13-.LFB13
 888              		.byte	0x4
 889 010c 00000000 		.4byte	.LCFI6-.LFB13
 890 0110 00000000 		.byte	0xe
 891 0114 4C000000 		.uleb128 0x8
 892 0118 44       		.byte	0x8e
 893              		.uleb128 0x1
 894 0119 0E       		.byte	0x84
 895 011a 08       		.uleb128 0x2
 896 011b 8E       		.align	2
 897 011c 01       	.LEFDE22:
 898 011d 84       		.text
 899 011e 02       	.Letext0: