ARM GAS  /cygdrive/c/Users/Chris/AppData/Local/Temp/cckFMeUj.s 			page 1


   1              		.cpu arm7tdmi
   2              		.fpu softvfp
   3              		.eabi_attribute 20, 1
   4              		.eabi_attribute 21, 1
   5              		.eabi_attribute 23, 3
   6              		.eabi_attribute 24, 1
   7              		.eabi_attribute 25, 1
   8              		.eabi_attribute 26, 1
   9              		.eabi_attribute 30, 4
  10              		.eabi_attribute 18, 4
  11              		.file	"sbl_iap.cpp"
  12              		.section	.debug_abbrev,"",%progbits
  13              	.Ldebug_abbrev0:
  14              		.section	.debug_info,"",%progbits
  15              	.Ldebug_info0:
  16              		.section	.debug_line,"",%progbits
  17              	.Ldebug_line0:
  18 0000 80010000 		.text
  18      02003A00 
  18      00000201 
  18      FB0E0D00 
  18      01010101 
  19              	.Ltext0:
  20              		.section	.text._Z9iap_entryPjS_,"ax",%progbits
  21              		.align	2
  22              		.global	_Z9iap_entryPjS_
  23              		.type	_Z9iap_entryPjS_, %function
  24              	_Z9iap_entryPjS_:
  25              	.LFB7:
  26              		.file 1 "sbl_iap.cpp"
   1:sbl_iap.cpp   **** //-----------------------------------------------------------------------------
   2:sbl_iap.cpp   **** // Software that is described herein is for illustrative purposes only  
   3:sbl_iap.cpp   **** // which provides customers with programming information regarding the  
   4:sbl_iap.cpp   **** // products. This software is supplied "AS IS" without any warranties.  
   5:sbl_iap.cpp   **** // NXP Semiconductors assumes no responsibility or liability for the 
   6:sbl_iap.cpp   **** // use of the software, conveys no license or title under any patent, 
   7:sbl_iap.cpp   **** // copyright, or mask work right to the product. NXP Semiconductors 
   8:sbl_iap.cpp   **** // reserves the right to make changes in the software without 
   9:sbl_iap.cpp   **** // notification. NXP Semiconductors also make no representation or 
  10:sbl_iap.cpp   **** // warranty that such application will be suitable for the specified 
  11:sbl_iap.cpp   **** // use without further testing or modification. 
  12:sbl_iap.cpp   **** //-----------------------------------------------------------------------------
  13:sbl_iap.cpp   **** 
  14:sbl_iap.cpp   **** #include <LPC23xx.H>
  15:sbl_iap.cpp   **** #include "types.h"
  16:sbl_iap.cpp   **** #include "sbl_iap.h"
  17:sbl_iap.cpp   **** #include "sbl_config.h"
  18:sbl_iap.cpp   **** 
  19:sbl_iap.cpp   **** const unsigned crp __attribute__((section(".ARM.__at_0x1FC"))) = CRP;
  20:sbl_iap.cpp   **** 
  21:sbl_iap.cpp   **** const unsigned sector_start_map[MAX_FLASH_SECTOR] = {SECTOR_0_START,             \
  22:sbl_iap.cpp   **** SECTOR_1_START,SECTOR_2_START,SECTOR_3_START,SECTOR_4_START,SECTOR_5_START,      \
  23:sbl_iap.cpp   **** SECTOR_6_START,SECTOR_7_START,SECTOR_8_START,SECTOR_9_START,SECTOR_10_START,     \
  24:sbl_iap.cpp   **** SECTOR_11_START,SECTOR_12_START,SECTOR_13_START,SECTOR_14_START,SECTOR_15_START, \
  25:sbl_iap.cpp   **** SECTOR_16_START,SECTOR_17_START,SECTOR_18_START,SECTOR_19_START,SECTOR_20_START, \
  26:sbl_iap.cpp   **** SECTOR_21_START,SECTOR_22_START,SECTOR_23_START,SECTOR_24_START,SECTOR_25_START, \
  27:sbl_iap.cpp   **** SECTOR_26_START,SECTOR_27_START,SECTOR_28_START,SECTOR_29_START,SECTOR_30_START, \
ARM GAS  /cygdrive/c/Users/Chris/AppData/Local/Temp/cckFMeUj.s 			page 2


  28:sbl_iap.cpp   **** SECTOR_31_START};
  29:sbl_iap.cpp   **** 
  30:sbl_iap.cpp   **** const unsigned sector_end_map[MAX_FLASH_SECTOR] = {SECTOR_0_END,SECTOR_1_END,    \
  31:sbl_iap.cpp   **** SECTOR_2_END,SECTOR_3_END,SECTOR_4_END,SECTOR_5_END,SECTOR_6_END,SECTOR_7_END,   \
  32:sbl_iap.cpp   **** SECTOR_8_END,SECTOR_9_END,SECTOR_10_END,SECTOR_11_END,SECTOR_12_END,             \
  33:sbl_iap.cpp   **** SECTOR_13_END,SECTOR_14_END,SECTOR_15_END,SECTOR_16_END,SECTOR_17_END,           \
  34:sbl_iap.cpp   **** SECTOR_18_END,SECTOR_19_END,SECTOR_20_END,SECTOR_21_END,SECTOR_22_END,           \
  35:sbl_iap.cpp   **** SECTOR_23_END,SECTOR_24_END,SECTOR_25_END,SECTOR_26_END,                         \
  36:sbl_iap.cpp   **** SECTOR_27_END,SECTOR_28_END,SECTOR_29_END,SECTOR_30_END,SECTOR_31_END};
  37:sbl_iap.cpp   **** 
  38:sbl_iap.cpp   **** unsigned param_table[5];
  39:sbl_iap.cpp   **** unsigned result_table[5];
  40:sbl_iap.cpp   **** 
  41:sbl_iap.cpp   **** unsigned cclk = CCLK;
  42:sbl_iap.cpp   **** char flash_buf[FLASH_BUF_SIZE];
  43:sbl_iap.cpp   **** 
  44:sbl_iap.cpp   **** unsigned * flash_address = 0;
  45:sbl_iap.cpp   **** unsigned byte_ctr = 0;
  46:sbl_iap.cpp   **** 
  47:sbl_iap.cpp   **** 
  48:sbl_iap.cpp   **** void write_data(unsigned cclk,unsigned flash_address,unsigned * flash_data_buf, unsigned count);
  49:sbl_iap.cpp   **** void find_erase_prepare_sector(unsigned cclk, unsigned flash_address, bool eraseSectorAllowed);
  50:sbl_iap.cpp   **** void erase_sector(unsigned start_sector,unsigned end_sector,unsigned cclk);
  51:sbl_iap.cpp   **** void prepare_sector(unsigned start_sector,unsigned end_sector,unsigned cclk);
  52:sbl_iap.cpp   **** void iap_entry(unsigned param_tab[],unsigned result_tab[]);
  53:sbl_iap.cpp   **** void enable_interrupts(unsigned interrupts);
  54:sbl_iap.cpp   **** void disable_interrupts(unsigned interrupts);
  55:sbl_iap.cpp   **** 
  56:sbl_iap.cpp   **** unsigned write_flash(unsigned int * dst, unsigned char * src, unsigned no_of_bytes, bool eraseSecto
  57:sbl_iap.cpp   **** {
  58:sbl_iap.cpp   ****   unsigned i;
  59:sbl_iap.cpp   **** 
  60:sbl_iap.cpp   ****     if (flash_address == 0)
  61:sbl_iap.cpp   **** 	{
  62:sbl_iap.cpp   **** 	  /* Store flash start address */
  63:sbl_iap.cpp   **** 	  flash_address = (unsigned *)dst;
  64:sbl_iap.cpp   **** 	}
  65:sbl_iap.cpp   **** 	for( i = 0;i<no_of_bytes;i++ )
  66:sbl_iap.cpp   **** 	{
  67:sbl_iap.cpp   **** 	  flash_buf[(byte_ctr+i)] = *(src+i);
  68:sbl_iap.cpp   ****     }
  69:sbl_iap.cpp   **** 	byte_ctr = byte_ctr + no_of_bytes;
  70:sbl_iap.cpp   **** 
  71:sbl_iap.cpp   **** 	if( byte_ctr == FLASH_BUF_SIZE)
  72:sbl_iap.cpp   **** 	{
  73:sbl_iap.cpp   **** 	  /* We have accumulated enough bytes to trigger a flash write */
  74:sbl_iap.cpp   **** 	  find_erase_prepare_sector(cclk, (unsigned)flash_address, eraseSectorAllowed);
  75:sbl_iap.cpp   ****       if(result_table[0] != CMD_SUCCESS)
  76:sbl_iap.cpp   ****       {
  77:sbl_iap.cpp   ****         while(1); /* No way to recover. Just let Windows report a write failure */
  78:sbl_iap.cpp   ****       }
  79:sbl_iap.cpp   **** 
  80:sbl_iap.cpp   ****       write_data(cclk,(unsigned)flash_address,(unsigned *)flash_buf,FLASH_BUF_SIZE);
  81:sbl_iap.cpp   ****       if(result_table[0] != CMD_SUCCESS)
  82:sbl_iap.cpp   ****       {
  83:sbl_iap.cpp   ****         while(1); /* No way to recover. Just let Windows report a write failure */
  84:sbl_iap.cpp   ****       }
ARM GAS  /cygdrive/c/Users/Chris/AppData/Local/Temp/cckFMeUj.s 			page 3


  85:sbl_iap.cpp   **** 	  /* Reset byte counter and flash address */
  86:sbl_iap.cpp   **** 	  byte_ctr = 0;
  87:sbl_iap.cpp   **** 	  flash_address = 0;
  88:sbl_iap.cpp   **** 	}
  89:sbl_iap.cpp   ****     return(CMD_SUCCESS);
  90:sbl_iap.cpp   **** }
  91:sbl_iap.cpp   **** 
  92:sbl_iap.cpp   **** void find_erase_prepare_sector(unsigned cclk, unsigned flash_address, bool eraseSectorAllowed)
  93:sbl_iap.cpp   **** {
  94:sbl_iap.cpp   ****     unsigned i;
  95:sbl_iap.cpp   ****     unsigned interrupts;
  96:sbl_iap.cpp   **** 
  97:sbl_iap.cpp   **** 
  98:sbl_iap.cpp   ****     interrupts  = VICIntEnable;
  99:sbl_iap.cpp   **** 	disable_interrupts(interrupts);
 100:sbl_iap.cpp   **** 
 101:sbl_iap.cpp   ****     for(i=USER_START_SECTOR;i<=MAX_USER_SECTOR;i++)
 102:sbl_iap.cpp   ****     {
 103:sbl_iap.cpp   ****         if(flash_address < sector_end_map[i])
 104:sbl_iap.cpp   ****         {
 105:sbl_iap.cpp   ****             if( flash_address == sector_start_map[i])
 106:sbl_iap.cpp   ****             {
 107:sbl_iap.cpp   ****                 prepare_sector(i,i,cclk);
 108:sbl_iap.cpp   ****                 if (eraseSectorAllowed) {
 109:sbl_iap.cpp   ****                   erase_sector(i,i,cclk);
 110:sbl_iap.cpp   ****                 }
 111:sbl_iap.cpp   ****             }
 112:sbl_iap.cpp   ****             prepare_sector(i,i,cclk);
 113:sbl_iap.cpp   ****             break;
 114:sbl_iap.cpp   ****         }
 115:sbl_iap.cpp   ****     }
 116:sbl_iap.cpp   **** 	enable_interrupts(interrupts);
 117:sbl_iap.cpp   **** }
 118:sbl_iap.cpp   **** 
 119:sbl_iap.cpp   **** void write_data(unsigned cclk,unsigned flash_address,unsigned * flash_data_buf, unsigned count)
 120:sbl_iap.cpp   **** {
 121:sbl_iap.cpp   ****     unsigned interrupts;
 122:sbl_iap.cpp   **** 
 123:sbl_iap.cpp   ****     interrupts  = VICIntEnable;
 124:sbl_iap.cpp   **** 	disable_interrupts(interrupts);
 125:sbl_iap.cpp   ****     param_table[0] = COPY_RAM_TO_FLASH;
 126:sbl_iap.cpp   ****     param_table[1] = flash_address;
 127:sbl_iap.cpp   ****     param_table[2] = (unsigned)flash_data_buf;
 128:sbl_iap.cpp   ****     param_table[3] = count;
 129:sbl_iap.cpp   ****     param_table[4] = cclk;
 130:sbl_iap.cpp   ****     iap_entry(param_table,result_table);
 131:sbl_iap.cpp   **** 	enable_interrupts(interrupts);
 132:sbl_iap.cpp   **** }
 133:sbl_iap.cpp   **** 
 134:sbl_iap.cpp   **** void erase_sector(unsigned start_sector,unsigned end_sector,unsigned cclk)
 135:sbl_iap.cpp   **** {
 136:sbl_iap.cpp   ****     param_table[0] = ERASE_SECTOR;
 137:sbl_iap.cpp   ****     param_table[1] = start_sector;
 138:sbl_iap.cpp   ****     param_table[2] = end_sector;
 139:sbl_iap.cpp   ****     param_table[3] = cclk;
 140:sbl_iap.cpp   ****     iap_entry(param_table,result_table);
 141:sbl_iap.cpp   **** }
ARM GAS  /cygdrive/c/Users/Chris/AppData/Local/Temp/cckFMeUj.s 			page 4


 142:sbl_iap.cpp   **** 
 143:sbl_iap.cpp   **** void prepare_sector(unsigned start_sector,unsigned end_sector,unsigned cclk)
 144:sbl_iap.cpp   **** {
 145:sbl_iap.cpp   ****     param_table[0] = PREPARE_SECTOR_FOR_WRITE;
 146:sbl_iap.cpp   ****     param_table[1] = start_sector;
 147:sbl_iap.cpp   ****     param_table[2] = end_sector;
 148:sbl_iap.cpp   ****     param_table[3] = cclk;
 149:sbl_iap.cpp   ****     iap_entry(param_table,result_table);
 150:sbl_iap.cpp   **** }
 151:sbl_iap.cpp   **** 
 152:sbl_iap.cpp   **** void iap_entry(unsigned param_tab[],unsigned result_tab[])
  27              		.loc 1 152 0
  28              		@ Function supports interworking.
  29              		@ args = 0, pretend = 0, frame = 0
  30              		@ frame_needed = 0, uses_anonymous_args = 0
  31              	.LVL0:
  32 0000 10402DE9 		stmfd	sp!, {r4, lr}
  33              	.LCFI0:
  34              	.LBB2:
 153:sbl_iap.cpp   **** {
 154:sbl_iap.cpp   ****     void (*iap)(unsigned [],unsigned []);
 155:sbl_iap.cpp   **** 
 156:sbl_iap.cpp   ****     iap = (void (*)(unsigned [],unsigned []))IAP_ADDRESS;
 157:sbl_iap.cpp   ****     iap(param_tab,result_tab);
  35              		.loc 1 157 0
  36 0004 3A31E0E3 		mvn	r3, #-2147483634
  37 0008 0FE0A0E1 		mov	lr, pc
  38 000c 13FF2FE1 		bx	r3
  39              	.LVL1:
  40              	.LBE2:
 158:sbl_iap.cpp   **** }
  41              		.loc 1 158 0
  42 0010 1040BDE8 		ldmfd	sp!, {r4, lr}
  43 0014 1EFF2FE1 		bx	lr
  44              	.LFE7:
  45              		.size	_Z9iap_entryPjS_, .-_Z9iap_entryPjS_
  46              		.section	.text._Z14prepare_sectorjjj,"ax",%progbits
  47              		.align	2
  48              		.global	_Z14prepare_sectorjjj
  49              		.type	_Z14prepare_sectorjjj, %function
  50              	_Z14prepare_sectorjjj:
  51              	.LFB6:
  52              		.loc 1 143 0
  53              		@ Function supports interworking.
  54              		@ args = 0, pretend = 0, frame = 0
  55              		@ frame_needed = 0, uses_anonymous_args = 0
  56              		@ link register save eliminated.
  57              	.LVL2:
  58              		.loc 1 145 0
  59 0000 1CC09FE5 		ldr	ip, .L5
  60              		.loc 1 147 0
  61 0004 08108CE5 		str	r1, [ip, #8]
  62              		.loc 1 149 0
  63 0008 18109FE5 		ldr	r1, .L5+4
  64              	.LVL3:
  65              		.loc 1 146 0
  66 000c 04008CE5 		str	r0, [ip, #4]
ARM GAS  /cygdrive/c/Users/Chris/AppData/Local/Temp/cckFMeUj.s 			page 5


  67              		.loc 1 145 0
  68 0010 3230A0E3 		mov	r3, #50
  69              		.loc 1 149 0
  70 0014 0C00A0E1 		mov	r0, ip
  71              	.LVL4:
  72              		.loc 1 145 0
  73 0018 00308CE5 		str	r3, [ip, #0]
  74              		.loc 1 148 0
  75 001c 0C208CE5 		str	r2, [ip, #12]
  76              		.loc 1 150 0
  77              		.loc 1 149 0
  78 0020 FEFFFFEA 		b	_Z9iap_entryPjS_
  79              	.LVL5:
  80              	.L6:
  81              		.align	2
  82              	.L5:
  83 0024 00000000 		.word	.LANCHOR0
  84 0028 00000000 		.word	.LANCHOR1
  85              	.LFE6:
  86              		.size	_Z14prepare_sectorjjj, .-_Z14prepare_sectorjjj
  87              		.section	.text._Z12erase_sectorjjj,"ax",%progbits
  88              		.align	2
  89              		.global	_Z12erase_sectorjjj
  90              		.type	_Z12erase_sectorjjj, %function
  91              	_Z12erase_sectorjjj:
  92              	.LFB5:
  93              		.loc 1 134 0
  94              		@ Function supports interworking.
  95              		@ args = 0, pretend = 0, frame = 0
  96              		@ frame_needed = 0, uses_anonymous_args = 0
  97              		@ link register save eliminated.
  98              	.LVL6:
  99              		.loc 1 136 0
 100 0000 1CC09FE5 		ldr	ip, .L9
 101              		.loc 1 138 0
 102 0004 08108CE5 		str	r1, [ip, #8]
 103              		.loc 1 140 0
 104 0008 18109FE5 		ldr	r1, .L9+4
 105              	.LVL7:
 106              		.loc 1 137 0
 107 000c 04008CE5 		str	r0, [ip, #4]
 108              		.loc 1 136 0
 109 0010 3430A0E3 		mov	r3, #52
 110              		.loc 1 140 0
 111 0014 0C00A0E1 		mov	r0, ip
 112              	.LVL8:
 113              		.loc 1 136 0
 114 0018 00308CE5 		str	r3, [ip, #0]
 115              		.loc 1 139 0
 116 001c 0C208CE5 		str	r2, [ip, #12]
 117              		.loc 1 141 0
 118              		.loc 1 140 0
 119 0020 FEFFFFEA 		b	_Z9iap_entryPjS_
 120              	.LVL9:
 121              	.L10:
 122              		.align	2
 123              	.L9:
ARM GAS  /cygdrive/c/Users/Chris/AppData/Local/Temp/cckFMeUj.s 			page 6


 124 0024 00000000 		.word	.LANCHOR0
 125 0028 00000000 		.word	.LANCHOR1
 126              	.LFE5:
 127              		.size	_Z12erase_sectorjjj, .-_Z12erase_sectorjjj
 128              		.section	.text._Z17enable_interruptsj,"ax",%progbits
 129              		.align	2
 130              		.global	_Z17enable_interruptsj
 131              		.type	_Z17enable_interruptsj, %function
 132              	_Z17enable_interruptsj:
 133              	.LFB8:
 159:sbl_iap.cpp   **** 
 160:sbl_iap.cpp   **** void enable_interrupts(unsigned interrupts)
 134              		.loc 1 160 0
 135              		@ Function supports interworking.
 136              		@ args = 0, pretend = 0, frame = 0
 137              		@ frame_needed = 0, uses_anonymous_args = 0
 138              		@ link register save eliminated.
 139              	.LVL10:
 161:sbl_iap.cpp   **** {
 162:sbl_iap.cpp   ****     VICIntEnable = interrupts;
 140              		.loc 1 162 0
 141 0000 0030E0E3 		mvn	r3, #0
 142 0004 EF0F03E5 		str	r0, [r3, #-4079]
 163:sbl_iap.cpp   **** }
 143              		.loc 1 163 0
 144 0008 1EFF2FE1 		bx	lr
 145              	.LFE8:
 146              		.size	_Z17enable_interruptsj, .-_Z17enable_interruptsj
 147              		.section	.text._Z18disable_interruptsj,"ax",%progbits
 148              		.align	2
 149              		.global	_Z18disable_interruptsj
 150              		.type	_Z18disable_interruptsj, %function
 151              	_Z18disable_interruptsj:
 152              	.LFB9:
 164:sbl_iap.cpp   **** 
 165:sbl_iap.cpp   **** void disable_interrupts(unsigned interrupts)
 153              		.loc 1 165 0
 154              		@ Function supports interworking.
 155              		@ args = 0, pretend = 0, frame = 0
 156              		@ frame_needed = 0, uses_anonymous_args = 0
 157              		@ link register save eliminated.
 158              	.LVL11:
 166:sbl_iap.cpp   **** {
 167:sbl_iap.cpp   ****     VICIntEnClr = interrupts;
 159              		.loc 1 167 0
 160 0000 0030E0E3 		mvn	r3, #0
 161 0004 EB0F03E5 		str	r0, [r3, #-4075]
 168:sbl_iap.cpp   **** }
 162              		.loc 1 168 0
 163 0008 1EFF2FE1 		bx	lr
 164              	.LFE9:
 165              		.size	_Z18disable_interruptsj, .-_Z18disable_interruptsj
 166              		.section	.text._Z10write_datajjPjj,"ax",%progbits
 167              		.align	2
 168              		.global	_Z10write_datajjPjj
 169              		.type	_Z10write_datajjPjj, %function
 170              	_Z10write_datajjPjj:
ARM GAS  /cygdrive/c/Users/Chris/AppData/Local/Temp/cckFMeUj.s 			page 7


 171              	.LFB4:
 172              		.loc 1 119 0
 173              		@ Function supports interworking.
 174              		@ args = 0, pretend = 0, frame = 0
 175              		@ frame_needed = 0, uses_anonymous_args = 0
 176              	.LVL12:
 177              	.LBB3:
 178              		.loc 1 123 0
 179 0000 00C0E0E3 		mvn	ip, #0
 180              	.LBE3:
 181              		.loc 1 119 0
 182 0004 F0412DE9 		stmfd	sp!, {r4, r5, r6, r7, r8, lr}
 183              	.LCFI1:
 184              	.LBB4:
 185              		.loc 1 123 0
 186 0008 EF7F1CE5 		ldr	r7, [ip, #-4079]
 187              	.LVL13:
 188              	.LBE4:
 189              		.loc 1 119 0
 190 000c 0080A0E1 		mov	r8, r0
 191              	.LBB5:
 192              		.loc 1 124 0
 193 0010 0700A0E1 		mov	r0, r7
 194              	.LVL14:
 195              	.LBE5:
 196              		.loc 1 119 0
 197 0014 0140A0E1 		mov	r4, r1
 198 0018 0250A0E1 		mov	r5, r2
 199 001c 0360A0E1 		mov	r6, r3
 200              	.LBB6:
 201              		.loc 1 124 0
 202 0020 FEFFFFEB 		bl	_Z18disable_interruptsj
 203              	.LVL15:
 204              		.loc 1 125 0
 205 0024 20209FE5 		ldr	r2, .L17
 206 0028 3330A0E3 		mov	r3, #51
 207              		.loc 1 130 0
 208 002c 0200A0E1 		mov	r0, r2
 209 0030 18109FE5 		ldr	r1, .L17+4
 210              		.loc 1 125 0
 211 0034 780082E8 		stmia	r2, {r3, r4, r5, r6}	@ phole stm
 212              		.loc 1 129 0
 213 0038 108082E5 		str	r8, [r2, #16]
 214              		.loc 1 130 0
 215 003c FEFFFFEB 		bl	_Z9iap_entryPjS_
 216              		.loc 1 131 0
 217 0040 0700A0E1 		mov	r0, r7
 218              	.LBE6:
 219              		.loc 1 132 0
 220 0044 F041BDE8 		ldmfd	sp!, {r4, r5, r6, r7, r8, lr}
 221              	.LBB7:
 222              		.loc 1 131 0
 223 0048 FEFFFFEA 		b	_Z17enable_interruptsj
 224              	.L18:
 225              		.align	2
 226              	.L17:
 227 004c 00000000 		.word	.LANCHOR0
ARM GAS  /cygdrive/c/Users/Chris/AppData/Local/Temp/cckFMeUj.s 			page 8


 228 0050 00000000 		.word	.LANCHOR1
 229              	.LBE7:
 230              	.LFE4:
 231              		.size	_Z10write_datajjPjj, .-_Z10write_datajjPjj
 232              		.section	.text._Z25find_erase_prepare_sectorjjb,"ax",%progbits
 233              		.align	2
 234              		.global	_Z25find_erase_prepare_sectorjjb
 235              		.type	_Z25find_erase_prepare_sectorjjb, %function
 236              	_Z25find_erase_prepare_sectorjjb:
 237              	.LFB3:
 238              		.loc 1 92 0
 239              		@ Function supports interworking.
 240              		@ args = 0, pretend = 0, frame = 0
 241              		@ frame_needed = 0, uses_anonymous_args = 0
 242              	.LVL16:
 243              	.LBB8:
 244              		.loc 1 98 0
 245 0000 0030E0E3 		mvn	r3, #0
 246              	.LBE8:
 247              		.loc 1 92 0
 248 0004 F0412DE9 		stmfd	sp!, {r4, r5, r6, r7, r8, lr}
 249              	.LCFI2:
 250              	.LBB9:
 251              		.loc 1 98 0
 252 0008 EF8F13E5 		ldr	r8, [r3, #-4079]
 253              	.LVL17:
 254              	.LBE9:
 255              		.loc 1 92 0
 256 000c 0050A0E1 		mov	r5, r0
 257              	.LBB10:
 258              		.loc 1 99 0
 259 0010 0800A0E1 		mov	r0, r8
 260              	.LVL18:
 261              	.LBE10:
 262              		.loc 1 92 0
 263 0014 0160A0E1 		mov	r6, r1
 264 0018 0270A0E1 		mov	r7, r2
 265              	.LBB11:
 266              		.loc 1 99 0
 267 001c FEFFFFEB 		bl	_Z18disable_interruptsj
 268              	.LVL19:
 269 0020 0240A0E3 		mov	r4, #2
 270              	.LVL20:
 271              	.L23:
 272              		.loc 1 103 0
 273 0024 68309FE5 		ldr	r3, .L25
 274 0028 043193E7 		ldr	r3, [r3, r4, asl #2]
 275 002c 030056E1 		cmp	r6, r3
 276 0030 1100002A 		bcs	.L20
 277              		.loc 1 105 0
 278 0034 5C309FE5 		ldr	r3, .L25+4
 279 0038 043193E7 		ldr	r3, [r3, r4, asl #2]
 280 003c 030056E1 		cmp	r6, r3
 281 0040 0800001A 		bne	.L21
 282              		.loc 1 107 0
 283 0044 0400A0E1 		mov	r0, r4
 284 0048 0410A0E1 		mov	r1, r4
ARM GAS  /cygdrive/c/Users/Chris/AppData/Local/Temp/cckFMeUj.s 			page 9


 285 004c 0520A0E1 		mov	r2, r5
 286 0050 FEFFFFEB 		bl	_Z14prepare_sectorjjj
 287              		.loc 1 108 0
 288 0054 000057E3 		cmp	r7, #0
 289              		.loc 1 109 0
 290 0058 0400A011 		movne	r0, r4
 291 005c 0410A011 		movne	r1, r4
 292 0060 0520A011 		movne	r2, r5
 293 0064 FEFFFF1B 		blne	_Z12erase_sectorjjj
 294              	.L21:
 295              		.loc 1 112 0
 296 0068 0400A0E1 		mov	r0, r4
 297 006c 0520A0E1 		mov	r2, r5
 298 0070 0410A0E1 		mov	r1, r4
 299              	.LVL21:
 300 0074 FEFFFFEB 		bl	_Z14prepare_sectorjjj
 301 0078 020000EA 		b	.L22
 302              	.LVL22:
 303              	.L20:
 304              		.loc 1 101 0
 305 007c 014084E2 		add	r4, r4, #1
 306 0080 1B0054E3 		cmp	r4, #27
 307 0084 E6FFFF1A 		bne	.L23
 308              	.L22:
 309              		.loc 1 116 0
 310 0088 0800A0E1 		mov	r0, r8
 311              	.LBE11:
 312              		.loc 1 117 0
 313 008c F041BDE8 		ldmfd	sp!, {r4, r5, r6, r7, r8, lr}
 314              	.LBB12:
 315              		.loc 1 116 0
 316 0090 FEFFFFEA 		b	_Z17enable_interruptsj
 317              	.L26:
 318              		.align	2
 319              	.L25:
 320 0094 00000000 		.word	.LANCHOR2
 321 0098 00000000 		.word	.LANCHOR3
 322              	.LBE12:
 323              	.LFE3:
 324              		.size	_Z25find_erase_prepare_sectorjjb, .-_Z25find_erase_prepare_sectorjjb
 325              		.section	.text._Z11write_flashPjPhjb,"ax",%progbits
 326              		.align	2
 327              		.global	_Z11write_flashPjPhjb
 328              		.type	_Z11write_flashPjPhjb, %function
 329              	_Z11write_flashPjPhjb:
 330              	.LFB2:
 331              		.loc 1 56 0
 332              		@ Function supports interworking.
 333              		@ args = 0, pretend = 0, frame = 0
 334              		@ frame_needed = 0, uses_anonymous_args = 0
 335              	.LVL23:
 336 0000 F0472DE9 		stmfd	sp!, {r4, r5, r6, r7, r8, r9, sl, lr}
 337              	.LCFI3:
 338              	.LBB13:
 339              		.loc 1 60 0
 340 0004 B8509FE5 		ldr	r5, .L37
 341              	.LBE13:
ARM GAS  /cygdrive/c/Users/Chris/AppData/Local/Temp/cckFMeUj.s 			page 10


 342              		.loc 1 56 0
 343 0008 0380A0E1 		mov	r8, r3
 344              	.LBB14:
 345              		.loc 1 67 0
 346 000c B4309FE5 		ldr	r3, .L37+4
 347              	.LVL24:
 348              		.loc 1 60 0
 349 0010 00C095E5 		ldr	ip, [r5, #0]
 350              	.LBE14:
 351              		.loc 1 56 0
 352 0014 0240A0E1 		mov	r4, r2
 353              	.LBB15:
 354              		.loc 1 67 0
 355 0018 002093E5 		ldr	r2, [r3, #0]
 356              	.LVL25:
 357 001c A8309FE5 		ldr	r3, .L37+8
 358              		.loc 1 60 0
 359 0020 00005CE3 		cmp	ip, #0
 360              		.loc 1 63 0
 361 0024 00008505 		streq	r0, [r5, #0]
 362              		.loc 1 67 0
 363 0028 02C083E0 		add	ip, r3, r2
 364 002c 0000A0E3 		mov	r0, #0
 365              	.LVL26:
 366 0030 020000EA 		b	.L29
 367              	.L30:
 368 0034 0030D1E7 		ldrb	r3, [r1, r0]	@ zero_extendqisi2
 369 0038 01304CE5 		strb	r3, [ip, #-1]
 370              		.loc 1 65 0
 371 003c 010080E2 		add	r0, r0, #1
 372              	.L29:
 373 0040 040050E1 		cmp	r0, r4
 374 0044 01C08CE2 		add	ip, ip, #1
 375 0048 F9FFFF3A 		bcc	.L30
 376              		.loc 1 69 0
 377 004c 024084E0 		add	r4, r4, r2
 378              	.LVL27:
 379 0050 70A09FE5 		ldr	sl, .L37+4
 380              		.loc 1 71 0
 381 0054 020C54E3 		cmp	r4, #512
 382              		.loc 1 69 0
 383 0058 00408AE5 		str	r4, [sl, #0]
 384              		.loc 1 71 0
 385 005c 1500001A 		bne	.L31
 386              		.loc 1 74 0
 387 0060 68609FE5 		ldr	r6, .L37+12
 388 0064 58509FE5 		ldr	r5, .L37
 389              		.loc 1 75 0
 390 0068 64709FE5 		ldr	r7, .L37+16
 391              		.loc 1 74 0
 392 006c 0820A0E1 		mov	r2, r8
 393 0070 000096E5 		ldr	r0, [r6, #0]
 394              	.LVL28:
 395 0074 001095E5 		ldr	r1, [r5, #0]
 396              	.LVL29:
 397 0078 FEFFFFEB 		bl	_Z25find_erase_prepare_sectorjjb
 398              		.loc 1 75 0
ARM GAS  /cygdrive/c/Users/Chris/AppData/Local/Temp/cckFMeUj.s 			page 11


 399 007c 003097E5 		ldr	r3, [r7, #0]
 400 0080 000053E3 		cmp	r3, #0
 401 0084 0000000A 		beq	.L32
 402              	.L33:
 403 0088 FEFFFFEA 		b	.L33
 404              	.L32:
 405              		.loc 1 80 0
 406 008c 0430A0E1 		mov	r3, r4
 407 0090 000096E5 		ldr	r0, [r6, #0]
 408 0094 001095E5 		ldr	r1, [r5, #0]
 409 0098 2C209FE5 		ldr	r2, .L37+8
 410 009c FEFFFFEB 		bl	_Z10write_datajjPjj
 411              		.loc 1 81 0
 412 00a0 003097E5 		ldr	r3, [r7, #0]
 413 00a4 000053E3 		cmp	r3, #0
 414              		.loc 1 87 0
 415 00a8 00308505 		streq	r3, [r5, #0]
 416              		.loc 1 86 0
 417 00ac 00308A05 		streq	r3, [sl, #0]
 418              		.loc 1 81 0
 419 00b0 0000000A 		beq	.L31
 420              	.L35:
 421 00b4 FEFFFFEA 		b	.L35
 422              	.LVL30:
 423              	.L31:
 424              	.LBE15:
 425              		.loc 1 90 0
 426 00b8 0000A0E3 		mov	r0, #0
 427              	.LVL31:
 428 00bc F047BDE8 		ldmfd	sp!, {r4, r5, r6, r7, r8, r9, sl, lr}
 429 00c0 1EFF2FE1 		bx	lr
 430              	.L38:
 431              		.align	2
 432              	.L37:
 433 00c4 00000000 		.word	.LANCHOR4
 434 00c8 00000000 		.word	.LANCHOR5
 435 00cc 00000000 		.word	.LANCHOR6
 436 00d0 00000000 		.word	.LANCHOR7
 437 00d4 00000000 		.word	.LANCHOR1
 438              	.LFE2:
 439              		.size	_Z11write_flashPjPhjb, .-_Z11write_flashPjPhjb
 440              		.section	.text._Z17execute_user_codev,"ax",%progbits
 441              		.align	2
 442              		.global	_Z17execute_user_codev
 443              		.type	_Z17execute_user_codev, %function
 444              	_Z17execute_user_codev:
 445              	.LFB10:
 169:sbl_iap.cpp   **** 
 170:sbl_iap.cpp   **** void (*user_code_entry)(void);
 171:sbl_iap.cpp   **** 
 172:sbl_iap.cpp   **** void execute_user_code(void)
 446              		.loc 1 172 0
 447              		@ Function supports interworking.
 448              		@ args = 0, pretend = 0, frame = 0
 449              		@ frame_needed = 0, uses_anonymous_args = 0
 173:sbl_iap.cpp   **** {
 174:sbl_iap.cpp   **** 
ARM GAS  /cygdrive/c/Users/Chris/AppData/Local/Temp/cckFMeUj.s 			page 12


 175:sbl_iap.cpp   ****     user_code_entry =  (void (*)(void))USER_FLASH_START;
 450              		.loc 1 175 0
 451 0000 18309FE5 		ldr	r3, .L41
 452 0004 022AA0E3 		mov	r2, #8192
 453              		.loc 1 172 0
 454 0008 10402DE9 		stmfd	sp!, {r4, lr}
 455              	.LCFI4:
 456              		.loc 1 175 0
 457 000c 002083E5 		str	r2, [r3, #0]
 176:sbl_iap.cpp   **** 
 177:sbl_iap.cpp   ****     user_code_entry();
 458              		.loc 1 177 0
 459 0010 0FE0A0E1 		mov	lr, pc
 460 0014 12FF2FE1 		bx	r2
 178:sbl_iap.cpp   **** }
 461              		.loc 1 178 0
 462 0018 1040BDE8 		ldmfd	sp!, {r4, lr}
 463 001c 1EFF2FE1 		bx	lr
 464              	.L42:
 465              		.align	2
 466              	.L41:
 467 0020 00000000 		.word	.LANCHOR8
 468              	.LFE10:
 469              		.size	_Z17execute_user_codev, .-_Z17execute_user_codev
 470              		.section	.text._Z17user_code_presentv,"ax",%progbits
 471              		.align	2
 472              		.global	_Z17user_code_presentv
 473              		.type	_Z17user_code_presentv, %function
 474              	_Z17user_code_presentv:
 475              	.LFB11:
 179:sbl_iap.cpp   **** 
 180:sbl_iap.cpp   **** BOOL user_code_present(void)
 476              		.loc 1 180 0
 477              		@ Function supports interworking.
 478              		@ args = 0, pretend = 0, frame = 0
 479              		@ frame_needed = 0, uses_anonymous_args = 0
 181:sbl_iap.cpp   **** {
 182:sbl_iap.cpp   ****     param_table[0] = BLANK_CHECK_SECTOR;
 480              		.loc 1 182 0
 481 0000 38209FE5 		ldr	r2, .L45
 482              		.loc 1 180 0
 483 0004 10402DE9 		stmfd	sp!, {r4, lr}
 484              	.LCFI5:
 183:sbl_iap.cpp   ****     param_table[1] = USER_START_SECTOR;
 184:sbl_iap.cpp   ****     param_table[2] = USER_START_SECTOR;
 185:sbl_iap.cpp   ****     iap_entry(param_table,result_table);
 485              		.loc 1 185 0
 486 0008 34409FE5 		ldr	r4, .L45+4
 487              		.loc 1 183 0
 488 000c 02C0A0E3 		mov	ip, #2
 489              		.loc 1 182 0
 490 0010 3530A0E3 		mov	r3, #53
 491              		.loc 1 185 0
 492 0014 0200A0E1 		mov	r0, r2
 493 0018 0410A0E1 		mov	r1, r4
 494              		.loc 1 182 0
 495 001c 003082E5 		str	r3, [r2, #0]
ARM GAS  /cygdrive/c/Users/Chris/AppData/Local/Temp/cckFMeUj.s 			page 13


 496              		.loc 1 184 0
 497 0020 08C082E5 		str	ip, [r2, #8]
 498              		.loc 1 183 0
 499 0024 04C082E5 		str	ip, [r2, #4]
 500              		.loc 1 185 0
 501 0028 FEFFFFEB 		bl	_Z9iap_entryPjS_
 502 002c 000094E5 		ldr	r0, [r4, #0]
 186:sbl_iap.cpp   **** 	if( result_table[0] == CMD_SUCCESS )
 187:sbl_iap.cpp   **** 	{
 188:sbl_iap.cpp   **** 	    return (FALSE);
 189:sbl_iap.cpp   **** 	}
 190:sbl_iap.cpp   **** 	else
 191:sbl_iap.cpp   **** 	{
 192:sbl_iap.cpp   **** 	    return (TRUE);
 193:sbl_iap.cpp   **** 	}
 194:sbl_iap.cpp   **** }
 503              		.loc 1 194 0
 504 0030 000050E2 		subs	r0, r0, #0
 505 0034 0100A013 		movne	r0, #1
 506 0038 1040BDE8 		ldmfd	sp!, {r4, lr}
 507 003c 1EFF2FE1 		bx	lr
 508              	.L46:
 509              		.align	2
 510              	.L45:
 511 0040 00000000 		.word	.LANCHOR0
 512 0044 00000000 		.word	.LANCHOR1
 513              	.LFE11:
 514              		.size	_Z17user_code_presentv, .-_Z17user_code_presentv
 515              		.section	.text._Z19check_isp_entry_pinv,"ax",%progbits
 516              		.align	2
 517              		.global	_Z19check_isp_entry_pinv
 518              		.type	_Z19check_isp_entry_pinv, %function
 519              	_Z19check_isp_entry_pinv:
 520              	.LFB12:
 195:sbl_iap.cpp   **** 
 196:sbl_iap.cpp   **** void check_isp_entry_pin(void)
 521              		.loc 1 196 0
 522              		@ Function supports interworking.
 523              		@ args = 0, pretend = 0, frame = 0
 524              		@ frame_needed = 0, uses_anonymous_args = 0
 525              		@ link register save eliminated.
 197:sbl_iap.cpp   **** {
 198:sbl_iap.cpp   ****     if( (*(volatile unsigned *)ISP_ENTRY_GPIO_REG) & (0x1<<ISP_ENTRY_PIN) )
 526              		.loc 1 198 0
 527 0000 0C309FE5 		ldr	r3, .L50
 528 0004 003093E5 		ldr	r3, [r3, #0]
 529 0008 400013E3 		tst	r3, #64
 530 000c 1EFF2F01 		bxeq	lr
 199:sbl_iap.cpp   **** 	{
 200:sbl_iap.cpp   **** 	    execute_user_code();
 201:sbl_iap.cpp   **** 	}
 202:sbl_iap.cpp   **** 	else
 203:sbl_iap.cpp   **** 	{
 204:sbl_iap.cpp   **** 	    // Enter ISP mode
 205:sbl_iap.cpp   **** 	}		 
 206:sbl_iap.cpp   **** }
 531              		.loc 1 206 0
ARM GAS  /cygdrive/c/Users/Chris/AppData/Local/Temp/cckFMeUj.s 			page 14


 532              		.loc 1 200 0
 533 0010 FEFFFFEA 		b	_Z17execute_user_codev
 534              	.L51:
 535              		.align	2
 536              	.L50:
 537 0014 008002E0 		.word	-536707072
 538              	.LFE12:
 539              		.size	_Z19check_isp_entry_pinv, .-_Z19check_isp_entry_pinv
 540              		.section	.text._Z16erase_user_flashv,"ax",%progbits
 541              		.align	2
 542              		.global	_Z16erase_user_flashv
 543              		.type	_Z16erase_user_flashv, %function
 544              	_Z16erase_user_flashv:
 545              	.LFB13:
 207:sbl_iap.cpp   **** 
 208:sbl_iap.cpp   **** void erase_user_flash(void)
 546              		.loc 1 208 0
 547              		@ Function supports interworking.
 548              		@ args = 0, pretend = 0, frame = 0
 549              		@ frame_needed = 0, uses_anonymous_args = 0
 550 0000 10402DE9 		stmfd	sp!, {r4, lr}
 551              	.LCFI6:
 209:sbl_iap.cpp   **** {
 210:sbl_iap.cpp   ****     prepare_sector(USER_START_SECTOR,MAX_USER_SECTOR,cclk);
 552              		.loc 1 210 0
 553 0004 38409FE5 		ldr	r4, .L56
 554 0008 0200A0E3 		mov	r0, #2
 555 000c 1A10A0E3 		mov	r1, #26
 556 0010 002094E5 		ldr	r2, [r4, #0]
 557 0014 FEFFFFEB 		bl	_Z14prepare_sectorjjj
 211:sbl_iap.cpp   ****     erase_sector(USER_START_SECTOR,MAX_USER_SECTOR,cclk);
 558              		.loc 1 211 0
 559 0018 002094E5 		ldr	r2, [r4, #0]
 560 001c 0200A0E3 		mov	r0, #2
 561 0020 1A10A0E3 		mov	r1, #26
 562 0024 FEFFFFEB 		bl	_Z12erase_sectorjjj
 212:sbl_iap.cpp   **** 	if(result_table[0] != CMD_SUCCESS)
 563              		.loc 1 212 0
 564 0028 18309FE5 		ldr	r3, .L56+4
 565 002c 003093E5 		ldr	r3, [r3, #0]
 566 0030 000053E3 		cmp	r3, #0
 567 0034 0000000A 		beq	.L55
 568              	.L54:
 569 0038 FEFFFFEA 		b	.L54
 570              	.L55:
 213:sbl_iap.cpp   ****     {
 214:sbl_iap.cpp   ****       while(1); /* No way to recover. Just let Windows report a write failure */
 215:sbl_iap.cpp   ****     }
 216:sbl_iap.cpp   **** }
 571              		.loc 1 216 0
 572 003c 1040BDE8 		ldmfd	sp!, {r4, lr}
 573 0040 1EFF2FE1 		bx	lr
 574              	.L57:
 575              		.align	2
 576              	.L56:
 577 0044 00000000 		.word	.LANCHOR7
 578 0048 00000000 		.word	.LANCHOR1
ARM GAS  /cygdrive/c/Users/Chris/AppData/Local/Temp/cckFMeUj.s 			page 15


 579              	.LFE13:
 580              		.size	_Z16erase_user_flashv, .-_Z16erase_user_flashv
 581              		.global	crp
 582              		.global	sector_start_map
 583              		.global	sector_end_map
 584              		.global	param_table
 585              		.global	result_table
 586              		.global	cclk
 587              		.global	flash_buf
 588              		.global	flash_address
 589              		.global	byte_ctr
 590              		.global	user_code_entry
 591              		.section	.bss.user_code_entry,"aw",%nobits
 592              		.align	2
 593              		.set	.LANCHOR8,. + 0
 594              		.type	user_code_entry, %object
 595              		.size	user_code_entry, 4
 596              	user_code_entry:
 597 0000 00000000 		.space	4
 598              		.section	.bss.flash_address,"aw",%nobits
 599              		.align	2
 600              		.set	.LANCHOR4,. + 0
 601              		.type	flash_address, %object
 602              		.size	flash_address, 4
 603              	flash_address:
 604 0000 00000000 		.space	4
 605              		.section	.data.cclk,"aw",%progbits
 606              		.align	2
 607              		.set	.LANCHOR7,. + 0
 608              		.type	cclk, %object
 609              		.size	cclk, 4
 610              	cclk:
 611 0000 40190100 		.word	72000
 612              		.section	.bss.result_table,"aw",%nobits
 613              		.align	2
 614              		.set	.LANCHOR1,. + 0
 615              		.type	result_table, %object
 616              		.size	result_table, 20
 617              	result_table:
 618 0000 00000000 		.space	20
 618      00000000 
 618      00000000 
 618      00000000 
 618      00000000 
 619              		.section	.bss.param_table,"aw",%nobits
 620              		.align	2
 621              		.set	.LANCHOR0,. + 0
 622              		.type	param_table, %object
 623              		.size	param_table, 20
 624              	param_table:
 625 0000 00000000 		.space	20
 625      00000000 
 625      00000000 
 625      00000000 
 625      00000000 
 626              		.section	.bss.flash_buf,"aw",%nobits
 627              		.set	.LANCHOR6,. + 0
ARM GAS  /cygdrive/c/Users/Chris/AppData/Local/Temp/cckFMeUj.s 			page 16


 628              		.type	flash_buf, %object
 629              		.size	flash_buf, 512
 630              	flash_buf:
 631 0000 00000000 		.space	512
 631      00000000 
 631      00000000 
 631      00000000 
 631      00000000 
 632              		.section	.bss.byte_ctr,"aw",%nobits
 633              		.align	2
 634              		.set	.LANCHOR5,. + 0
 635              		.type	byte_ctr, %object
 636              		.size	byte_ctr, 4
 637              	byte_ctr:
 638 0000 00000000 		.space	4
 639              		.section	.ARM.__at_0x1FC,"a",%progbits
 640              		.align	2
 641              		.type	crp, %object
 642              		.size	crp, 4
 643              	crp:
 644 0000 44332211 		.word	287454020
 645              		.section	.rodata.sector_end_map,"a",%progbits
 646              		.align	2
 647              		.set	.LANCHOR2,. + 0
 648              		.type	sector_end_map, %object
 649              		.size	sector_end_map, 128
 650              	sector_end_map:
 651 0000 FF0F0000 		.word	4095
 652 0004 FF1F0000 		.word	8191
 653 0008 FF2F0000 		.word	12287
 654 000c FF3F0000 		.word	16383
 655 0010 FF4F0000 		.word	20479
 656 0014 FF5F0000 		.word	24575
 657 0018 FF6F0000 		.word	28671
 658 001c FF7F0000 		.word	32767
 659 0020 FFFF0000 		.word	65535
 660 0024 FF7F0100 		.word	98303
 661 0028 FFFF0100 		.word	131071
 662 002c FF7F0200 		.word	163839
 663 0030 FFFF0200 		.word	196607
 664 0034 FF7F0300 		.word	229375
 665 0038 FFFF0300 		.word	262143
 666 003c FF7F0400 		.word	294911
 667 0040 FFFF0400 		.word	327679
 668 0044 FF7F0500 		.word	360447
 669 0048 FFFF0500 		.word	393215
 670 004c FF7F0600 		.word	425983
 671 0050 FFFF0600 		.word	458751
 672 0054 FF7F0700 		.word	491519
 673 0058 FF8F0700 		.word	495615
 674 005c FF9F0700 		.word	499711
 675 0060 FFAF0700 		.word	503807
 676 0064 FFBF0700 		.word	507903
 677 0068 FFCF0700 		.word	511999
 678 006c FFDF0700 		.word	516095
 679 0070 FFFFFFFF 		.word	-1
 680 0074 FFFFFFFF 		.word	-1
ARM GAS  /cygdrive/c/Users/Chris/AppData/Local/Temp/cckFMeUj.s 			page 17


 681 0078 FFFFFFFF 		.word	-1
 682 007c FFFFFFFF 		.word	-1
 683              		.section	.rodata.sector_start_map,"a",%progbits
 684              		.align	2
 685              		.set	.LANCHOR3,. + 0
 686              		.type	sector_start_map, %object
 687              		.size	sector_start_map, 128
 688              	sector_start_map:
 689 0000 00000000 		.word	0
 690 0004 00100000 		.word	4096
 691 0008 00200000 		.word	8192
 692 000c 00300000 		.word	12288
 693 0010 00400000 		.word	16384
 694 0014 00500000 		.word	20480
 695 0018 00600000 		.word	24576
 696 001c 00700000 		.word	28672
 697 0020 00800000 		.word	32768
 698 0024 00000100 		.word	65536
 699 0028 00800100 		.word	98304
 700 002c 00000200 		.word	131072
 701 0030 00800200 		.word	163840
 702 0034 00000300 		.word	196608
 703 0038 00800300 		.word	229376
 704 003c 00000400 		.word	262144
 705 0040 00800400 		.word	294912
 706 0044 00000500 		.word	327680
 707 0048 00800500 		.word	360448
 708 004c 00000600 		.word	393216
 709 0050 00800600 		.word	425984
 710 0054 00000700 		.word	458752
 711 0058 00800700 		.word	491520
 712 005c 00900700 		.word	495616
 713 0060 00A00700 		.word	499712
 714 0064 00B00700 		.word	503808
 715 0068 00C00700 		.word	507904
 716 006c 00D00700 		.word	512000
 717 0070 FFFFFFFF 		.word	-1
 718 0074 FFFFFFFF 		.word	-1
 719 0078 FFFFFFFF 		.word	-1
 720 007c FFFFFFFF 		.word	-1
 721              		.section	.debug_frame,"",%progbits
 722              	.Lframe0:
 723 0000 0C000000 		.4byte	.LECIE0-.LSCIE0
 724              	.LSCIE0:
 725 0004 FFFFFFFF 		.4byte	0xffffffff
 726 0008 01       		.byte	0x1
 727 0009 00       		.ascii	"\000"
 728 000a 01       		.uleb128 0x1
 729 000b 7C       		.sleb128 -4
 730 000c 0E       		.byte	0xe
 731 000d 0C       		.byte	0xc
 732 000e 0D       		.uleb128 0xd
 733 000f 00       		.uleb128 0x0
 734              		.align	2
 735              	.LECIE0:
 736              	.LSFDE0:
 737 0010 14000000 		.4byte	.LEFDE0-.LASFDE0
ARM GAS  /cygdrive/c/Users/Chris/AppData/Local/Temp/cckFMeUj.s 			page 18


 738              	.LASFDE0:
 739 0014 00000000 		.4byte	.Lframe0
 740 0018 00000000 		.4byte	.LFB7
 741 001c 18000000 		.4byte	.LFE7-.LFB7
 742 0020 44       		.byte	0x4
 743              		.4byte	.LCFI0-.LFB7
 744 0021 0E       		.byte	0xe
 745 0022 08       		.uleb128 0x8
 746 0023 8E       		.byte	0x8e
 747 0024 01       		.uleb128 0x1
 748 0025 84       		.byte	0x84
 749 0026 02       		.uleb128 0x2
 750 0027 00       		.align	2
 751              	.LEFDE0:
 752              	.LSFDE2:
 753 0028 0C000000 		.4byte	.LEFDE2-.LASFDE2
 754              	.LASFDE2:
 755 002c 00000000 		.4byte	.Lframe0
 756 0030 00000000 		.4byte	.LFB6
 757 0034 2C000000 		.4byte	.LFE6-.LFB6
 758              		.align	2
 759              	.LEFDE2:
 760              	.LSFDE4:
 761 0038 0C000000 		.4byte	.LEFDE4-.LASFDE4
 762              	.LASFDE4:
 763 003c 00000000 		.4byte	.Lframe0
 764 0040 00000000 		.4byte	.LFB5
 765 0044 2C000000 		.4byte	.LFE5-.LFB5
 766              		.align	2
 767              	.LEFDE4:
 768              	.LSFDE6:
 769 0048 0C000000 		.4byte	.LEFDE6-.LASFDE6
 770              	.LASFDE6:
 771 004c 00000000 		.4byte	.Lframe0
 772 0050 00000000 		.4byte	.LFB8
 773 0054 0C000000 		.4byte	.LFE8-.LFB8
 774              		.align	2
 775              	.LEFDE6:
 776              	.LSFDE8:
 777 0058 0C000000 		.4byte	.LEFDE8-.LASFDE8
 778              	.LASFDE8:
 779 005c 00000000 		.4byte	.Lframe0
 780 0060 00000000 		.4byte	.LFB9
 781 0064 0C000000 		.4byte	.LFE9-.LFB9
 782              		.align	2
 783              	.LEFDE8:
 784              	.LSFDE10:
 785 0068 1C000000 		.4byte	.LEFDE10-.LASFDE10
 786              	.LASFDE10:
 787 006c 00000000 		.4byte	.Lframe0
 788 0070 00000000 		.4byte	.LFB4
 789 0074 54000000 		.4byte	.LFE4-.LFB4
 790 0078 48       		.byte	0x4
 791              		.4byte	.LCFI1-.LFB4
 792 0079 0E       		.byte	0xe
 793 007a 18       		.uleb128 0x18
 794 007b 8E       		.byte	0x8e
ARM GAS  /cygdrive/c/Users/Chris/AppData/Local/Temp/cckFMeUj.s 			page 19


 795 007c 01       		.uleb128 0x1
 796 007d 88       		.byte	0x88
 797 007e 02       		.uleb128 0x2
 798 007f 87       		.byte	0x87
 799 0080 03       		.uleb128 0x3
 800 0081 86       		.byte	0x86
 801 0082 04       		.uleb128 0x4
 802 0083 85       		.byte	0x85
 803 0084 05       		.uleb128 0x5
 804 0085 84       		.byte	0x84
 805 0086 06       		.uleb128 0x6
 806 0087 00       		.align	2
 807              	.LEFDE10:
 808              	.LSFDE12:
 809 0088 1C000000 		.4byte	.LEFDE12-.LASFDE12
 810              	.LASFDE12:
 811 008c 00000000 		.4byte	.Lframe0
 812 0090 00000000 		.4byte	.LFB3
 813 0094 9C000000 		.4byte	.LFE3-.LFB3
 814 0098 48       		.byte	0x4
 815              		.4byte	.LCFI2-.LFB3
 816 0099 0E       		.byte	0xe
 817 009a 18       		.uleb128 0x18
 818 009b 8E       		.byte	0x8e
 819 009c 01       		.uleb128 0x1
 820 009d 88       		.byte	0x88
 821 009e 02       		.uleb128 0x2
 822 009f 87       		.byte	0x87
 823 00a0 03       		.uleb128 0x3
 824 00a1 86       		.byte	0x86
 825 00a2 04       		.uleb128 0x4
 826 00a3 85       		.byte	0x85
 827 00a4 05       		.uleb128 0x5
 828 00a5 84       		.byte	0x84
 829 00a6 06       		.uleb128 0x6
 830 00a7 00       		.align	2
 831              	.LEFDE12:
 832              	.LSFDE14:
 833 00a8 20000000 		.4byte	.LEFDE14-.LASFDE14
 834              	.LASFDE14:
 835 00ac 00000000 		.4byte	.Lframe0
 836 00b0 00000000 		.4byte	.LFB2
 837 00b4 D8000000 		.4byte	.LFE2-.LFB2
 838 00b8 44       		.byte	0x4
 839              		.4byte	.LCFI3-.LFB2
 840 00b9 0E       		.byte	0xe
 841 00ba 20       		.uleb128 0x20
 842 00bb 8E       		.byte	0x8e
 843 00bc 01       		.uleb128 0x1
 844 00bd 8A       		.byte	0x8a
 845 00be 02       		.uleb128 0x2
 846 00bf 89       		.byte	0x89
 847 00c0 03       		.uleb128 0x3
 848 00c1 88       		.byte	0x88
 849 00c2 04       		.uleb128 0x4
 850 00c3 87       		.byte	0x87
 851 00c4 05       		.uleb128 0x5
ARM GAS  /cygdrive/c/Users/Chris/AppData/Local/Temp/cckFMeUj.s 			page 20


 852 00c5 86       		.byte	0x86
 853 00c6 06       		.uleb128 0x6
 854 00c7 85       		.byte	0x85
 855 00c8 07       		.uleb128 0x7
 856 00c9 84       		.byte	0x84
 857 00ca 08       		.uleb128 0x8
 858 00cb 00       		.align	2
 859              	.LEFDE14:
 860              	.LSFDE16:
 861 00cc 14000000 		.4byte	.LEFDE16-.LASFDE16
 862              	.LASFDE16:
 863 00d0 00000000 		.4byte	.Lframe0
 864 00d4 00000000 		.4byte	.LFB10
 865 00d8 24000000 		.4byte	.LFE10-.LFB10
 866 00dc 4C       		.byte	0x4
 867              		.4byte	.LCFI4-.LFB10
 868 00dd 0E       		.byte	0xe
 869 00de 08       		.uleb128 0x8
 870 00df 8E       		.byte	0x8e
 871 00e0 01       		.uleb128 0x1
 872 00e1 84       		.byte	0x84
 873 00e2 02       		.uleb128 0x2
 874 00e3 00       		.align	2
 875              	.LEFDE16:
 876              	.LSFDE18:
 877 00e4 14000000 		.4byte	.LEFDE18-.LASFDE18
 878              	.LASFDE18:
 879 00e8 00000000 		.4byte	.Lframe0
 880 00ec 00000000 		.4byte	.LFB11
 881 00f0 48000000 		.4byte	.LFE11-.LFB11
 882 00f4 48       		.byte	0x4
 883              		.4byte	.LCFI5-.LFB11
 884 00f5 0E       		.byte	0xe
 885 00f6 08       		.uleb128 0x8
 886 00f7 8E       		.byte	0x8e
 887 00f8 01       		.uleb128 0x1
 888 00f9 84       		.byte	0x84
 889 00fa 02       		.uleb128 0x2
 890 00fb 00       		.align	2
 891              	.LEFDE18:
 892              	.LSFDE20:
 893 00fc 0C000000 		.4byte	.LEFDE20-.LASFDE20
 894              	.LASFDE20:
 895 0100 00000000 		.4byte	.Lframe0
 896 0104 00000000 		.4byte	.LFB12
 897 0108 18000000 		.4byte	.LFE12-.LFB12
 898              		.align	2
 899              	.LEFDE20:
 900              	.LSFDE22:
 901 010c 14000000 		.4byte	.LEFDE22-.LASFDE22
 902              	.LASFDE22:
 903 0110 00000000 		.4byte	.Lframe0
 904 0114 00000000 		.4byte	.LFB13
 905 0118 4C000000 		.4byte	.LFE13-.LFB13
 906 011c 44       		.byte	0x4
 907              		.4byte	.LCFI6-.LFB13
 908 011d 0E       		.byte	0xe
ARM GAS  /cygdrive/c/Users/Chris/AppData/Local/Temp/cckFMeUj.s 			page 21


 909 011e 08       		.uleb128 0x8
 910 011f 8E       		.byte	0x8e
 911 0120 01       		.uleb128 0x1
 912 0121 84       		.byte	0x84
 913 0122 02       		.uleb128 0x2
 914 0123 00       		.align	2
 915              	.LEFDE22:
 916              		.text
 917              	.Letext0:
 918              		.section	.debug_loc,"",%progbits
 919              	.Ldebug_loc0:
 920              	.LLST0:
 921 0000 00000000 		.4byte	.LFB7
 922 0004 04000000 		.4byte	.LCFI0
 923 0008 0100     		.2byte	0x1
 924 000a 5D       		.byte	0x5d
 925 000b 04000000 		.4byte	.LCFI0
 926 000f 18000000 		.4byte	.LFE7
 927 0013 0200     		.2byte	0x2
 928 0015 7D       		.byte	0x7d
 929 0016 08       		.sleb128 8
 930 0017 00000000 		.4byte	0x0
 931 001b 00000000 		.4byte	0x0
 932              	.LLST1:
 933 001f 00000000 		.4byte	.LVL0
 934 0023 10000000 		.4byte	.LVL1
 935 0027 0100     		.2byte	0x1
 936 0029 50       		.byte	0x50
 937 002a 00000000 		.4byte	0x0
 938 002e 00000000 		.4byte	0x0
 939              	.LLST2:
 940 0032 00000000 		.4byte	.LVL0
 941 0036 10000000 		.4byte	.LVL1
 942 003a 0100     		.2byte	0x1
 943 003c 51       		.byte	0x51
 944 003d 00000000 		.4byte	0x0
 945 0041 00000000 		.4byte	0x0
 946              	.LLST4:
 947 0045 00000000 		.4byte	.LVL2
 948 0049 18000000 		.4byte	.LVL4
 949 004d 0100     		.2byte	0x1
 950 004f 50       		.byte	0x50
 951 0050 00000000 		.4byte	0x0
 952 0054 00000000 		.4byte	0x0
 953              	.LLST5:
 954 0058 00000000 		.4byte	.LVL2
 955 005c 0C000000 		.4byte	.LVL3
 956 0060 0100     		.2byte	0x1
 957 0062 51       		.byte	0x51
 958 0063 00000000 		.4byte	0x0
 959 0067 00000000 		.4byte	0x0
 960              	.LLST6:
 961 006b 00000000 		.4byte	.LVL2
 962 006f 24000000 		.4byte	.LVL5
 963 0073 0100     		.2byte	0x1
 964 0075 52       		.byte	0x52
 965 0076 00000000 		.4byte	0x0
ARM GAS  /cygdrive/c/Users/Chris/AppData/Local/Temp/cckFMeUj.s 			page 22


 966 007a 00000000 		.4byte	0x0
 967              	.LLST8:
 968 007e 00000000 		.4byte	.LVL6
 969 0082 18000000 		.4byte	.LVL8
 970 0086 0100     		.2byte	0x1
 971 0088 50       		.byte	0x50
 972 0089 00000000 		.4byte	0x0
 973 008d 00000000 		.4byte	0x0
 974              	.LLST9:
 975 0091 00000000 		.4byte	.LVL6
 976 0095 0C000000 		.4byte	.LVL7
 977 0099 0100     		.2byte	0x1
 978 009b 51       		.byte	0x51
 979 009c 00000000 		.4byte	0x0
 980 00a0 00000000 		.4byte	0x0
 981              	.LLST10:
 982 00a4 00000000 		.4byte	.LVL6
 983 00a8 24000000 		.4byte	.LVL9
 984 00ac 0100     		.2byte	0x1
 985 00ae 52       		.byte	0x52
 986 00af 00000000 		.4byte	0x0
 987 00b3 00000000 		.4byte	0x0
 988              	.LLST13:
 989 00b7 00000000 		.4byte	.LFB4
 990 00bb 08000000 		.4byte	.LCFI1
 991 00bf 0100     		.2byte	0x1
 992 00c1 5D       		.byte	0x5d
 993 00c2 08000000 		.4byte	.LCFI1
 994 00c6 54000000 		.4byte	.LFE4
 995 00ca 0200     		.2byte	0x2
 996 00cc 7D       		.byte	0x7d
 997 00cd 18       		.sleb128 24
 998 00ce 00000000 		.4byte	0x0
 999 00d2 00000000 		.4byte	0x0
 1000              	.LLST14:
 1001 00d6 00000000 		.4byte	.LVL12
 1002 00da 14000000 		.4byte	.LVL14
 1003 00de 0100     		.2byte	0x1
 1004 00e0 50       		.byte	0x50
 1005 00e1 14000000 		.4byte	.LVL14
 1006 00e5 54000000 		.4byte	.LFE4
 1007 00e9 0100     		.2byte	0x1
 1008 00eb 58       		.byte	0x58
 1009 00ec 00000000 		.4byte	0x0
 1010 00f0 00000000 		.4byte	0x0
 1011              	.LLST15:
 1012 00f4 00000000 		.4byte	.LVL12
 1013 00f8 24000000 		.4byte	.LVL15
 1014 00fc 0100     		.2byte	0x1
 1015 00fe 51       		.byte	0x51
 1016 00ff 24000000 		.4byte	.LVL15
 1017 0103 54000000 		.4byte	.LFE4
 1018 0107 0100     		.2byte	0x1
 1019 0109 54       		.byte	0x54
 1020 010a 00000000 		.4byte	0x0
 1021 010e 00000000 		.4byte	0x0
 1022              	.LLST16:
ARM GAS  /cygdrive/c/Users/Chris/AppData/Local/Temp/cckFMeUj.s 			page 23


 1023 0112 00000000 		.4byte	.LVL12
 1024 0116 24000000 		.4byte	.LVL15
 1025 011a 0100     		.2byte	0x1
 1026 011c 52       		.byte	0x52
 1027 011d 24000000 		.4byte	.LVL15
 1028 0121 54000000 		.4byte	.LFE4
 1029 0125 0100     		.2byte	0x1
 1030 0127 55       		.byte	0x55
 1031 0128 00000000 		.4byte	0x0
 1032 012c 00000000 		.4byte	0x0
 1033              	.LLST17:
 1034 0130 00000000 		.4byte	.LVL12
 1035 0134 24000000 		.4byte	.LVL15
 1036 0138 0100     		.2byte	0x1
 1037 013a 53       		.byte	0x53
 1038 013b 24000000 		.4byte	.LVL15
 1039 013f 54000000 		.4byte	.LFE4
 1040 0143 0100     		.2byte	0x1
 1041 0145 56       		.byte	0x56
 1042 0146 00000000 		.4byte	0x0
 1043 014a 00000000 		.4byte	0x0
 1044              	.LLST18:
 1045 014e 00000000 		.4byte	.LFB3
 1046 0152 08000000 		.4byte	.LCFI2
 1047 0156 0100     		.2byte	0x1
 1048 0158 5D       		.byte	0x5d
 1049 0159 08000000 		.4byte	.LCFI2
 1050 015d 9C000000 		.4byte	.LFE3
 1051 0161 0200     		.2byte	0x2
 1052 0163 7D       		.byte	0x7d
 1053 0164 18       		.sleb128 24
 1054 0165 00000000 		.4byte	0x0
 1055 0169 00000000 		.4byte	0x0
 1056              	.LLST19:
 1057 016d 00000000 		.4byte	.LVL16
 1058 0171 14000000 		.4byte	.LVL18
 1059 0175 0100     		.2byte	0x1
 1060 0177 50       		.byte	0x50
 1061 0178 14000000 		.4byte	.LVL18
 1062 017c 9C000000 		.4byte	.LFE3
 1063 0180 0100     		.2byte	0x1
 1064 0182 55       		.byte	0x55
 1065 0183 00000000 		.4byte	0x0
 1066 0187 00000000 		.4byte	0x0
 1067              	.LLST20:
 1068 018b 00000000 		.4byte	.LVL16
 1069 018f 20000000 		.4byte	.LVL19
 1070 0193 0100     		.2byte	0x1
 1071 0195 51       		.byte	0x51
 1072 0196 20000000 		.4byte	.LVL19
 1073 019a 9C000000 		.4byte	.LFE3
 1074 019e 0100     		.2byte	0x1
 1075 01a0 56       		.byte	0x56
 1076 01a1 00000000 		.4byte	0x0
 1077 01a5 00000000 		.4byte	0x0
 1078              	.LLST21:
 1079 01a9 00000000 		.4byte	.LVL16
ARM GAS  /cygdrive/c/Users/Chris/AppData/Local/Temp/cckFMeUj.s 			page 24


 1080 01ad 20000000 		.4byte	.LVL19
 1081 01b1 0100     		.2byte	0x1
 1082 01b3 52       		.byte	0x52
 1083 01b4 20000000 		.4byte	.LVL19
 1084 01b8 9C000000 		.4byte	.LFE3
 1085 01bc 0100     		.2byte	0x1
 1086 01be 57       		.byte	0x57
 1087 01bf 00000000 		.4byte	0x0
 1088 01c3 00000000 		.4byte	0x0
 1089              	.LLST22:
 1090 01c7 24000000 		.4byte	.LVL20
 1091 01cb 74000000 		.4byte	.LVL21
 1092 01cf 0100     		.2byte	0x1
 1093 01d1 54       		.byte	0x54
 1094 01d2 7C000000 		.4byte	.LVL22
 1095 01d6 9C000000 		.4byte	.LFE3
 1096 01da 0100     		.2byte	0x1
 1097 01dc 54       		.byte	0x54
 1098 01dd 00000000 		.4byte	0x0
 1099 01e1 00000000 		.4byte	0x0
 1100              	.LLST23:
 1101 01e5 00000000 		.4byte	.LFB2
 1102 01e9 04000000 		.4byte	.LCFI3
 1103 01ed 0100     		.2byte	0x1
 1104 01ef 5D       		.byte	0x5d
 1105 01f0 04000000 		.4byte	.LCFI3
 1106 01f4 D8000000 		.4byte	.LFE2
 1107 01f8 0200     		.2byte	0x2
 1108 01fa 7D       		.byte	0x7d
 1109 01fb 20       		.sleb128 32
 1110 01fc 00000000 		.4byte	0x0
 1111 0200 00000000 		.4byte	0x0
 1112              	.LLST24:
 1113 0204 00000000 		.4byte	.LVL23
 1114 0208 30000000 		.4byte	.LVL26
 1115 020c 0100     		.2byte	0x1
 1116 020e 50       		.byte	0x50
 1117 020f 00000000 		.4byte	0x0
 1118 0213 00000000 		.4byte	0x0
 1119              	.LLST25:
 1120 0217 00000000 		.4byte	.LVL23
 1121 021b 78000000 		.4byte	.LVL29
 1122 021f 0100     		.2byte	0x1
 1123 0221 51       		.byte	0x51
 1124 0222 B8000000 		.4byte	.LVL30
 1125 0226 D8000000 		.4byte	.LFE2
 1126 022a 0100     		.2byte	0x1
 1127 022c 51       		.byte	0x51
 1128 022d 00000000 		.4byte	0x0
 1129 0231 00000000 		.4byte	0x0
 1130              	.LLST26:
 1131 0235 00000000 		.4byte	.LVL23
 1132 0239 1C000000 		.4byte	.LVL25
 1133 023d 0100     		.2byte	0x1
 1134 023f 52       		.byte	0x52
 1135 0240 1C000000 		.4byte	.LVL25
 1136 0244 50000000 		.4byte	.LVL27
ARM GAS  /cygdrive/c/Users/Chris/AppData/Local/Temp/cckFMeUj.s 			page 25


 1137 0248 0100     		.2byte	0x1
 1138 024a 54       		.byte	0x54
 1139 024b 00000000 		.4byte	0x0
 1140 024f 00000000 		.4byte	0x0
 1141              	.LLST27:
 1142 0253 00000000 		.4byte	.LVL23
 1143 0257 10000000 		.4byte	.LVL24
 1144 025b 0100     		.2byte	0x1
 1145 025d 53       		.byte	0x53
 1146 025e 10000000 		.4byte	.LVL24
 1147 0262 D8000000 		.4byte	.LFE2
 1148 0266 0100     		.2byte	0x1
 1149 0268 58       		.byte	0x58
 1150 0269 00000000 		.4byte	0x0
 1151 026d 00000000 		.4byte	0x0
 1152              	.LLST28:
 1153 0271 30000000 		.4byte	.LVL26
 1154 0275 74000000 		.4byte	.LVL28
 1155 0279 0100     		.2byte	0x1
 1156 027b 50       		.byte	0x50
 1157 027c B8000000 		.4byte	.LVL30
 1158 0280 BC000000 		.4byte	.LVL31
 1159 0284 0100     		.2byte	0x1
 1160 0286 50       		.byte	0x50
 1161 0287 00000000 		.4byte	0x0
 1162 028b 00000000 		.4byte	0x0
 1163              	.LLST29:
 1164 028f 00000000 		.4byte	.LFB10
 1165 0293 0C000000 		.4byte	.LCFI4
 1166 0297 0100     		.2byte	0x1
 1167 0299 5D       		.byte	0x5d
 1168 029a 0C000000 		.4byte	.LCFI4
 1169 029e 24000000 		.4byte	.LFE10
 1170 02a2 0200     		.2byte	0x2
 1171 02a4 7D       		.byte	0x7d
 1172 02a5 08       		.sleb128 8
 1173 02a6 00000000 		.4byte	0x0
 1174 02aa 00000000 		.4byte	0x0
 1175              	.LLST30:
 1176 02ae 00000000 		.4byte	.LFB11
 1177 02b2 08000000 		.4byte	.LCFI5
 1178 02b6 0100     		.2byte	0x1
 1179 02b8 5D       		.byte	0x5d
 1180 02b9 08000000 		.4byte	.LCFI5
 1181 02bd 48000000 		.4byte	.LFE11
 1182 02c1 0200     		.2byte	0x2
 1183 02c3 7D       		.byte	0x7d
 1184 02c4 08       		.sleb128 8
 1185 02c5 00000000 		.4byte	0x0
 1186 02c9 00000000 		.4byte	0x0
 1187              	.LLST32:
 1188 02cd 00000000 		.4byte	.LFB13
 1189 02d1 04000000 		.4byte	.LCFI6
 1190 02d5 0100     		.2byte	0x1
 1191 02d7 5D       		.byte	0x5d
 1192 02d8 04000000 		.4byte	.LCFI6
 1193 02dc 4C000000 		.4byte	.LFE13
ARM GAS  /cygdrive/c/Users/Chris/AppData/Local/Temp/cckFMeUj.s 			page 26


 1194 02e0 0200     		.2byte	0x2
 1195 02e2 7D       		.byte	0x7d
 1196 02e3 08       		.sleb128 8
 1197 02e4 00000000 		.4byte	0x0
 1198 02e8 00000000 		.4byte	0x0
 1199              		.file 2 "types.h"
 1200              		.file 3 "sbl_iap.h"
 1201              		.section	.debug_info
 1202 0000 97040000 		.4byte	0x497
 1203 0004 0200     		.2byte	0x2
 1204 0006 00000000 		.4byte	.Ldebug_abbrev0
 1205 000a 04       		.byte	0x4
 1206 000b 01       		.uleb128 0x1
 1207 000c C0000000 		.4byte	.LASF56
 1208 0010 04       		.byte	0x4
 1209 0011 62010000 		.4byte	.LASF57
 1210 0015 5A030000 		.4byte	.LASF58
 1211 0019 00000000 		.4byte	0x0
 1212 001d 00000000 		.4byte	0x0
 1213 0021 00000000 		.4byte	.Ldebug_ranges0+0x0
 1214 0025 00000000 		.4byte	.Ldebug_line0
 1215 0029 02       		.uleb128 0x2
 1216 002a 01       		.byte	0x1
 1217 002b 08       		.byte	0x8
 1218 002c 26010000 		.4byte	.LASF0
 1219 0030 02       		.uleb128 0x2
 1220 0031 02       		.byte	0x2
 1221 0032 07       		.byte	0x7
 1222 0033 6E010000 		.4byte	.LASF1
 1223 0037 02       		.uleb128 0x2
 1224 0038 04       		.byte	0x4
 1225 0039 07       		.byte	0x7
 1226 003a F0010000 		.4byte	.LASF2
 1227 003e 03       		.uleb128 0x3
 1228 003f 73000000 		.4byte	.LASF59
 1229 0043 02       		.byte	0x2
 1230 0044 14       		.byte	0x14
 1231 0045 49000000 		.4byte	0x49
 1232 0049 02       		.uleb128 0x2
 1233 004a 04       		.byte	0x4
 1234 004b 07       		.byte	0x7
 1235 004c 4C020000 		.4byte	.LASF3
 1236 0050 02       		.uleb128 0x2
 1237 0051 01       		.byte	0x1
 1238 0052 06       		.byte	0x6
 1239 0053 C2030000 		.4byte	.LASF4
 1240 0057 02       		.uleb128 0x2
 1241 0058 02       		.byte	0x2
 1242 0059 05       		.byte	0x5
 1243 005a 22030000 		.4byte	.LASF5
 1244 005e 04       		.uleb128 0x4
 1245 005f 04       		.byte	0x4
 1246 0060 05       		.byte	0x5
 1247 0061 696E7400 		.ascii	"int\000"
 1248 0065 02       		.uleb128 0x2
 1249 0066 08       		.byte	0x8
 1250 0067 05       		.byte	0x5
ARM GAS  /cygdrive/c/Users/Chris/AppData/Local/Temp/cckFMeUj.s 			page 27


 1251 0068 C1020000 		.4byte	.LASF6
 1252 006c 02       		.uleb128 0x2
 1253 006d 08       		.byte	0x8
 1254 006e 07       		.byte	0x7
 1255 006f 66020000 		.4byte	.LASF7
 1256 0073 05       		.uleb128 0x5
 1257 0074 B1030000 		.4byte	.LASF60
 1258 0078 01       		.byte	0x1
 1259 0079 03       		.byte	0x3
 1260 007a 1F       		.byte	0x1f
 1261 007b B0000000 		.4byte	0xb0
 1262 007f 06       		.uleb128 0x6
 1263 0080 0D010000 		.4byte	.LASF8
 1264 0084 32       		.sleb128 50
 1265 0085 06       		.uleb128 0x6
 1266 0086 E4000000 		.4byte	.LASF9
 1267 008a 33       		.sleb128 51
 1268 008b 06       		.uleb128 0x6
 1269 008c CF020000 		.4byte	.LASF10
 1270 0090 34       		.sleb128 52
 1271 0091 06       		.uleb128 0x6
 1272 0092 AE020000 		.4byte	.LASF11
 1273 0096 35       		.sleb128 53
 1274 0097 06       		.uleb128 0x6
 1275 0098 FE020000 		.4byte	.LASF12
 1276 009c 36       		.sleb128 54
 1277 009d 06       		.uleb128 0x6
 1278 009e 00000000 		.4byte	.LASF13
 1279 00a2 37       		.sleb128 55
 1280 00a3 06       		.uleb128 0x6
 1281 00a4 44020000 		.4byte	.LASF14
 1282 00a8 38       		.sleb128 56
 1283 00a9 06       		.uleb128 0x6
 1284 00aa 59020000 		.4byte	.LASF15
 1285 00ae 39       		.sleb128 57
 1286 00af 00       		.byte	0x0
 1287 00b0 07       		.uleb128 0x7
 1288 00b1 01       		.byte	0x1
 1289 00b2 03010000 		.4byte	.LASF18
 1290 00b6 01       		.byte	0x1
 1291 00b7 98       		.byte	0x98
 1292 00b8 81010000 		.4byte	.LASF20
 1293 00bc 00000000 		.4byte	.LFB7
 1294 00c0 18000000 		.4byte	.LFE7
 1295 00c4 00000000 		.4byte	.LLST0
 1296 00c8 F6000000 		.4byte	0xf6
 1297 00cc 08       		.uleb128 0x8
 1298 00cd B6000000 		.4byte	.LASF16
 1299 00d1 01       		.byte	0x1
 1300 00d2 98       		.byte	0x98
 1301 00d3 F6000000 		.4byte	0xf6
 1302 00d7 1F000000 		.4byte	.LLST1
 1303 00db 08       		.uleb128 0x8
 1304 00dc 68000000 		.4byte	.LASF17
 1305 00e0 01       		.byte	0x1
 1306 00e1 98       		.byte	0x98
 1307 00e2 F6000000 		.4byte	0xf6
ARM GAS  /cygdrive/c/Users/Chris/AppData/Local/Temp/cckFMeUj.s 			page 28


 1308 00e6 32000000 		.4byte	.LLST2
 1309 00ea 09       		.uleb128 0x9
 1310 00eb 69617000 		.ascii	"iap\000"
 1311 00ef 01       		.byte	0x1
 1312 00f0 9A       		.byte	0x9a
 1313 00f1 0C010000 		.4byte	0x10c
 1314 00f5 00       		.byte	0x0
 1315 00f6 0A       		.uleb128 0xa
 1316 00f7 04       		.byte	0x4
 1317 00f8 49000000 		.4byte	0x49
 1318 00fc 0B       		.uleb128 0xb
 1319 00fd 0C010000 		.4byte	0x10c
 1320 0101 0C       		.uleb128 0xc
 1321 0102 F6000000 		.4byte	0xf6
 1322 0106 0C       		.uleb128 0xc
 1323 0107 F6000000 		.4byte	0xf6
 1324 010b 00       		.byte	0x0
 1325 010c 0A       		.uleb128 0xa
 1326 010d 04       		.byte	0x4
 1327 010e FC000000 		.4byte	0xfc
 1328 0112 0D       		.uleb128 0xd
 1329 0113 01       		.byte	0x1
 1330 0114 A7000000 		.4byte	.LASF19
 1331 0118 01       		.byte	0x1
 1332 0119 8F       		.byte	0x8f
 1333 011a CE000000 		.4byte	.LASF21
 1334 011e 00000000 		.4byte	.LFB6
 1335 0122 2C000000 		.4byte	.LFE6
 1336 0126 01       		.byte	0x1
 1337 0127 5D       		.byte	0x5d
 1338 0128 5A010000 		.4byte	0x15a
 1339 012c 08       		.uleb128 0x8
 1340 012d F6000000 		.4byte	.LASF22
 1341 0131 01       		.byte	0x1
 1342 0132 8F       		.byte	0x8f
 1343 0133 49000000 		.4byte	0x49
 1344 0137 45000000 		.4byte	.LLST4
 1345 013b 08       		.uleb128 0x8
 1346 013c 34010000 		.4byte	.LASF23
 1347 0140 01       		.byte	0x1
 1348 0141 8F       		.byte	0x8f
 1349 0142 49000000 		.4byte	0x49
 1350 0146 58000000 		.4byte	.LLST5
 1351 014a 08       		.uleb128 0x8
 1352 014b 7D020000 		.4byte	.LASF24
 1353 014f 01       		.byte	0x1
 1354 0150 8F       		.byte	0x8f
 1355 0151 49000000 		.4byte	0x49
 1356 0155 6B000000 		.4byte	.LLST6
 1357 0159 00       		.byte	0x0
 1358 015a 0D       		.uleb128 0xd
 1359 015b 01       		.byte	0x1
 1360 015c 2C030000 		.4byte	.LASF25
 1361 0160 01       		.byte	0x1
 1362 0161 86       		.byte	0x86
 1363 0162 31000000 		.4byte	.LASF26
 1364 0166 00000000 		.4byte	.LFB5
ARM GAS  /cygdrive/c/Users/Chris/AppData/Local/Temp/cckFMeUj.s 			page 29


 1365 016a 2C000000 		.4byte	.LFE5
 1366 016e 01       		.byte	0x1
 1367 016f 5D       		.byte	0x5d
 1368 0170 A2010000 		.4byte	0x1a2
 1369 0174 08       		.uleb128 0x8
 1370 0175 F6000000 		.4byte	.LASF22
 1371 0179 01       		.byte	0x1
 1372 017a 86       		.byte	0x86
 1373 017b 49000000 		.4byte	0x49
 1374 017f 7E000000 		.4byte	.LLST8
 1375 0183 08       		.uleb128 0x8
 1376 0184 34010000 		.4byte	.LASF23
 1377 0188 01       		.byte	0x1
 1378 0189 86       		.byte	0x86
 1379 018a 49000000 		.4byte	0x49
 1380 018e 91000000 		.4byte	.LLST9
 1381 0192 08       		.uleb128 0x8
 1382 0193 7D020000 		.4byte	.LASF24
 1383 0197 01       		.byte	0x1
 1384 0198 86       		.byte	0x86
 1385 0199 49000000 		.4byte	0x49
 1386 019d A4000000 		.4byte	.LLST10
 1387 01a1 00       		.byte	0x0
 1388 01a2 0D       		.uleb128 0xd
 1389 01a3 01       		.byte	0x1
 1390 01a4 50000000 		.4byte	.LASF27
 1391 01a8 01       		.byte	0x1
 1392 01a9 A0       		.byte	0xa0
 1393 01aa 0B030000 		.4byte	.LASF28
 1394 01ae 00000000 		.4byte	.LFB8
 1395 01b2 0C000000 		.4byte	.LFE8
 1396 01b6 01       		.byte	0x1
 1397 01b7 5D       		.byte	0x5d
 1398 01b8 CA010000 		.4byte	0x1ca
 1399 01bc 0E       		.uleb128 0xe
 1400 01bd 45000000 		.4byte	.LASF29
 1401 01c1 01       		.byte	0x1
 1402 01c2 A0       		.byte	0xa0
 1403 01c3 49000000 		.4byte	0x49
 1404 01c7 01       		.byte	0x1
 1405 01c8 50       		.byte	0x50
 1406 01c9 00       		.byte	0x0
 1407 01ca 0D       		.uleb128 0xd
 1408 01cb 01       		.byte	0x1
 1409 01cc EB020000 		.4byte	.LASF30
 1410 01d0 01       		.byte	0x1
 1411 01d1 A5       		.byte	0xa5
 1412 01d2 99030000 		.4byte	.LASF31
 1413 01d6 00000000 		.4byte	.LFB9
 1414 01da 0C000000 		.4byte	.LFE9
 1415 01de 01       		.byte	0x1
 1416 01df 5D       		.byte	0x5d
 1417 01e0 F2010000 		.4byte	0x1f2
 1418 01e4 0E       		.uleb128 0xe
 1419 01e5 45000000 		.4byte	.LASF29
 1420 01e9 01       		.byte	0x1
 1421 01ea A5       		.byte	0xa5
ARM GAS  /cygdrive/c/Users/Chris/AppData/Local/Temp/cckFMeUj.s 			page 30


 1422 01eb 49000000 		.4byte	0x49
 1423 01ef 01       		.byte	0x1
 1424 01f0 50       		.byte	0x50
 1425 01f1 00       		.byte	0x0
 1426 01f2 07       		.uleb128 0x7
 1427 01f3 01       		.byte	0x1
 1428 01f4 BE010000 		.4byte	.LASF32
 1429 01f8 01       		.byte	0x1
 1430 01f9 77       		.byte	0x77
 1431 01fa 7D000000 		.4byte	.LASF33
 1432 01fe 00000000 		.4byte	.LFB4
 1433 0202 54000000 		.4byte	.LFE4
 1434 0206 B7000000 		.4byte	.LLST13
 1435 020a 58020000 		.4byte	0x258
 1436 020e 08       		.uleb128 0x8
 1437 020f 7D020000 		.4byte	.LASF24
 1438 0213 01       		.byte	0x1
 1439 0214 77       		.byte	0x77
 1440 0215 49000000 		.4byte	0x49
 1441 0219 D6000000 		.4byte	.LLST14
 1442 021d 08       		.uleb128 0x8
 1443 021e C9010000 		.4byte	.LASF34
 1444 0222 01       		.byte	0x1
 1445 0223 77       		.byte	0x77
 1446 0224 49000000 		.4byte	0x49
 1447 0228 F4000000 		.4byte	.LLST15
 1448 022c 08       		.uleb128 0x8
 1449 022d 06040000 		.4byte	.LASF35
 1450 0231 01       		.byte	0x1
 1451 0232 77       		.byte	0x77
 1452 0233 F6000000 		.4byte	0xf6
 1453 0237 12010000 		.4byte	.LLST16
 1454 023b 08       		.uleb128 0x8
 1455 023c 62000000 		.4byte	.LASF36
 1456 0240 01       		.byte	0x1
 1457 0241 77       		.byte	0x77
 1458 0242 49000000 		.4byte	0x49
 1459 0246 30010000 		.4byte	.LLST17
 1460 024a 0F       		.uleb128 0xf
 1461 024b 45000000 		.4byte	.LASF29
 1462 024f 01       		.byte	0x1
 1463 0250 79       		.byte	0x79
 1464 0251 49000000 		.4byte	0x49
 1465 0255 01       		.byte	0x1
 1466 0256 57       		.byte	0x57
 1467 0257 00       		.byte	0x0
 1468 0258 07       		.uleb128 0x7
 1469 0259 01       		.byte	0x1
 1470 025a A4010000 		.4byte	.LASF37
 1471 025e 01       		.byte	0x1
 1472 025f 5C       		.byte	0x5c
 1473 0260 39030000 		.4byte	.LASF38
 1474 0264 00000000 		.4byte	.LFB3
 1475 0268 9C000000 		.4byte	.LFE3
 1476 026c 4E010000 		.4byte	.LLST18
 1477 0270 BC020000 		.4byte	0x2bc
 1478 0274 08       		.uleb128 0x8
ARM GAS  /cygdrive/c/Users/Chris/AppData/Local/Temp/cckFMeUj.s 			page 31


 1479 0275 7D020000 		.4byte	.LASF24
 1480 0279 01       		.byte	0x1
 1481 027a 5C       		.byte	0x5c
 1482 027b 49000000 		.4byte	0x49
 1483 027f 6D010000 		.4byte	.LLST19
 1484 0283 08       		.uleb128 0x8
 1485 0284 C9010000 		.4byte	.LASF34
 1486 0288 01       		.byte	0x1
 1487 0289 5C       		.byte	0x5c
 1488 028a 49000000 		.4byte	0x49
 1489 028e 8B010000 		.4byte	.LLST20
 1490 0292 08       		.uleb128 0x8
 1491 0293 82020000 		.4byte	.LASF39
 1492 0297 01       		.byte	0x1
 1493 0298 5C       		.byte	0x5c
 1494 0299 BC020000 		.4byte	0x2bc
 1495 029d A9010000 		.4byte	.LLST21
 1496 02a1 10       		.uleb128 0x10
 1497 02a2 6900     		.ascii	"i\000"
 1498 02a4 01       		.byte	0x1
 1499 02a5 5E       		.byte	0x5e
 1500 02a6 49000000 		.4byte	0x49
 1501 02aa C7010000 		.4byte	.LLST22
 1502 02ae 0F       		.uleb128 0xf
 1503 02af 45000000 		.4byte	.LASF29
 1504 02b3 01       		.byte	0x1
 1505 02b4 5F       		.byte	0x5f
 1506 02b5 49000000 		.4byte	0x49
 1507 02b9 01       		.byte	0x1
 1508 02ba 58       		.byte	0x58
 1509 02bb 00       		.byte	0x0
 1510 02bc 02       		.uleb128 0x2
 1511 02bd 01       		.byte	0x1
 1512 02be 02       		.byte	0x2
 1513 02bf 78000000 		.4byte	.LASF40
 1514 02c3 11       		.uleb128 0x11
 1515 02c4 01       		.byte	0x1
 1516 02c5 E4010000 		.4byte	.LASF61
 1517 02c9 01       		.byte	0x1
 1518 02ca 38       		.byte	0x38
 1519 02cb CE030000 		.4byte	.LASF62
 1520 02cf 49000000 		.4byte	0x49
 1521 02d3 00000000 		.4byte	.LFB2
 1522 02d7 D8000000 		.4byte	.LFE2
 1523 02db E5010000 		.4byte	.LLST23
 1524 02df 2D030000 		.4byte	0x32d
 1525 02e3 12       		.uleb128 0x12
 1526 02e4 64737400 		.ascii	"dst\000"
 1527 02e8 01       		.byte	0x1
 1528 02e9 38       		.byte	0x38
 1529 02ea F6000000 		.4byte	0xf6
 1530 02ee 04020000 		.4byte	.LLST24
 1531 02f2 12       		.uleb128 0x12
 1532 02f3 73726300 		.ascii	"src\000"
 1533 02f7 01       		.byte	0x1
 1534 02f8 38       		.byte	0x38
 1535 02f9 2D030000 		.4byte	0x32d
ARM GAS  /cygdrive/c/Users/Chris/AppData/Local/Temp/cckFMeUj.s 			page 32


 1536 02fd 17020000 		.4byte	.LLST25
 1537 0301 08       		.uleb128 0x8
 1538 0302 8D030000 		.4byte	.LASF41
 1539 0306 01       		.byte	0x1
 1540 0307 38       		.byte	0x38
 1541 0308 49000000 		.4byte	0x49
 1542 030c 35020000 		.4byte	.LLST26
 1543 0310 08       		.uleb128 0x8
 1544 0311 82020000 		.4byte	.LASF39
 1545 0315 01       		.byte	0x1
 1546 0316 38       		.byte	0x38
 1547 0317 BC020000 		.4byte	0x2bc
 1548 031b 53020000 		.4byte	.LLST27
 1549 031f 10       		.uleb128 0x10
 1550 0320 6900     		.ascii	"i\000"
 1551 0322 01       		.byte	0x1
 1552 0323 3A       		.byte	0x3a
 1553 0324 49000000 		.4byte	0x49
 1554 0328 71020000 		.4byte	.LLST28
 1555 032c 00       		.byte	0x0
 1556 032d 0A       		.uleb128 0xa
 1557 032e 04       		.byte	0x4
 1558 032f 29000000 		.4byte	0x29
 1559 0333 13       		.uleb128 0x13
 1560 0334 01       		.byte	0x1
 1561 0335 E4030000 		.4byte	.LASF42
 1562 0339 01       		.byte	0x1
 1563 033a AC       		.byte	0xac
 1564 033b 3F010000 		.4byte	.LASF44
 1565 033f 00000000 		.4byte	.LFB10
 1566 0343 24000000 		.4byte	.LFE10
 1567 0347 8F020000 		.4byte	.LLST29
 1568 034b 14       		.uleb128 0x14
 1569 034c 01       		.byte	0x1
 1570 034d 92010000 		.4byte	.LASF63
 1571 0351 01       		.byte	0x1
 1572 0352 B4       		.byte	0xb4
 1573 0353 24020000 		.4byte	.LASF64
 1574 0357 3E000000 		.4byte	0x3e
 1575 035b 00000000 		.4byte	.LFB11
 1576 035f 48000000 		.4byte	.LFE11
 1577 0363 AE020000 		.4byte	.LLST30
 1578 0367 15       		.uleb128 0x15
 1579 0368 01       		.byte	0x1
 1580 0369 0E000000 		.4byte	.LASF43
 1581 036d 01       		.byte	0x1
 1582 036e C4       		.byte	0xc4
 1583 036f 95020000 		.4byte	.LASF45
 1584 0373 00000000 		.4byte	.LFB12
 1585 0377 18000000 		.4byte	.LFE12
 1586 037b 01       		.byte	0x1
 1587 037c 5D       		.byte	0x5d
 1588 037d 13       		.uleb128 0x13
 1589 037e 01       		.byte	0x1
 1590 037f 13020000 		.4byte	.LASF46
 1591 0383 01       		.byte	0x1
 1592 0384 D0       		.byte	0xd0
ARM GAS  /cygdrive/c/Users/Chris/AppData/Local/Temp/cckFMeUj.s 			page 33


 1593 0385 91000000 		.4byte	.LASF47
 1594 0389 00000000 		.4byte	.LFB13
 1595 038d 4C000000 		.4byte	.LFE13
 1596 0391 CD020000 		.4byte	.LLST32
 1597 0395 16       		.uleb128 0x16
 1598 0396 49000000 		.4byte	0x49
 1599 039a A5030000 		.4byte	0x3a5
 1600 039e 17       		.uleb128 0x17
 1601 039f A5030000 		.4byte	0x3a5
 1602 03a3 1F       		.byte	0x1f
 1603 03a4 00       		.byte	0x0
 1604 03a5 18       		.uleb128 0x18
 1605 03a6 04       		.byte	0x4
 1606 03a7 07       		.byte	0x7
 1607 03a8 19       		.uleb128 0x19
 1608 03a9 02020000 		.4byte	.LASF48
 1609 03ad 01       		.byte	0x1
 1610 03ae 15       		.byte	0x15
 1611 03af BA030000 		.4byte	0x3ba
 1612 03b3 01       		.byte	0x1
 1613 03b4 05       		.byte	0x5
 1614 03b5 03       		.byte	0x3
 1615 03b6 00000000 		.4byte	sector_start_map
 1616 03ba 1A       		.uleb128 0x1a
 1617 03bb 95030000 		.4byte	0x395
 1618 03bf 19       		.uleb128 0x19
 1619 03c0 22000000 		.4byte	.LASF49
 1620 03c4 01       		.byte	0x1
 1621 03c5 1E       		.byte	0x1e
 1622 03c6 D1030000 		.4byte	0x3d1
 1623 03ca 01       		.byte	0x1
 1624 03cb 05       		.byte	0x5
 1625 03cc 03       		.byte	0x3
 1626 03cd 00000000 		.4byte	sector_end_map
 1627 03d1 1A       		.uleb128 0x1a
 1628 03d2 95030000 		.4byte	0x395
 1629 03d6 1B       		.uleb128 0x1b
 1630 03d7 63727000 		.ascii	"crp\000"
 1631 03db 01       		.byte	0x1
 1632 03dc 13       		.byte	0x13
 1633 03dd E8030000 		.4byte	0x3e8
 1634 03e1 01       		.byte	0x1
 1635 03e2 05       		.byte	0x5
 1636 03e3 03       		.byte	0x3
 1637 03e4 00000000 		.4byte	crp
 1638 03e8 1A       		.uleb128 0x1a
 1639 03e9 49000000 		.4byte	0x49
 1640 03ed 16       		.uleb128 0x16
 1641 03ee 49000000 		.4byte	0x49
 1642 03f2 FD030000 		.4byte	0x3fd
 1643 03f6 17       		.uleb128 0x17
 1644 03f7 A5030000 		.4byte	0x3a5
 1645 03fb 04       		.byte	0x4
 1646 03fc 00       		.byte	0x0
 1647 03fd 19       		.uleb128 0x19
 1648 03fe 56010000 		.4byte	.LASF50
 1649 0402 01       		.byte	0x1
ARM GAS  /cygdrive/c/Users/Chris/AppData/Local/Temp/cckFMeUj.s 			page 34


 1650 0403 26       		.byte	0x26
 1651 0404 ED030000 		.4byte	0x3ed
 1652 0408 01       		.byte	0x1
 1653 0409 05       		.byte	0x5
 1654 040a 03       		.byte	0x3
 1655 040b 00000000 		.4byte	param_table
 1656 040f 19       		.uleb128 0x19
 1657 0410 D7010000 		.4byte	.LASF51
 1658 0414 01       		.byte	0x1
 1659 0415 27       		.byte	0x27
 1660 0416 ED030000 		.4byte	0x3ed
 1661 041a 01       		.byte	0x1
 1662 041b 05       		.byte	0x5
 1663 041c 03       		.byte	0x3
 1664 041d 00000000 		.4byte	result_table
 1665 0421 19       		.uleb128 0x19
 1666 0422 7D020000 		.4byte	.LASF24
 1667 0426 01       		.byte	0x1
 1668 0427 29       		.byte	0x29
 1669 0428 49000000 		.4byte	0x49
 1670 042c 01       		.byte	0x1
 1671 042d 05       		.byte	0x5
 1672 042e 03       		.byte	0x3
 1673 042f 00000000 		.4byte	cclk
 1674 0433 16       		.uleb128 0x16
 1675 0434 44040000 		.4byte	0x444
 1676 0438 44040000 		.4byte	0x444
 1677 043c 1C       		.uleb128 0x1c
 1678 043d A5030000 		.4byte	0x3a5
 1679 0441 FF01     		.2byte	0x1ff
 1680 0443 00       		.byte	0x0
 1681 0444 02       		.uleb128 0x2
 1682 0445 01       		.byte	0x1
 1683 0446 08       		.byte	0x8
 1684 0447 DC020000 		.4byte	.LASF52
 1685 044b 19       		.uleb128 0x19
 1686 044c E1020000 		.4byte	.LASF53
 1687 0450 01       		.byte	0x1
 1688 0451 2A       		.byte	0x2a
 1689 0452 33040000 		.4byte	0x433
 1690 0456 01       		.byte	0x1
 1691 0457 05       		.byte	0x5
 1692 0458 03       		.byte	0x3
 1693 0459 00000000 		.4byte	flash_buf
 1694 045d 19       		.uleb128 0x19
 1695 045e C9010000 		.4byte	.LASF34
 1696 0462 01       		.byte	0x1
 1697 0463 2C       		.byte	0x2c
 1698 0464 F6000000 		.4byte	0xf6
 1699 0468 01       		.byte	0x1
 1700 0469 05       		.byte	0x5
 1701 046a 03       		.byte	0x3
 1702 046b 00000000 		.4byte	flash_address
 1703 046f 19       		.uleb128 0x19
 1704 0470 3B020000 		.4byte	.LASF54
 1705 0474 01       		.byte	0x1
 1706 0475 2D       		.byte	0x2d
ARM GAS  /cygdrive/c/Users/Chris/AppData/Local/Temp/cckFMeUj.s 			page 35


 1707 0476 49000000 		.4byte	0x49
 1708 047a 01       		.byte	0x1
 1709 047b 05       		.byte	0x5
 1710 047c 03       		.byte	0x3
 1711 047d 00000000 		.4byte	byte_ctr
 1712 0481 1D       		.uleb128 0x1d
 1713 0482 19       		.uleb128 0x19
 1714 0483 F6030000 		.4byte	.LASF55
 1715 0487 01       		.byte	0x1
 1716 0488 AA       		.byte	0xaa
 1717 0489 94040000 		.4byte	0x494
 1718 048d 01       		.byte	0x1
 1719 048e 05       		.byte	0x5
 1720 048f 03       		.byte	0x3
 1721 0490 00000000 		.4byte	user_code_entry
 1722 0494 0A       		.uleb128 0xa
 1723 0495 04       		.byte	0x4
 1724 0496 81040000 		.4byte	0x481
 1725 049a 00       		.byte	0x0
 1726              		.section	.debug_abbrev
 1727 0000 01       		.uleb128 0x1
 1728 0001 11       		.uleb128 0x11
 1729 0002 01       		.byte	0x1
 1730 0003 25       		.uleb128 0x25
 1731 0004 0E       		.uleb128 0xe
 1732 0005 13       		.uleb128 0x13
 1733 0006 0B       		.uleb128 0xb
 1734 0007 03       		.uleb128 0x3
 1735 0008 0E       		.uleb128 0xe
 1736 0009 1B       		.uleb128 0x1b
 1737 000a 0E       		.uleb128 0xe
 1738 000b 11       		.uleb128 0x11
 1739 000c 01       		.uleb128 0x1
 1740 000d 52       		.uleb128 0x52
 1741 000e 01       		.uleb128 0x1
 1742 000f 55       		.uleb128 0x55
 1743 0010 06       		.uleb128 0x6
 1744 0011 10       		.uleb128 0x10
 1745 0012 06       		.uleb128 0x6
 1746 0013 00       		.byte	0x0
 1747 0014 00       		.byte	0x0
 1748 0015 02       		.uleb128 0x2
 1749 0016 24       		.uleb128 0x24
 1750 0017 00       		.byte	0x0
 1751 0018 0B       		.uleb128 0xb
 1752 0019 0B       		.uleb128 0xb
 1753 001a 3E       		.uleb128 0x3e
 1754 001b 0B       		.uleb128 0xb
 1755 001c 03       		.uleb128 0x3
 1756 001d 0E       		.uleb128 0xe
 1757 001e 00       		.byte	0x0
 1758 001f 00       		.byte	0x0
 1759 0020 03       		.uleb128 0x3
 1760 0021 16       		.uleb128 0x16
 1761 0022 00       		.byte	0x0
 1762 0023 03       		.uleb128 0x3
 1763 0024 0E       		.uleb128 0xe
ARM GAS  /cygdrive/c/Users/Chris/AppData/Local/Temp/cckFMeUj.s 			page 36


 1764 0025 3A       		.uleb128 0x3a
 1765 0026 0B       		.uleb128 0xb
 1766 0027 3B       		.uleb128 0x3b
 1767 0028 0B       		.uleb128 0xb
 1768 0029 49       		.uleb128 0x49
 1769 002a 13       		.uleb128 0x13
 1770 002b 00       		.byte	0x0
 1771 002c 00       		.byte	0x0
 1772 002d 04       		.uleb128 0x4
 1773 002e 24       		.uleb128 0x24
 1774 002f 00       		.byte	0x0
 1775 0030 0B       		.uleb128 0xb
 1776 0031 0B       		.uleb128 0xb
 1777 0032 3E       		.uleb128 0x3e
 1778 0033 0B       		.uleb128 0xb
 1779 0034 03       		.uleb128 0x3
 1780 0035 08       		.uleb128 0x8
 1781 0036 00       		.byte	0x0
 1782 0037 00       		.byte	0x0
 1783 0038 05       		.uleb128 0x5
 1784 0039 04       		.uleb128 0x4
 1785 003a 01       		.byte	0x1
 1786 003b 03       		.uleb128 0x3
 1787 003c 0E       		.uleb128 0xe
 1788 003d 0B       		.uleb128 0xb
 1789 003e 0B       		.uleb128 0xb
 1790 003f 3A       		.uleb128 0x3a
 1791 0040 0B       		.uleb128 0xb
 1792 0041 3B       		.uleb128 0x3b
 1793 0042 0B       		.uleb128 0xb
 1794 0043 01       		.uleb128 0x1
 1795 0044 13       		.uleb128 0x13
 1796 0045 00       		.byte	0x0
 1797 0046 00       		.byte	0x0
 1798 0047 06       		.uleb128 0x6
 1799 0048 28       		.uleb128 0x28
 1800 0049 00       		.byte	0x0
 1801 004a 03       		.uleb128 0x3
 1802 004b 0E       		.uleb128 0xe
 1803 004c 1C       		.uleb128 0x1c
 1804 004d 0D       		.uleb128 0xd
 1805 004e 00       		.byte	0x0
 1806 004f 00       		.byte	0x0
 1807 0050 07       		.uleb128 0x7
 1808 0051 2E       		.uleb128 0x2e
 1809 0052 01       		.byte	0x1
 1810 0053 3F       		.uleb128 0x3f
 1811 0054 0C       		.uleb128 0xc
 1812 0055 03       		.uleb128 0x3
 1813 0056 0E       		.uleb128 0xe
 1814 0057 3A       		.uleb128 0x3a
 1815 0058 0B       		.uleb128 0xb
 1816 0059 3B       		.uleb128 0x3b
 1817 005a 0B       		.uleb128 0xb
 1818 005b 8740     		.uleb128 0x2007
 1819 005d 0E       		.uleb128 0xe
 1820 005e 11       		.uleb128 0x11
ARM GAS  /cygdrive/c/Users/Chris/AppData/Local/Temp/cckFMeUj.s 			page 37


 1821 005f 01       		.uleb128 0x1
 1822 0060 12       		.uleb128 0x12
 1823 0061 01       		.uleb128 0x1
 1824 0062 40       		.uleb128 0x40
 1825 0063 06       		.uleb128 0x6
 1826 0064 01       		.uleb128 0x1
 1827 0065 13       		.uleb128 0x13
 1828 0066 00       		.byte	0x0
 1829 0067 00       		.byte	0x0
 1830 0068 08       		.uleb128 0x8
 1831 0069 05       		.uleb128 0x5
 1832 006a 00       		.byte	0x0
 1833 006b 03       		.uleb128 0x3
 1834 006c 0E       		.uleb128 0xe
 1835 006d 3A       		.uleb128 0x3a
 1836 006e 0B       		.uleb128 0xb
 1837 006f 3B       		.uleb128 0x3b
 1838 0070 0B       		.uleb128 0xb
 1839 0071 49       		.uleb128 0x49
 1840 0072 13       		.uleb128 0x13
 1841 0073 02       		.uleb128 0x2
 1842 0074 06       		.uleb128 0x6
 1843 0075 00       		.byte	0x0
 1844 0076 00       		.byte	0x0
 1845 0077 09       		.uleb128 0x9
 1846 0078 34       		.uleb128 0x34
 1847 0079 00       		.byte	0x0
 1848 007a 03       		.uleb128 0x3
 1849 007b 08       		.uleb128 0x8
 1850 007c 3A       		.uleb128 0x3a
 1851 007d 0B       		.uleb128 0xb
 1852 007e 3B       		.uleb128 0x3b
 1853 007f 0B       		.uleb128 0xb
 1854 0080 49       		.uleb128 0x49
 1855 0081 13       		.uleb128 0x13
 1856 0082 00       		.byte	0x0
 1857 0083 00       		.byte	0x0
 1858 0084 0A       		.uleb128 0xa
 1859 0085 0F       		.uleb128 0xf
 1860 0086 00       		.byte	0x0
 1861 0087 0B       		.uleb128 0xb
 1862 0088 0B       		.uleb128 0xb
 1863 0089 49       		.uleb128 0x49
 1864 008a 13       		.uleb128 0x13
 1865 008b 00       		.byte	0x0
 1866 008c 00       		.byte	0x0
 1867 008d 0B       		.uleb128 0xb
 1868 008e 15       		.uleb128 0x15
 1869 008f 01       		.byte	0x1
 1870 0090 01       		.uleb128 0x1
 1871 0091 13       		.uleb128 0x13
 1872 0092 00       		.byte	0x0
 1873 0093 00       		.byte	0x0
 1874 0094 0C       		.uleb128 0xc
 1875 0095 05       		.uleb128 0x5
 1876 0096 00       		.byte	0x0
 1877 0097 49       		.uleb128 0x49
ARM GAS  /cygdrive/c/Users/Chris/AppData/Local/Temp/cckFMeUj.s 			page 38


 1878 0098 13       		.uleb128 0x13
 1879 0099 00       		.byte	0x0
 1880 009a 00       		.byte	0x0
 1881 009b 0D       		.uleb128 0xd
 1882 009c 2E       		.uleb128 0x2e
 1883 009d 01       		.byte	0x1
 1884 009e 3F       		.uleb128 0x3f
 1885 009f 0C       		.uleb128 0xc
 1886 00a0 03       		.uleb128 0x3
 1887 00a1 0E       		.uleb128 0xe
 1888 00a2 3A       		.uleb128 0x3a
 1889 00a3 0B       		.uleb128 0xb
 1890 00a4 3B       		.uleb128 0x3b
 1891 00a5 0B       		.uleb128 0xb
 1892 00a6 8740     		.uleb128 0x2007
 1893 00a8 0E       		.uleb128 0xe
 1894 00a9 11       		.uleb128 0x11
 1895 00aa 01       		.uleb128 0x1
 1896 00ab 12       		.uleb128 0x12
 1897 00ac 01       		.uleb128 0x1
 1898 00ad 40       		.uleb128 0x40
 1899 00ae 0A       		.uleb128 0xa
 1900 00af 01       		.uleb128 0x1
 1901 00b0 13       		.uleb128 0x13
 1902 00b1 00       		.byte	0x0
 1903 00b2 00       		.byte	0x0
 1904 00b3 0E       		.uleb128 0xe
 1905 00b4 05       		.uleb128 0x5
 1906 00b5 00       		.byte	0x0
 1907 00b6 03       		.uleb128 0x3
 1908 00b7 0E       		.uleb128 0xe
 1909 00b8 3A       		.uleb128 0x3a
 1910 00b9 0B       		.uleb128 0xb
 1911 00ba 3B       		.uleb128 0x3b
 1912 00bb 0B       		.uleb128 0xb
 1913 00bc 49       		.uleb128 0x49
 1914 00bd 13       		.uleb128 0x13
 1915 00be 02       		.uleb128 0x2
 1916 00bf 0A       		.uleb128 0xa
 1917 00c0 00       		.byte	0x0
 1918 00c1 00       		.byte	0x0
 1919 00c2 0F       		.uleb128 0xf
 1920 00c3 34       		.uleb128 0x34
 1921 00c4 00       		.byte	0x0
 1922 00c5 03       		.uleb128 0x3
 1923 00c6 0E       		.uleb128 0xe
 1924 00c7 3A       		.uleb128 0x3a
 1925 00c8 0B       		.uleb128 0xb
 1926 00c9 3B       		.uleb128 0x3b
 1927 00ca 0B       		.uleb128 0xb
 1928 00cb 49       		.uleb128 0x49
 1929 00cc 13       		.uleb128 0x13
 1930 00cd 02       		.uleb128 0x2
 1931 00ce 0A       		.uleb128 0xa
 1932 00cf 00       		.byte	0x0
 1933 00d0 00       		.byte	0x0
 1934 00d1 10       		.uleb128 0x10
ARM GAS  /cygdrive/c/Users/Chris/AppData/Local/Temp/cckFMeUj.s 			page 39


 1935 00d2 34       		.uleb128 0x34
 1936 00d3 00       		.byte	0x0
 1937 00d4 03       		.uleb128 0x3
 1938 00d5 08       		.uleb128 0x8
 1939 00d6 3A       		.uleb128 0x3a
 1940 00d7 0B       		.uleb128 0xb
 1941 00d8 3B       		.uleb128 0x3b
 1942 00d9 0B       		.uleb128 0xb
 1943 00da 49       		.uleb128 0x49
 1944 00db 13       		.uleb128 0x13
 1945 00dc 02       		.uleb128 0x2
 1946 00dd 06       		.uleb128 0x6
 1947 00de 00       		.byte	0x0
 1948 00df 00       		.byte	0x0
 1949 00e0 11       		.uleb128 0x11
 1950 00e1 2E       		.uleb128 0x2e
 1951 00e2 01       		.byte	0x1
 1952 00e3 3F       		.uleb128 0x3f
 1953 00e4 0C       		.uleb128 0xc
 1954 00e5 03       		.uleb128 0x3
 1955 00e6 0E       		.uleb128 0xe
 1956 00e7 3A       		.uleb128 0x3a
 1957 00e8 0B       		.uleb128 0xb
 1958 00e9 3B       		.uleb128 0x3b
 1959 00ea 0B       		.uleb128 0xb
 1960 00eb 8740     		.uleb128 0x2007
 1961 00ed 0E       		.uleb128 0xe
 1962 00ee 49       		.uleb128 0x49
 1963 00ef 13       		.uleb128 0x13
 1964 00f0 11       		.uleb128 0x11
 1965 00f1 01       		.uleb128 0x1
 1966 00f2 12       		.uleb128 0x12
 1967 00f3 01       		.uleb128 0x1
 1968 00f4 40       		.uleb128 0x40
 1969 00f5 06       		.uleb128 0x6
 1970 00f6 01       		.uleb128 0x1
 1971 00f7 13       		.uleb128 0x13
 1972 00f8 00       		.byte	0x0
 1973 00f9 00       		.byte	0x0
 1974 00fa 12       		.uleb128 0x12
 1975 00fb 05       		.uleb128 0x5
 1976 00fc 00       		.byte	0x0
 1977 00fd 03       		.uleb128 0x3
 1978 00fe 08       		.uleb128 0x8
 1979 00ff 3A       		.uleb128 0x3a
 1980 0100 0B       		.uleb128 0xb
 1981 0101 3B       		.uleb128 0x3b
 1982 0102 0B       		.uleb128 0xb
 1983 0103 49       		.uleb128 0x49
 1984 0104 13       		.uleb128 0x13
 1985 0105 02       		.uleb128 0x2
 1986 0106 06       		.uleb128 0x6
 1987 0107 00       		.byte	0x0
 1988 0108 00       		.byte	0x0
 1989 0109 13       		.uleb128 0x13
 1990 010a 2E       		.uleb128 0x2e
 1991 010b 00       		.byte	0x0
ARM GAS  /cygdrive/c/Users/Chris/AppData/Local/Temp/cckFMeUj.s 			page 40


 1992 010c 3F       		.uleb128 0x3f
 1993 010d 0C       		.uleb128 0xc
 1994 010e 03       		.uleb128 0x3
 1995 010f 0E       		.uleb128 0xe
 1996 0110 3A       		.uleb128 0x3a
 1997 0111 0B       		.uleb128 0xb
 1998 0112 3B       		.uleb128 0x3b
 1999 0113 0B       		.uleb128 0xb
 2000 0114 8740     		.uleb128 0x2007
 2001 0116 0E       		.uleb128 0xe
 2002 0117 11       		.uleb128 0x11
 2003 0118 01       		.uleb128 0x1
 2004 0119 12       		.uleb128 0x12
 2005 011a 01       		.uleb128 0x1
 2006 011b 40       		.uleb128 0x40
 2007 011c 06       		.uleb128 0x6
 2008 011d 00       		.byte	0x0
 2009 011e 00       		.byte	0x0
 2010 011f 14       		.uleb128 0x14
 2011 0120 2E       		.uleb128 0x2e
 2012 0121 00       		.byte	0x0
 2013 0122 3F       		.uleb128 0x3f
 2014 0123 0C       		.uleb128 0xc
 2015 0124 03       		.uleb128 0x3
 2016 0125 0E       		.uleb128 0xe
 2017 0126 3A       		.uleb128 0x3a
 2018 0127 0B       		.uleb128 0xb
 2019 0128 3B       		.uleb128 0x3b
 2020 0129 0B       		.uleb128 0xb
 2021 012a 8740     		.uleb128 0x2007
 2022 012c 0E       		.uleb128 0xe
 2023 012d 49       		.uleb128 0x49
 2024 012e 13       		.uleb128 0x13
 2025 012f 11       		.uleb128 0x11
 2026 0130 01       		.uleb128 0x1
 2027 0131 12       		.uleb128 0x12
 2028 0132 01       		.uleb128 0x1
 2029 0133 40       		.uleb128 0x40
 2030 0134 06       		.uleb128 0x6
 2031 0135 00       		.byte	0x0
 2032 0136 00       		.byte	0x0
 2033 0137 15       		.uleb128 0x15
 2034 0138 2E       		.uleb128 0x2e
 2035 0139 00       		.byte	0x0
 2036 013a 3F       		.uleb128 0x3f
 2037 013b 0C       		.uleb128 0xc
 2038 013c 03       		.uleb128 0x3
 2039 013d 0E       		.uleb128 0xe
 2040 013e 3A       		.uleb128 0x3a
 2041 013f 0B       		.uleb128 0xb
 2042 0140 3B       		.uleb128 0x3b
 2043 0141 0B       		.uleb128 0xb
 2044 0142 8740     		.uleb128 0x2007
 2045 0144 0E       		.uleb128 0xe
 2046 0145 11       		.uleb128 0x11
 2047 0146 01       		.uleb128 0x1
 2048 0147 12       		.uleb128 0x12
ARM GAS  /cygdrive/c/Users/Chris/AppData/Local/Temp/cckFMeUj.s 			page 41


 2049 0148 01       		.uleb128 0x1
 2050 0149 40       		.uleb128 0x40
 2051 014a 0A       		.uleb128 0xa
 2052 014b 00       		.byte	0x0
 2053 014c 00       		.byte	0x0
 2054 014d 16       		.uleb128 0x16
 2055 014e 01       		.uleb128 0x1
 2056 014f 01       		.byte	0x1
 2057 0150 49       		.uleb128 0x49
 2058 0151 13       		.uleb128 0x13
 2059 0152 01       		.uleb128 0x1
 2060 0153 13       		.uleb128 0x13
 2061 0154 00       		.byte	0x0
 2062 0155 00       		.byte	0x0
 2063 0156 17       		.uleb128 0x17
 2064 0157 21       		.uleb128 0x21
 2065 0158 00       		.byte	0x0
 2066 0159 49       		.uleb128 0x49
 2067 015a 13       		.uleb128 0x13
 2068 015b 2F       		.uleb128 0x2f
 2069 015c 0B       		.uleb128 0xb
 2070 015d 00       		.byte	0x0
 2071 015e 00       		.byte	0x0
 2072 015f 18       		.uleb128 0x18
 2073 0160 24       		.uleb128 0x24
 2074 0161 00       		.byte	0x0
 2075 0162 0B       		.uleb128 0xb
 2076 0163 0B       		.uleb128 0xb
 2077 0164 3E       		.uleb128 0x3e
 2078 0165 0B       		.uleb128 0xb
 2079 0166 00       		.byte	0x0
 2080 0167 00       		.byte	0x0
 2081 0168 19       		.uleb128 0x19
 2082 0169 34       		.uleb128 0x34
 2083 016a 00       		.byte	0x0
 2084 016b 03       		.uleb128 0x3
 2085 016c 0E       		.uleb128 0xe
 2086 016d 3A       		.uleb128 0x3a
 2087 016e 0B       		.uleb128 0xb
 2088 016f 3B       		.uleb128 0x3b
 2089 0170 0B       		.uleb128 0xb
 2090 0171 49       		.uleb128 0x49
 2091 0172 13       		.uleb128 0x13
 2092 0173 3F       		.uleb128 0x3f
 2093 0174 0C       		.uleb128 0xc
 2094 0175 02       		.uleb128 0x2
 2095 0176 0A       		.uleb128 0xa
 2096 0177 00       		.byte	0x0
 2097 0178 00       		.byte	0x0
 2098 0179 1A       		.uleb128 0x1a
 2099 017a 26       		.uleb128 0x26
 2100 017b 00       		.byte	0x0
 2101 017c 49       		.uleb128 0x49
 2102 017d 13       		.uleb128 0x13
 2103 017e 00       		.byte	0x0
 2104 017f 00       		.byte	0x0
 2105 0180 1B       		.uleb128 0x1b
ARM GAS  /cygdrive/c/Users/Chris/AppData/Local/Temp/cckFMeUj.s 			page 42


 2106 0181 34       		.uleb128 0x34
 2107 0182 00       		.byte	0x0
 2108 0183 03       		.uleb128 0x3
 2109 0184 08       		.uleb128 0x8
 2110 0185 3A       		.uleb128 0x3a
 2111 0186 0B       		.uleb128 0xb
 2112 0187 3B       		.uleb128 0x3b
 2113 0188 0B       		.uleb128 0xb
 2114 0189 49       		.uleb128 0x49
 2115 018a 13       		.uleb128 0x13
 2116 018b 3F       		.uleb128 0x3f
 2117 018c 0C       		.uleb128 0xc
 2118 018d 02       		.uleb128 0x2
 2119 018e 0A       		.uleb128 0xa
 2120 018f 00       		.byte	0x0
 2121 0190 00       		.byte	0x0
 2122 0191 1C       		.uleb128 0x1c
 2123 0192 21       		.uleb128 0x21
 2124 0193 00       		.byte	0x0
 2125 0194 49       		.uleb128 0x49
 2126 0195 13       		.uleb128 0x13
 2127 0196 2F       		.uleb128 0x2f
 2128 0197 05       		.uleb128 0x5
 2129 0198 00       		.byte	0x0
 2130 0199 00       		.byte	0x0
 2131 019a 1D       		.uleb128 0x1d
 2132 019b 15       		.uleb128 0x15
 2133 019c 00       		.byte	0x0
 2134 019d 00       		.byte	0x0
 2135 019e 00       		.byte	0x0
 2136 019f 00       		.byte	0x0
 2137              		.section	.debug_pubnames,"",%progbits
 2138 0000 9E010000 		.4byte	0x19e
 2139 0004 0200     		.2byte	0x2
 2140 0006 00000000 		.4byte	.Ldebug_info0
 2141 000a 9B040000 		.4byte	0x49b
 2142 000e B0000000 		.4byte	0xb0
 2143 0012 6961705F 		.ascii	"iap_entry\000"
 2143      656E7472 
 2143      7900
 2144 001c 12010000 		.4byte	0x112
 2145 0020 70726570 		.ascii	"prepare_sector\000"
 2145      6172655F 
 2145      73656374 
 2145      6F7200
 2146 002f 5A010000 		.4byte	0x15a
 2147 0033 65726173 		.ascii	"erase_sector\000"
 2147      655F7365 
 2147      63746F72 
 2147      00
 2148 0040 A2010000 		.4byte	0x1a2
 2149 0044 656E6162 		.ascii	"enable_interrupts\000"
 2149      6C655F69 
 2149      6E746572 
 2149      72757074 
 2149      7300
 2150 0056 CA010000 		.4byte	0x1ca
ARM GAS  /cygdrive/c/Users/Chris/AppData/Local/Temp/cckFMeUj.s 			page 43


 2151 005a 64697361 		.ascii	"disable_interrupts\000"
 2151      626C655F 
 2151      696E7465 
 2151      72727570 
 2151      747300
 2152 006d F2010000 		.4byte	0x1f2
 2153 0071 77726974 		.ascii	"write_data\000"
 2153      655F6461 
 2153      746100
 2154 007c 58020000 		.4byte	0x258
 2155 0080 66696E64 		.ascii	"find_erase_prepare_sector\000"
 2155      5F657261 
 2155      73655F70 
 2155      72657061 
 2155      72655F73 
 2156 009a C3020000 		.4byte	0x2c3
 2157 009e 77726974 		.ascii	"write_flash\000"
 2157      655F666C 
 2157      61736800 
 2158 00aa 33030000 		.4byte	0x333
 2159 00ae 65786563 		.ascii	"execute_user_code\000"
 2159      7574655F 
 2159      75736572 
 2159      5F636F64 
 2159      6500
 2160 00c0 4B030000 		.4byte	0x34b
 2161 00c4 75736572 		.ascii	"user_code_present\000"
 2161      5F636F64 
 2161      655F7072 
 2161      6573656E 
 2161      7400
 2162 00d6 67030000 		.4byte	0x367
 2163 00da 63686563 		.ascii	"check_isp_entry_pin\000"
 2163      6B5F6973 
 2163      705F656E 
 2163      7472795F 
 2163      70696E00 
 2164 00ee 7D030000 		.4byte	0x37d
 2165 00f2 65726173 		.ascii	"erase_user_flash\000"
 2165      655F7573 
 2165      65725F66 
 2165      6C617368 
 2165      00
 2166 0103 A8030000 		.4byte	0x3a8
 2167 0107 73656374 		.ascii	"sector_start_map\000"
 2167      6F725F73 
 2167      74617274 
 2167      5F6D6170 
 2167      00
 2168 0118 BF030000 		.4byte	0x3bf
 2169 011c 73656374 		.ascii	"sector_end_map\000"
 2169      6F725F65 
 2169      6E645F6D 
 2169      617000
 2170 012b D6030000 		.4byte	0x3d6
 2171 012f 63727000 		.ascii	"crp\000"
 2172 0133 FD030000 		.4byte	0x3fd
ARM GAS  /cygdrive/c/Users/Chris/AppData/Local/Temp/cckFMeUj.s 			page 44


 2173 0137 70617261 		.ascii	"param_table\000"
 2173      6D5F7461 
 2173      626C6500 
 2174 0143 0F040000 		.4byte	0x40f
 2175 0147 72657375 		.ascii	"result_table\000"
 2175      6C745F74 
 2175      61626C65 
 2175      00
 2176 0154 21040000 		.4byte	0x421
 2177 0158 63636C6B 		.ascii	"cclk\000"
 2177      00
 2178 015d 4B040000 		.4byte	0x44b
 2179 0161 666C6173 		.ascii	"flash_buf\000"
 2179      685F6275 
 2179      6600
 2180 016b 5D040000 		.4byte	0x45d
 2181 016f 666C6173 		.ascii	"flash_address\000"
 2181      685F6164 
 2181      64726573 
 2181      7300
 2182 017d 6F040000 		.4byte	0x46f
 2183 0181 62797465 		.ascii	"byte_ctr\000"
 2183      5F637472 
 2183      00
 2184 018a 82040000 		.4byte	0x482
 2185 018e 75736572 		.ascii	"user_code_entry\000"
 2185      5F636F64 
 2185      655F656E 
 2185      74727900 
 2186 019e 00000000 		.4byte	0x0
 2187              		.section	.debug_aranges,"",%progbits
 2188 0000 74000000 		.4byte	0x74
 2189 0004 0200     		.2byte	0x2
 2190 0006 00000000 		.4byte	.Ldebug_info0
 2191 000a 04       		.byte	0x4
 2192 000b 00       		.byte	0x0
 2193 000c 0000     		.2byte	0x0
 2194 000e 0000     		.2byte	0x0
 2195 0010 00000000 		.4byte	.LFB7
 2196 0014 18000000 		.4byte	.LFE7-.LFB7
 2197 0018 00000000 		.4byte	.LFB6
 2198 001c 2C000000 		.4byte	.LFE6-.LFB6
 2199 0020 00000000 		.4byte	.LFB5
 2200 0024 2C000000 		.4byte	.LFE5-.LFB5
 2201 0028 00000000 		.4byte	.LFB8
 2202 002c 0C000000 		.4byte	.LFE8-.LFB8
 2203 0030 00000000 		.4byte	.LFB9
 2204 0034 0C000000 		.4byte	.LFE9-.LFB9
 2205 0038 00000000 		.4byte	.LFB4
 2206 003c 54000000 		.4byte	.LFE4-.LFB4
 2207 0040 00000000 		.4byte	.LFB3
 2208 0044 9C000000 		.4byte	.LFE3-.LFB3
 2209 0048 00000000 		.4byte	.LFB2
 2210 004c D8000000 		.4byte	.LFE2-.LFB2
 2211 0050 00000000 		.4byte	.LFB10
 2212 0054 24000000 		.4byte	.LFE10-.LFB10
 2213 0058 00000000 		.4byte	.LFB11
ARM GAS  /cygdrive/c/Users/Chris/AppData/Local/Temp/cckFMeUj.s 			page 45


 2214 005c 48000000 		.4byte	.LFE11-.LFB11
 2215 0060 00000000 		.4byte	.LFB12
 2216 0064 18000000 		.4byte	.LFE12-.LFB12
 2217 0068 00000000 		.4byte	.LFB13
 2218 006c 4C000000 		.4byte	.LFE13-.LFB13
 2219 0070 00000000 		.4byte	0x0
 2220 0074 00000000 		.4byte	0x0
 2221              		.section	.debug_ranges,"",%progbits
 2222              	.Ldebug_ranges0:
 2223 0000 00000000 		.4byte	.Ltext0
 2224 0004 00000000 		.4byte	.Letext0
 2225 0008 00000000 		.4byte	.LFB7
 2226 000c 18000000 		.4byte	.LFE7
 2227 0010 00000000 		.4byte	.LFB6
 2228 0014 2C000000 		.4byte	.LFE6
 2229 0018 00000000 		.4byte	.LFB5
 2230 001c 2C000000 		.4byte	.LFE5
 2231 0020 00000000 		.4byte	.LFB8
 2232 0024 0C000000 		.4byte	.LFE8
 2233 0028 00000000 		.4byte	.LFB9
 2234 002c 0C000000 		.4byte	.LFE9
 2235 0030 00000000 		.4byte	.LFB4
 2236 0034 54000000 		.4byte	.LFE4
 2237 0038 00000000 		.4byte	.LFB3
 2238 003c 9C000000 		.4byte	.LFE3
 2239 0040 00000000 		.4byte	.LFB2
 2240 0044 D8000000 		.4byte	.LFE2
 2241 0048 00000000 		.4byte	.LFB10
 2242 004c 24000000 		.4byte	.LFE10
 2243 0050 00000000 		.4byte	.LFB11
 2244 0054 48000000 		.4byte	.LFE11
 2245 0058 00000000 		.4byte	.LFB12
 2246 005c 18000000 		.4byte	.LFE12
 2247 0060 00000000 		.4byte	.LFB13
 2248 0064 4C000000 		.4byte	.LFE13
 2249 0068 00000000 		.4byte	0x0
 2250 006c 00000000 		.4byte	0x0
 2251              		.section	.debug_str,"MS",%progbits,1
 2252              	.LASF13:
 2253 0000 52454144 		.ascii	"READ_BOOT_VER\000"
 2253      5F424F4F 
 2253      545F5645 
 2253      5200
 2254              	.LASF43:
 2255 000e 63686563 		.ascii	"check_isp_entry_pin\000"
 2255      6B5F6973 
 2255      705F656E 
 2255      7472795F 
 2255      70696E00 
 2256              	.LASF49:
 2257 0022 73656374 		.ascii	"sector_end_map\000"
 2257      6F725F65 
 2257      6E645F6D 
 2257      617000
 2258              	.LASF26:
 2259 0031 5F5A3132 		.ascii	"_Z12erase_sectorjjj\000"
 2259      65726173 
ARM GAS  /cygdrive/c/Users/Chris/AppData/Local/Temp/cckFMeUj.s 			page 46


 2259      655F7365 
 2259      63746F72 
 2259      6A6A6A00 
 2260              	.LASF29:
 2261 0045 696E7465 		.ascii	"interrupts\000"
 2261      72727570 
 2261      747300
 2262              	.LASF27:
 2263 0050 656E6162 		.ascii	"enable_interrupts\000"
 2263      6C655F69 
 2263      6E746572 
 2263      72757074 
 2263      7300
 2264              	.LASF36:
 2265 0062 636F756E 		.ascii	"count\000"
 2265      7400
 2266              	.LASF17:
 2267 0068 72657375 		.ascii	"result_tab\000"
 2267      6C745F74 
 2267      616200
 2268              	.LASF59:
 2269 0073 424F4F4C 		.ascii	"BOOL\000"
 2269      00
 2270              	.LASF40:
 2271 0078 626F6F6C 		.ascii	"bool\000"
 2271      00
 2272              	.LASF33:
 2273 007d 5F5A3130 		.ascii	"_Z10write_datajjPjj\000"
 2273      77726974 
 2273      655F6461 
 2273      74616A6A 
 2273      506A6A00 
 2274              	.LASF47:
 2275 0091 5F5A3136 		.ascii	"_Z16erase_user_flashv\000"
 2275      65726173 
 2275      655F7573 
 2275      65725F66 
 2275      6C617368 
 2276              	.LASF19:
 2277 00a7 70726570 		.ascii	"prepare_sector\000"
 2277      6172655F 
 2277      73656374 
 2277      6F7200
 2278              	.LASF16:
 2279 00b6 70617261 		.ascii	"param_tab\000"
 2279      6D5F7461 
 2279      6200
 2280              	.LASF56:
 2281 00c0 474E5520 		.ascii	"GNU C++ 4.3.2\000"
 2281      432B2B20 
 2281      342E332E 
 2281      3200
 2282              	.LASF21:
 2283 00ce 5F5A3134 		.ascii	"_Z14prepare_sectorjjj\000"
 2283      70726570 
 2283      6172655F 
 2283      73656374 
ARM GAS  /cygdrive/c/Users/Chris/AppData/Local/Temp/cckFMeUj.s 			page 47


 2283      6F726A6A 
 2284              	.LASF9:
 2285 00e4 434F5059 		.ascii	"COPY_RAM_TO_FLASH\000"
 2285      5F52414D 
 2285      5F544F5F 
 2285      464C4153 
 2285      4800
 2286              	.LASF22:
 2287 00f6 73746172 		.ascii	"start_sector\000"
 2287      745F7365 
 2287      63746F72 
 2287      00
 2288              	.LASF18:
 2289 0103 6961705F 		.ascii	"iap_entry\000"
 2289      656E7472 
 2289      7900
 2290              	.LASF8:
 2291 010d 50524550 		.ascii	"PREPARE_SECTOR_FOR_WRITE\000"
 2291      4152455F 
 2291      53454354 
 2291      4F525F46 
 2291      4F525F57 
 2292              	.LASF0:
 2293 0126 756E7369 		.ascii	"unsigned char\000"
 2293      676E6564 
 2293      20636861 
 2293      7200
 2294              	.LASF23:
 2295 0134 656E645F 		.ascii	"end_sector\000"
 2295      73656374 
 2295      6F7200
 2296              	.LASF44:
 2297 013f 5F5A3137 		.ascii	"_Z17execute_user_codev\000"
 2297      65786563 
 2297      7574655F 
 2297      75736572 
 2297      5F636F64 
 2298              	.LASF50:
 2299 0156 70617261 		.ascii	"param_table\000"
 2299      6D5F7461 
 2299      626C6500 
 2300              	.LASF57:
 2301 0162 73626C5F 		.ascii	"sbl_iap.cpp\000"
 2301      6961702E 
 2301      63707000 
 2302              	.LASF1:
 2303 016e 73686F72 		.ascii	"short unsigned int\000"
 2303      7420756E 
 2303      7369676E 
 2303      65642069 
 2303      6E7400
 2304              	.LASF20:
 2305 0181 5F5A3969 		.ascii	"_Z9iap_entryPjS_\000"
 2305      61705F65 
 2305      6E747279 
 2305      506A535F 
 2305      00
ARM GAS  /cygdrive/c/Users/Chris/AppData/Local/Temp/cckFMeUj.s 			page 48


 2306              	.LASF63:
 2307 0192 75736572 		.ascii	"user_code_present\000"
 2307      5F636F64 
 2307      655F7072 
 2307      6573656E 
 2307      7400
 2308              	.LASF37:
 2309 01a4 66696E64 		.ascii	"find_erase_prepare_sector\000"
 2309      5F657261 
 2309      73655F70 
 2309      72657061 
 2309      72655F73 
 2310              	.LASF32:
 2311 01be 77726974 		.ascii	"write_data\000"
 2311      655F6461 
 2311      746100
 2312              	.LASF34:
 2313 01c9 666C6173 		.ascii	"flash_address\000"
 2313      685F6164 
 2313      64726573 
 2313      7300
 2314              	.LASF51:
 2315 01d7 72657375 		.ascii	"result_table\000"
 2315      6C745F74 
 2315      61626C65 
 2315      00
 2316              	.LASF61:
 2317 01e4 77726974 		.ascii	"write_flash\000"
 2317      655F666C 
 2317      61736800 
 2318              	.LASF2:
 2319 01f0 6C6F6E67 		.ascii	"long unsigned int\000"
 2319      20756E73 
 2319      69676E65 
 2319      6420696E 
 2319      7400
 2320              	.LASF48:
 2321 0202 73656374 		.ascii	"sector_start_map\000"
 2321      6F725F73 
 2321      74617274 
 2321      5F6D6170 
 2321      00
 2322              	.LASF46:
 2323 0213 65726173 		.ascii	"erase_user_flash\000"
 2323      655F7573 
 2323      65725F66 
 2323      6C617368 
 2323      00
 2324              	.LASF64:
 2325 0224 5F5A3137 		.ascii	"_Z17user_code_presentv\000"
 2325      75736572 
 2325      5F636F64 
 2325      655F7072 
 2325      6573656E 
 2326              	.LASF54:
 2327 023b 62797465 		.ascii	"byte_ctr\000"
 2327      5F637472 
ARM GAS  /cygdrive/c/Users/Chris/AppData/Local/Temp/cckFMeUj.s 			page 49


 2327      00
 2328              	.LASF14:
 2329 0244 434F4D50 		.ascii	"COMPARE\000"
 2329      41524500 
 2330              	.LASF3:
 2331 024c 756E7369 		.ascii	"unsigned int\000"
 2331      676E6564 
 2331      20696E74 
 2331      00
 2332              	.LASF15:
 2333 0259 5245494E 		.ascii	"REINVOKE_ISP\000"
 2333      564F4B45 
 2333      5F495350 
 2333      00
 2334              	.LASF7:
 2335 0266 6C6F6E67 		.ascii	"long long unsigned int\000"
 2335      206C6F6E 
 2335      6720756E 
 2335      7369676E 
 2335      65642069 
 2336              	.LASF24:
 2337 027d 63636C6B 		.ascii	"cclk\000"
 2337      00
 2338              	.LASF39:
 2339 0282 65726173 		.ascii	"eraseSectorAllowed\000"
 2339      65536563 
 2339      746F7241 
 2339      6C6C6F77 
 2339      656400
 2340              	.LASF45:
 2341 0295 5F5A3139 		.ascii	"_Z19check_isp_entry_pinv\000"
 2341      63686563 
 2341      6B5F6973 
 2341      705F656E 
 2341      7472795F 
 2342              	.LASF11:
 2343 02ae 424C414E 		.ascii	"BLANK_CHECK_SECTOR\000"
 2343      4B5F4348 
 2343      45434B5F 
 2343      53454354 
 2343      4F5200
 2344              	.LASF6:
 2345 02c1 6C6F6E67 		.ascii	"long long int\000"
 2345      206C6F6E 
 2345      6720696E 
 2345      7400
 2346              	.LASF10:
 2347 02cf 45524153 		.ascii	"ERASE_SECTOR\000"
 2347      455F5345 
 2347      43544F52 
 2347      00
 2348              	.LASF52:
 2349 02dc 63686172 		.ascii	"char\000"
 2349      00
 2350              	.LASF53:
 2351 02e1 666C6173 		.ascii	"flash_buf\000"
 2351      685F6275 
ARM GAS  /cygdrive/c/Users/Chris/AppData/Local/Temp/cckFMeUj.s 			page 50


 2351      6600
 2352              	.LASF30:
 2353 02eb 64697361 		.ascii	"disable_interrupts\000"
 2353      626C655F 
 2353      696E7465 
 2353      72727570 
 2353      747300
 2354              	.LASF12:
 2355 02fe 52454144 		.ascii	"READ_PART_ID\000"
 2355      5F504152 
 2355      545F4944 
 2355      00
 2356              	.LASF28:
 2357 030b 5F5A3137 		.ascii	"_Z17enable_interruptsj\000"
 2357      656E6162 
 2357      6C655F69 
 2357      6E746572 
 2357      72757074 
 2358              	.LASF5:
 2359 0322 73686F72 		.ascii	"short int\000"
 2359      7420696E 
 2359      7400
 2360              	.LASF25:
 2361 032c 65726173 		.ascii	"erase_sector\000"
 2361      655F7365 
 2361      63746F72 
 2361      00
 2362              	.LASF38:
 2363 0339 5F5A3235 		.ascii	"_Z25find_erase_prepare_sectorjjb\000"
 2363      66696E64 
 2363      5F657261 
 2363      73655F70 
 2363      72657061 
 2364              	.LASF58:
 2365 035a 2F637967 		.ascii	"/cygdrive/c/Users/Chris/Desktop/sfboot-test/sfboot\000"
 2365      64726976 
 2365      652F632F 
 2365      55736572 
 2365      732F4368 
 2366              	.LASF41:
 2367 038d 6E6F5F6F 		.ascii	"no_of_bytes\000"
 2367      665F6279 
 2367      74657300 
 2368              	.LASF31:
 2369 0399 5F5A3138 		.ascii	"_Z18disable_interruptsj\000"
 2369      64697361 
 2369      626C655F 
 2369      696E7465 
 2369      72727570 
 2370              	.LASF60:
 2371 03b1 3C616E6F 		.ascii	"<anonymous enum>\000"
 2371      6E796D6F 
 2371      75732065 
 2371      6E756D3E 
 2371      00
 2372              	.LASF4:
 2373 03c2 7369676E 		.ascii	"signed char\000"
ARM GAS  /cygdrive/c/Users/Chris/AppData/Local/Temp/cckFMeUj.s 			page 51


 2373      65642063 
 2373      68617200 
 2374              	.LASF62:
 2375 03ce 5F5A3131 		.ascii	"_Z11write_flashPjPhjb\000"
 2375      77726974 
 2375      655F666C 
 2375      61736850 
 2375      6A50686A 
 2376              	.LASF42:
 2377 03e4 65786563 		.ascii	"execute_user_code\000"
 2377      7574655F 
 2377      75736572 
 2377      5F636F64 
 2377      6500
 2378              	.LASF55:
 2379 03f6 75736572 		.ascii	"user_code_entry\000"
 2379      5F636F64 
 2379      655F656E 
 2379      74727900 
 2380              	.LASF35:
 2381 0406 666C6173 		.ascii	"flash_data_buf\000"
 2381      685F6461 
 2381      74615F62 
 2381      756600
 2382              		.ident	"GCC: (AHAX Arm-Linux 2008q3-66) 4.3.2"
ARM GAS  /cygdrive/c/Users/Chris/AppData/Local/Temp/cckFMeUj.s 			page 52


DEFINED SYMBOLS
                            *ABS*:00000000 sbl_iap.cpp
/cygdrive/c/Users/Chris/AppData/Local/Temp/cckFMeUj.s:24     .text._Z9iap_entryPjS_:00000000 _Z9iap_entryPjS_
/cygdrive/c/Users/Chris/AppData/Local/Temp/cckFMeUj.s:32     .text._Z9iap_entryPjS_:00000000 $a
/cygdrive/c/Users/Chris/AppData/Local/Temp/cckFMeUj.s:50     .text._Z14prepare_sectorjjj:00000000 _Z14prepare_sectorjjj
/cygdrive/c/Users/Chris/AppData/Local/Temp/cckFMeUj.s:59     .text._Z14prepare_sectorjjj:00000000 $a
/cygdrive/c/Users/Chris/AppData/Local/Temp/cckFMeUj.s:83     .text._Z14prepare_sectorjjj:00000024 $d
/cygdrive/c/Users/Chris/AppData/Local/Temp/cckFMeUj.s:91     .text._Z12erase_sectorjjj:00000000 _Z12erase_sectorjjj
/cygdrive/c/Users/Chris/AppData/Local/Temp/cckFMeUj.s:100    .text._Z12erase_sectorjjj:00000000 $a
/cygdrive/c/Users/Chris/AppData/Local/Temp/cckFMeUj.s:124    .text._Z12erase_sectorjjj:00000024 $d
/cygdrive/c/Users/Chris/AppData/Local/Temp/cckFMeUj.s:132    .text._Z17enable_interruptsj:00000000 _Z17enable_interruptsj
/cygdrive/c/Users/Chris/AppData/Local/Temp/cckFMeUj.s:141    .text._Z17enable_interruptsj:00000000 $a
/cygdrive/c/Users/Chris/AppData/Local/Temp/cckFMeUj.s:151    .text._Z18disable_interruptsj:00000000 _Z18disable_interruptsj
/cygdrive/c/Users/Chris/AppData/Local/Temp/cckFMeUj.s:160    .text._Z18disable_interruptsj:00000000 $a
/cygdrive/c/Users/Chris/AppData/Local/Temp/cckFMeUj.s:170    .text._Z10write_datajjPjj:00000000 _Z10write_datajjPjj
/cygdrive/c/Users/Chris/AppData/Local/Temp/cckFMeUj.s:179    .text._Z10write_datajjPjj:00000000 $a
/cygdrive/c/Users/Chris/AppData/Local/Temp/cckFMeUj.s:227    .text._Z10write_datajjPjj:0000004c $d
/cygdrive/c/Users/Chris/AppData/Local/Temp/cckFMeUj.s:236    .text._Z25find_erase_prepare_sectorjjb:00000000 _Z25find_erase_prepare_sectorjjb
/cygdrive/c/Users/Chris/AppData/Local/Temp/cckFMeUj.s:245    .text._Z25find_erase_prepare_sectorjjb:00000000 $a
/cygdrive/c/Users/Chris/AppData/Local/Temp/cckFMeUj.s:320    .text._Z25find_erase_prepare_sectorjjb:00000094 $d
/cygdrive/c/Users/Chris/AppData/Local/Temp/cckFMeUj.s:329    .text._Z11write_flashPjPhjb:00000000 _Z11write_flashPjPhjb
/cygdrive/c/Users/Chris/AppData/Local/Temp/cckFMeUj.s:336    .text._Z11write_flashPjPhjb:00000000 $a
/cygdrive/c/Users/Chris/AppData/Local/Temp/cckFMeUj.s:433    .text._Z11write_flashPjPhjb:000000c4 $d
/cygdrive/c/Users/Chris/AppData/Local/Temp/cckFMeUj.s:444    .text._Z17execute_user_codev:00000000 _Z17execute_user_codev
/cygdrive/c/Users/Chris/AppData/Local/Temp/cckFMeUj.s:451    .text._Z17execute_user_codev:00000000 $a
/cygdrive/c/Users/Chris/AppData/Local/Temp/cckFMeUj.s:467    .text._Z17execute_user_codev:00000020 $d
/cygdrive/c/Users/Chris/AppData/Local/Temp/cckFMeUj.s:474    .text._Z17user_code_presentv:00000000 _Z17user_code_presentv
/cygdrive/c/Users/Chris/AppData/Local/Temp/cckFMeUj.s:481    .text._Z17user_code_presentv:00000000 $a
/cygdrive/c/Users/Chris/AppData/Local/Temp/cckFMeUj.s:511    .text._Z17user_code_presentv:00000040 $d
/cygdrive/c/Users/Chris/AppData/Local/Temp/cckFMeUj.s:519    .text._Z19check_isp_entry_pinv:00000000 _Z19check_isp_entry_pinv
/cygdrive/c/Users/Chris/AppData/Local/Temp/cckFMeUj.s:527    .text._Z19check_isp_entry_pinv:00000000 $a
/cygdrive/c/Users/Chris/AppData/Local/Temp/cckFMeUj.s:537    .text._Z19check_isp_entry_pinv:00000014 $d
/cygdrive/c/Users/Chris/AppData/Local/Temp/cckFMeUj.s:544    .text._Z16erase_user_flashv:00000000 _Z16erase_user_flashv
/cygdrive/c/Users/Chris/AppData/Local/Temp/cckFMeUj.s:550    .text._Z16erase_user_flashv:00000000 $a
/cygdrive/c/Users/Chris/AppData/Local/Temp/cckFMeUj.s:577    .text._Z16erase_user_flashv:00000044 $d
/cygdrive/c/Users/Chris/AppData/Local/Temp/cckFMeUj.s:643    .ARM.__at_0x1FC:00000000 crp
/cygdrive/c/Users/Chris/AppData/Local/Temp/cckFMeUj.s:688    .rodata.sector_start_map:00000000 sector_start_map
/cygdrive/c/Users/Chris/AppData/Local/Temp/cckFMeUj.s:650    .rodata.sector_end_map:00000000 sector_end_map
/cygdrive/c/Users/Chris/AppData/Local/Temp/cckFMeUj.s:624    .bss.param_table:00000000 param_table
/cygdrive/c/Users/Chris/AppData/Local/Temp/cckFMeUj.s:617    .bss.result_table:00000000 result_table
/cygdrive/c/Users/Chris/AppData/Local/Temp/cckFMeUj.s:610    .data.cclk:00000000 cclk
/cygdrive/c/Users/Chris/AppData/Local/Temp/cckFMeUj.s:630    .bss.flash_buf:00000000 flash_buf
/cygdrive/c/Users/Chris/AppData/Local/Temp/cckFMeUj.s:603    .bss.flash_address:00000000 flash_address
/cygdrive/c/Users/Chris/AppData/Local/Temp/cckFMeUj.s:637    .bss.byte_ctr:00000000 byte_ctr
/cygdrive/c/Users/Chris/AppData/Local/Temp/cckFMeUj.s:596    .bss.user_code_entry:00000000 user_code_entry
/cygdrive/c/Users/Chris/AppData/Local/Temp/cckFMeUj.s:611    .data.cclk:00000000 $d
/cygdrive/c/Users/Chris/AppData/Local/Temp/cckFMeUj.s:644    .ARM.__at_0x1FC:00000000 $d
/cygdrive/c/Users/Chris/AppData/Local/Temp/cckFMeUj.s:651    .rodata.sector_end_map:00000000 $d
/cygdrive/c/Users/Chris/AppData/Local/Temp/cckFMeUj.s:689    .rodata.sector_start_map:00000000 $d
/cygdrive/c/Users/Chris/AppData/Local/Temp/cckFMeUj.s:921    .debug_loc:00000000 $d

NO UNDEFINED SYMBOLS
