ARM GAS  /cygdrive/c/Users/Chris/AppData/Local/Temp/ccTUaxdK.s 			page 1


   1              		.cpu arm7tdmi
   2              		.fpu softvfp
   3              		.eabi_attribute 20, 1
   4              		.eabi_attribute 21, 1
   5              		.eabi_attribute 23, 3
   6              		.eabi_attribute 24, 1
   7              		.eabi_attribute 25, 1
   8              		.eabi_attribute 26, 1
   9              		.eabi_attribute 30, 4
  10              		.eabi_attribute 18, 4
  11              		.file	"Serial.cpp"
  18 0000 27020000 		.text
  18      0200A800 
  18      00000201 
  18      FB0E0D00 
  18      01010101 
  19              	.Ltext0:
  20              		.section	.text._Z9SerialISRh,"ax",%progbits
  21              		.align	2
  22              		.global	_Z9SerialISRh
  23              		.type	_Z9SerialISRh, %function
  24              	_Z9SerialISRh:
  25              	.LFB2:
  26              		.file 1 "Serial.cpp"
   1:Serial.cpp    **** /******************************************************************************/
   2:Serial.cpp    **** /* SERIAL.C: Low Level Serial Routines                                        */
   3:Serial.cpp    **** /******************************************************************************/
   4:Serial.cpp    **** /* This file is part of the uVision/ARM development tools.                    */
   5:Serial.cpp    **** /* Copyright (c) 2005-2006 Keil Software. All rights reserved.                */
   6:Serial.cpp    **** /* This software may only be used under the terms of a valid, current,        */
   7:Serial.cpp    **** /* end user licence from KEIL for a compatible version of KEIL software       */
   8:Serial.cpp    **** /* development tools. Nothing else gives you the right to use this software.  */
   9:Serial.cpp    **** /******************************************************************************/
  10:Serial.cpp    **** 
  11:Serial.cpp    **** #include <stdlib.h>
  12:Serial.cpp    **** #include <stdint.h>
  13:Serial.cpp    **** #include <LPC23xx.H>                     /* LPC23xx definitions               */
  14:Serial.cpp    **** #include "Serial.h"
  15:Serial.cpp    **** #include "types.h"
  16:Serial.cpp    **** #include "armVIC.h"
  17:Serial.cpp    **** #include "irq.h"
  18:Serial.cpp    **** #include "sys_config.h"
  19:Serial.cpp    **** 
  20:Serial.cpp    **** //**************************************
  21:Serial.cpp    **** //* TYPES
  22:Serial.cpp    **** //**************************************
  23:Serial.cpp    **** 
  24:Serial.cpp    **** /* The names for our UARTs */
  25:Serial.cpp    **** typedef enum {
  26:Serial.cpp    ****    UART0,
  27:Serial.cpp    ****    UART1,
ARM GAS  /cygdrive/c/Users/Chris/AppData/Local/Temp/ccTUaxdK.s 			page 2


  28:Serial.cpp    ****    UART2,
  29:Serial.cpp    ****    UART3,
  30:Serial.cpp    ****    NUM_UARTS
  31:Serial.cpp    **** } UART_NAME_T;
  32:Serial.cpp    **** 
  33:Serial.cpp    **** /* UART Register Description */
  34:Serial.cpp    **** typedef struct {
  35:Serial.cpp    **** 
  36:Serial.cpp    ****    union {
  37:Serial.cpp    ****       vuint32_t RBR; 
  38:Serial.cpp    ****       vuint32_t DLL;
  39:Serial.cpp    ****       vuint32_t THR;
  40:Serial.cpp    ****    } R1;
  41:Serial.cpp    **** 
  42:Serial.cpp    ****    union {
  43:Serial.cpp    ****       vuint32_t DLM;
  44:Serial.cpp    ****       vuint32_t R;
  45:Serial.cpp    ****       struct {
  46:Serial.cpp    ****          vuint32_t RBR    :1;
  47:Serial.cpp    ****          vuint32_t THRE   :1;
  48:Serial.cpp    ****          vuint32_t RLS    :1;
  49:Serial.cpp    ****          vuint32_t Spare2 :29;
  50:Serial.cpp    ****       }IER;
  51:Serial.cpp    ****    } R2;
  52:Serial.cpp    **** 
  53:Serial.cpp    ****    union {
  54:Serial.cpp    ****       vuint32_t IIR;
  55:Serial.cpp    ****       vuint32_t FCR;
  56:Serial.cpp    ****    } R3;
  57:Serial.cpp    **** 
  58:Serial.cpp    ****    vuint32_t LCR;
  59:Serial.cpp    ****    vuint32_t MCR;
  60:Serial.cpp    ****    vuint32_t LSR;
  61:Serial.cpp    ****    vuint32_t MSR;
  62:Serial.cpp    ****    vuint32_t SCR;
  63:Serial.cpp    ****    vuint64_t ACR;
  64:Serial.cpp    ****    vuint16_t FDR;
  65:Serial.cpp    **** } UART_REG_T;
  66:Serial.cpp    **** 
  67:Serial.cpp    **** /* UART Pins Description */
  68:Serial.cpp    **** typedef struct {
  69:Serial.cpp    ****    /* TX */
  70:Serial.cpp    ****       vuint32_t *TxSelReg;
  71:Serial.cpp    ****       uint32_t   TxSelValue;
  72:Serial.cpp    ****       uint32_t   TxMask;
  73:Serial.cpp    ****    /* RX */
  74:Serial.cpp    ****       vuint32_t *RxSelReg;
  75:Serial.cpp    ****       uint32_t   RxSelValue;
  76:Serial.cpp    ****       uint32_t   RxMask;
  77:Serial.cpp    **** } UART_PIN_T;
  78:Serial.cpp    **** 
  79:Serial.cpp    **** 
  80:Serial.cpp    **** /* UART interrupt Description */
  81:Serial.cpp    **** typedef struct {
  82:Serial.cpp    ****    uint32_t *  IntFunc;
  83:Serial.cpp    ****    uint8_t     IntNumber;
  84:Serial.cpp    ****    uint8_t     Priority;
ARM GAS  /cygdrive/c/Users/Chris/AppData/Local/Temp/ccTUaxdK.s 			page 3


  85:Serial.cpp    **** } INT_DESC_T;
  86:Serial.cpp    **** 
  87:Serial.cpp    **** /* High-level UART structure */
  88:Serial.cpp    **** typedef struct {
  89:Serial.cpp    **** 	vuint8_t RxBuffer[UART_BUFFSIZE];
  90:Serial.cpp    **** 	vuint32_t RxHead;
  91:Serial.cpp    **** 	vuint32_t RxTail;
  92:Serial.cpp    **** 	vuint32_t Status;
  93:Serial.cpp    **** 	vuint16_t TxEmpy;
  94:Serial.cpp    **** } vUART_T;
  95:Serial.cpp    **** 
  96:Serial.cpp    **** //**************************************
  97:Serial.cpp    **** //* LOCAL FUNCTION PROTOTYPES
  98:Serial.cpp    **** //**************************************
  99:Serial.cpp    **** 
 100:Serial.cpp    **** void SerialISR(void);
 101:Serial.cpp    **** void Serial0ISR(void) __attribute__((naked));
 102:Serial.cpp    **** void Serial1ISR(void) __attribute__((naked));
 103:Serial.cpp    **** void Serial2ISR(void) __attribute__((naked));
 104:Serial.cpp    **** void Serial3ISR(void) __attribute__((naked));
 105:Serial.cpp    **** 
 106:Serial.cpp    **** 
 107:Serial.cpp    **** //**************************************
 108:Serial.cpp    **** //* LOCAL VARIABLES
 109:Serial.cpp    **** //**************************************
 110:Serial.cpp    **** 
 111:Serial.cpp    **** /* The quad UART High-level data */
 112:Serial.cpp    **** volatile vUART_T uartData[NUM_UARTS];
 113:Serial.cpp    **** 
 114:Serial.cpp    **** 
 115:Serial.cpp    **** /* The quad UART Interrupts */
 116:Serial.cpp    **** volatile INT_DESC_T uartInts[NUM_UARTS] = {
 117:Serial.cpp    ****                                  {
 118:Serial.cpp    ****                                    /* IntFunc   */ (uint32_t *)Serial0ISR,
 119:Serial.cpp    ****                                    /* IntNumber */ UART0_INT,
 120:Serial.cpp    ****                                    /* Priority  */ HIGHEST_PRIORITY,
 121:Serial.cpp    ****                                  },
 122:Serial.cpp    ****                                  {
 123:Serial.cpp    ****                                    /* IntFunc   */ (uint32_t *)Serial1ISR,
 124:Serial.cpp    ****                                    /* IntNumber */ UART1_INT,
 125:Serial.cpp    ****                                    /* Priority  */ HIGHEST_PRIORITY,
 126:Serial.cpp    ****                                  },
 127:Serial.cpp    ****                                  {
 128:Serial.cpp    ****                                    /* IntFunc   */ (uint32_t *)Serial2ISR,
 129:Serial.cpp    ****                                    /* IntNumber */ UART2_INT,
 130:Serial.cpp    ****                                    /* Priority  */ HIGHEST_PRIORITY,
 131:Serial.cpp    ****                                  },
 132:Serial.cpp    ****                                  {
 133:Serial.cpp    ****                                    /* IntFunc   */ (uint32_t *)Serial3ISR,
 134:Serial.cpp    ****                                    /* IntNumber */ UART3_INT,
 135:Serial.cpp    ****                                    /* Priority  */ HIGHEST_PRIORITY,
 136:Serial.cpp    ****                                  },
 137:Serial.cpp    **** 
 138:Serial.cpp    **** };
 139:Serial.cpp    **** 
 140:Serial.cpp    **** 
 141:Serial.cpp    **** /* The quad UART pins */
ARM GAS  /cygdrive/c/Users/Chris/AppData/Local/Temp/ccTUaxdK.s 			page 4


 142:Serial.cpp    **** volatile UART_PIN_T uartPins[NUM_UARTS] = {
 143:Serial.cpp    ****                           {          
 144:Serial.cpp    ****                                       /* TxSelReg    */ (vuint32_t *)PINSEL_BASE_ADDR,
 145:Serial.cpp    ****                                       /* TxSelValue  */ (1UL<<4),
 146:Serial.cpp    ****                                       /* TxMask      */ (3UL<<4),
 147:Serial.cpp    ****                                       /* RxSelReg    */ (vuint32_t *)PINSEL_BASE_ADDR,
 148:Serial.cpp    ****                                       /* RxSelValue  */ (1UL<<6),
 149:Serial.cpp    ****                                       /* RxMask      */ (3UL<<6), 
 150:Serial.cpp    ****                           },
 151:Serial.cpp    ****                           {          
 152:Serial.cpp    ****                                       /* TxSelReg    */ (vuint32_t *)PINSEL_BASE_ADDR,
 153:Serial.cpp    ****                                       /* TxSelValue  */ (1UL<<30),
 154:Serial.cpp    ****                                       /* TxMask      */ (3UL<<30),
 155:Serial.cpp    ****                                       /* RxSelReg    */ (vuint32_t *)(PINSEL_BASE_ADDR + 0x04),
 156:Serial.cpp    ****                                       /* RxSelValue  */ (1UL<<0),
 157:Serial.cpp    ****                                       /* RxMask      */ (3UL<<0), 
 158:Serial.cpp    ****                           },
 159:Serial.cpp    ****                           {          
 160:Serial.cpp    ****                                       /* TxSelReg    */ (vuint32_t *)PINSEL_BASE_ADDR,
 161:Serial.cpp    ****                                       /* TxSelValue  */ (1UL<<20),
 162:Serial.cpp    ****                                       /* TxMask      */ (3UL<<20),
 163:Serial.cpp    ****                                       /* RxSelReg    */ (vuint32_t *)PINSEL_BASE_ADDR,
 164:Serial.cpp    ****                                       /* RxSelValue  */ (1UL<<22),
 165:Serial.cpp    ****                                       /* RxMask      */ (3UL<<22), 
 166:Serial.cpp    ****                           },
 167:Serial.cpp    ****                           {          
 168:Serial.cpp    ****                                       /* TxSelReg    */ (vuint32_t *)PINSEL_BASE_ADDR,
 169:Serial.cpp    ****                                       /* TxSelValue  */ (2UL<<0),
 170:Serial.cpp    ****                                       /* TxMask      */ (3UL<<0),
 171:Serial.cpp    ****                                       /* RxSelReg    */ (vuint32_t *)PINSEL_BASE_ADDR,
 172:Serial.cpp    ****                                       /* RxSelValue  */ (2UL<<2),
 173:Serial.cpp    ****                                       /* RxMask      */ (2UL<<2), 
 174:Serial.cpp    ****                           }
 175:Serial.cpp    **** };
 176:Serial.cpp    **** 
 177:Serial.cpp    **** /* The quad UART registers */
 178:Serial.cpp    **** volatile UART_REG_T *uartReg[NUM_UARTS] = {
 179:Serial.cpp    ****                                              (volatile UART_REG_T*)UART0_BASE_ADDR,
 180:Serial.cpp    ****                                              (volatile UART_REG_T*)UART1_BASE_ADDR,
 181:Serial.cpp    ****                                              (volatile UART_REG_T*)UART2_BASE_ADDR,
 182:Serial.cpp    ****                                              (volatile UART_REG_T*)UART3_BASE_ADDR,
 183:Serial.cpp    ****                                            };
 184:Serial.cpp    **** 
 185:Serial.cpp    **** //**************************************
 186:Serial.cpp    **** //* LOCAL FUNCTIONS
 187:Serial.cpp    **** //**************************************
 188:Serial.cpp    **** 
 189:Serial.cpp    **** //***************************************
 190:Serial.cpp    **** //* The Serial Interrupt Service routine
 191:Serial.cpp    **** //* used for all 4 uarts.                     
 192:Serial.cpp    **** void SerialISR(uint8_t portNum) {
  27              		.loc 1 192 0
  28              		@ Function supports interworking.
  29              		@ args = 0, pretend = 0, frame = 8
  30              		@ frame_needed = 0, uses_anonymous_args = 0
  31              		@ link register save eliminated.
  32              	.LVL0:
ARM GAS  /cygdrive/c/Users/Chris/AppData/Local/Temp/ccTUaxdK.s 			page 5


  33 0000 17002DE9 		stmfd	sp!, {r0, r1, r2, r4}
  34              	.LCFI0:
  35              	.LVL1:
  36              	.LBB2:
 193:Serial.cpp    ****    BYTE IIRValue;
 194:Serial.cpp    ****    volatile UART_REG_T* uart = uartReg[portNum];
  37              		.loc 1 194 0
  38 0004 C4309FE5 		ldr	r3, .L7
  39 0008 00C193E7 		ldr	ip, [r3, r0, asl #2]
  40              	.LVL2:
 195:Serial.cpp    **** 
 196:Serial.cpp    ****    IIRValue = uart->R3.IIR;
  41              		.loc 1 196 0
  42 000c 08309CE5 		ldr	r3, [ip, #8]
 197:Serial.cpp    ****    IIRValue >>= 1;        /* skip pending bit in IIR */
  43              		.loc 1 197 0
  44 0010 A330A0E1 		mov	r3, r3, lsr #1
 198:Serial.cpp    ****    IIRValue &= 0x07;      /* check bit 1~3, interrupt identification */
  45              		.loc 1 198 0
  46 0014 072003E2 		and	r2, r3, #7
  47              	.LVL3:
 199:Serial.cpp    **** 
 200:Serial.cpp    ****    /* Receive Data Available */
 201:Serial.cpp    ****    if ( IIRValue == IIR_RDA ) {
  48              		.loc 1 201 0
  49 0018 020052E3 		cmp	r2, #2
  50 001c 1300001A 		bne	.L2
  51              	.LBB3:
 202:Serial.cpp    **** 
 203:Serial.cpp    ****       vuint32_t index;
 204:Serial.cpp    ****       vuint32_t *head;
 205:Serial.cpp    **** 
 206:Serial.cpp    ****       head = &uartData[portNum].RxHead;
 207:Serial.cpp    ****       index = (*head + 1) % UART_BUFFSIZE;
  52              		.loc 1 207 0
  53 0020 5030A0E3 		mov	r3, #80
  54 0024 930004E0 		mul	r4, r3, r0
  55 0028 A4009FE5 		ldr	r0, .L7+4
  56              	.LVL4:
  57 002c 041080E0 		add	r1, r0, r4
  58 0030 403091E5 		ldr	r3, [r1, #64]
  59 0034 013083E2 		add	r3, r3, #1
  60 0038 3F3003E2 		and	r3, r3, #63
  61              	.LVL5:
  62 003c 04308DE5 		str	r3, [sp, #4]
 208:Serial.cpp    **** 
 209:Serial.cpp    ****       if (index != uartData[portNum].RxTail) {
  63              		.loc 1 209 0
  64 0040 04209DE5 		ldr	r2, [sp, #4]
  65              	.LVL6:
  66 0044 443091E5 		ldr	r3, [r1, #68]
  67              	.LVL7:
  68 0048 030052E1 		cmp	r2, r3
  69 004c 1D00000A 		beq	.L6
 210:Serial.cpp    **** 
 211:Serial.cpp    ****          /* Store the received character into the buffer */
 212:Serial.cpp    ****          uartData[portNum].RxBuffer[*head] = uart->R1.RBR;
ARM GAS  /cygdrive/c/Users/Chris/AppData/Local/Temp/ccTUaxdK.s 			page 6


  70              		.loc 1 212 0
  71 0050 403091E5 		ldr	r3, [r1, #64]
  72 0054 00209CE5 		ldr	r2, [ip, #0]
  73 0058 033084E0 		add	r3, r4, r3
  74 005c FF2002E2 		and	r2, r2, #255
  75 0060 0320C0E7 		strb	r2, [r0, r3]
 213:Serial.cpp    ****          *head = index;
  76              		.loc 1 213 0
  77 0064 04309DE5 		ldr	r3, [sp, #4]
  78 0068 403081E5 		str	r3, [r1, #64]
  79 006c 150000EA 		b	.L6
  80              	.LVL8:
  81              	.L2:
  82              	.LBE3:
 214:Serial.cpp    **** 
 215:Serial.cpp    ****       }
 216:Serial.cpp    ****    }
 217:Serial.cpp    ****    else if ( IIRValue == IIR_CTI ) { /* Character timeout indicator */
  83              		.loc 1 217 0
  84 0070 060052E3 		cmp	r2, #6
  85 0074 0600001A 		bne	.L4
 218:Serial.cpp    **** 
 219:Serial.cpp    ****       /* Character Time-out indicator */
 220:Serial.cpp    ****       uartData[portNum].Status |= 0x100;     /* Bit 9 as the CTI error */
  86              		.loc 1 220 0
  87 0078 54309FE5 		ldr	r3, .L7+4
  88 007c 4A2082E2 		add	r2, r2, #74
  89              	.LVL9:
  90 0080 903222E0 		mla	r2, r0, r2, r3
  91 0084 483092E5 		ldr	r3, [r2, #72]
  92 0088 013C83E3 		orr	r3, r3, #256
  93 008c 483082E5 		str	r3, [r2, #72]
  94 0090 0C0000EA 		b	.L6
  95              	.LVL10:
  96              	.L4:
 221:Serial.cpp    **** 
 222:Serial.cpp    ****    }
 223:Serial.cpp    ****    else if ( IIRValue == IIR_THRE ) {   /* THRE, transmit holding register empty */
  97              		.loc 1 223 0
  98 0094 010052E3 		cmp	r2, #1
  99 0098 0A00001A 		bne	.L6
 100              	.LBB4:
 224:Serial.cpp    **** 	  
 225:Serial.cpp    **** 	  BYTE LSRValue;
 226:Serial.cpp    **** 
 227:Serial.cpp    ****       /* THRE interrupt */
 228:Serial.cpp    ****       LSRValue = uart->LSR;   		/* Check status in the LSR to see if
 101              		.loc 1 228 0
 102 009c 14309CE5 		ldr	r3, [ip, #20]
 103 00a0 2CC09FE5 		ldr	ip, .L7+4
 104              	.LVL11:
 229:Serial.cpp    ****                                  		valid data in U0THR or not */
 230:Serial.cpp    ****       if ( LSRValue & LSR_THRE ) {
 105              		.loc 1 230 0
 106 00a4 201013E2 		ands	r1, r3, #32
 231:Serial.cpp    ****          uartData[portNum].TxEmpy = 1;
 107              		.loc 1 231 0
ARM GAS  /cygdrive/c/Users/Chris/AppData/Local/Temp/ccTUaxdK.s 			page 7


 108 00a8 5030A013 		movne	r3, #80
 232:Serial.cpp    ****       }
 233:Serial.cpp    ****       else {
 234:Serial.cpp    ****          uartData[portNum].TxEmpy = 0;
 109              		.loc 1 234 0
 110 00ac 5030A003 		moveq	r3, #80
 111              		.loc 1 231 0
 112 00b0 90C32310 		mlane	r3, r0, r3, ip
 113              		.loc 1 234 0
 114 00b4 90C32300 		mlaeq	r3, r0, r3, ip
 115              		.loc 1 231 0
 116 00b8 48308312 		addne	r3, r3, #72
 117              		.loc 1 234 0
 118 00bc 48308302 		addeq	r3, r3, #72
 119              		.loc 1 231 0
 120 00c0 B420C311 		strneh	r2, [r3, #4]	@ movhi
 121              		.loc 1 234 0
 122 00c4 B410C301 		streqh	r1, [r3, #4]	@ movhi
 123              	.LVL12:
 124              	.L6:
 125              	.LBE4:
 126              	.LBE2:
 235:Serial.cpp    ****       }
 236:Serial.cpp    ****    }
 237:Serial.cpp    **** }
 127              		.loc 1 237 0
 128 00c8 1E00BDE8 		ldmfd	sp!, {r1, r2, r3, r4}
 129 00cc 1EFF2FE1 		bx	lr
 130              	.L8:
 131              		.align	2
 132              	.L7:
 133 00d0 00000000 		.word	.LANCHOR0
 134 00d4 00000000 		.word	.LANCHOR1
 135              	.LFE2:
 136              		.size	_Z9SerialISRh, .-_Z9SerialISRh
 137              		.section	.text._Z10Serial0ISRv,"ax",%progbits
 138              		.align	2
 139              		.global	_Z10Serial0ISRv
 140              		.type	_Z10Serial0ISRv, %function
 141              	_Z10Serial0ISRv:
 142              	.LFB3:
 238:Serial.cpp    **** 
 239:Serial.cpp    **** void Serial0ISR(void) {
 143              		.loc 1 239 0
 144              		@ Function supports interworking.
 145              		@ Naked Function: prologue and epilogue provided by programmer.
 146              		@ args = 0, pretend = 0, frame = 0
 147              		@ frame_needed = 0, uses_anonymous_args = 0
 240:Serial.cpp    ****    
 241:Serial.cpp    ****    /* Perform proper ISR entry so thumb-interwork works properly */
 242:Serial.cpp    ****    ISR_ENTRY();
 148              		.loc 1 242 0
 149              	@ 242 "Serial.cpp" 1
 150 0000 04E04EE2 		 sub   lr, lr,#4
 151 0004 FF5F2DE9 	 stmfd sp!,{r0-r12,lr}
 152 0008 00104FE1 	 mrs   r1, spsr
 153 000c 02002DE9 	 stmfd sp!,{r1}
ARM GAS  /cygdrive/c/Users/Chris/AppData/Local/Temp/ccTUaxdK.s 			page 8


 154              	@ 0 "" 2
 243:Serial.cpp    **** 
 244:Serial.cpp    ****    /* Handle the UART Interrupt */
 245:Serial.cpp    ****    SerialISR(UART0);
 155              		.loc 1 245 0
 156 0010 0000A0E3 		mov	r0, #0
 157 0014 FEFFFFEB 		bl	_Z9SerialISRh
 246:Serial.cpp    **** 
 247:Serial.cpp    ****    /* Clear this interrupt from the VIC */
 248:Serial.cpp    ****    VICVectAddr = 0x00000000;  
 158              		.loc 1 248 0
 159 0018 0020A0E3 		mov	r2, #0
 160 001c 0030E0E3 		mvn	r3, #0
 161 0020 FF2003E5 		str	r2, [r3, #-255]
 249:Serial.cpp    ****    
 250:Serial.cpp    ****    /* Recover registers and return */           
 251:Serial.cpp    ****    ISR_EXIT();                           
 162              		.loc 1 251 0
 163              	@ 251 "Serial.cpp" 1
 164 0024 0200BDE8 		 ldmfd sp!,{r1}
 165 0028 01F061E1 	 msr   spsr_c,r1
 166 002c FF9FFDE8 	 ldmfd sp!,{r0-r12,pc}^
 167              	@ 0 "" 2
 252:Serial.cpp    **** 
 253:Serial.cpp    **** }
 168              		.loc 1 253 0
 169              	.LFE3:
 170              		.size	_Z10Serial0ISRv, .-_Z10Serial0ISRv
 171              		.section	.text._Z10Serial1ISRv,"ax",%progbits
 172              		.align	2
 173              		.global	_Z10Serial1ISRv
 174              		.type	_Z10Serial1ISRv, %function
 175              	_Z10Serial1ISRv:
 176              	.LFB4:
 254:Serial.cpp    **** 
 255:Serial.cpp    **** void Serial1ISR(void) {
 177              		.loc 1 255 0
 178              		@ Function supports interworking.
 179              		@ Naked Function: prologue and epilogue provided by programmer.
 180              		@ args = 0, pretend = 0, frame = 0
 181              		@ frame_needed = 0, uses_anonymous_args = 0
 256:Serial.cpp    ****    
 257:Serial.cpp    ****    /* Perform proper ISR entry so thumb-interwork works properly */
 258:Serial.cpp    ****    ISR_ENTRY();
 182              		.loc 1 258 0
 183              	@ 258 "Serial.cpp" 1
 184 0000 04E04EE2 		 sub   lr, lr,#4
 185 0004 FF5F2DE9 	 stmfd sp!,{r0-r12,lr}
 186 0008 00104FE1 	 mrs   r1, spsr
 187 000c 02002DE9 	 stmfd sp!,{r1}
 188              	@ 0 "" 2
 259:Serial.cpp    **** 
 260:Serial.cpp    ****    /* Handle the UART Interrupt */
 261:Serial.cpp    ****    SerialISR(UART1);
 189              		.loc 1 261 0
 190 0010 0100A0E3 		mov	r0, #1
 191 0014 FEFFFFEB 		bl	_Z9SerialISRh
ARM GAS  /cygdrive/c/Users/Chris/AppData/Local/Temp/ccTUaxdK.s 			page 9


 262:Serial.cpp    **** 
 263:Serial.cpp    ****    /* Clear this interrupt from the VIC */
 264:Serial.cpp    ****    VICVectAddr = 0x00000000;  
 192              		.loc 1 264 0
 193 0018 0020A0E3 		mov	r2, #0
 194 001c 0030E0E3 		mvn	r3, #0
 195 0020 FF2003E5 		str	r2, [r3, #-255]
 265:Serial.cpp    ****    
 266:Serial.cpp    ****    /* Recover registers and return */           
 267:Serial.cpp    ****    ISR_EXIT();   
 196              		.loc 1 267 0
 197              	@ 267 "Serial.cpp" 1
 198 0024 0200BDE8 		 ldmfd sp!,{r1}
 199 0028 01F061E1 	 msr   spsr_c,r1
 200 002c FF9FFDE8 	 ldmfd sp!,{r0-r12,pc}^
 201              	@ 0 "" 2
 268:Serial.cpp    **** 
 269:Serial.cpp    **** }
 202              		.loc 1 269 0
 203              	.LFE4:
 204              		.size	_Z10Serial1ISRv, .-_Z10Serial1ISRv
 205              		.section	.text._Z10Serial2ISRv,"ax",%progbits
 206              		.align	2
 207              		.global	_Z10Serial2ISRv
 208              		.type	_Z10Serial2ISRv, %function
 209              	_Z10Serial2ISRv:
 210              	.LFB5:
 270:Serial.cpp    **** 
 271:Serial.cpp    **** void Serial2ISR(void) {
 211              		.loc 1 271 0
 212              		@ Function supports interworking.
 213              		@ Naked Function: prologue and epilogue provided by programmer.
 214              		@ args = 0, pretend = 0, frame = 0
 215              		@ frame_needed = 0, uses_anonymous_args = 0
 272:Serial.cpp    ****    
 273:Serial.cpp    ****    /* Perform proper ISR entry so thumb-interwork works properly */
 274:Serial.cpp    ****    ISR_ENTRY();
 216              		.loc 1 274 0
 217              	@ 274 "Serial.cpp" 1
 218 0000 04E04EE2 		 sub   lr, lr,#4
 219 0004 FF5F2DE9 	 stmfd sp!,{r0-r12,lr}
 220 0008 00104FE1 	 mrs   r1, spsr
 221 000c 02002DE9 	 stmfd sp!,{r1}
 222              	@ 0 "" 2
 275:Serial.cpp    **** 
 276:Serial.cpp    ****    /* Handle the UART Interrupt */
 277:Serial.cpp    ****    SerialISR(UART2);
 223              		.loc 1 277 0
 224 0010 0200A0E3 		mov	r0, #2
 225 0014 FEFFFFEB 		bl	_Z9SerialISRh
 278:Serial.cpp    **** 
 279:Serial.cpp    ****    /* Clear this interrupt from the VIC */
 280:Serial.cpp    ****    VICVectAddr = 0x00000000;  
 226              		.loc 1 280 0
 227 0018 0020A0E3 		mov	r2, #0
 228 001c 0030E0E3 		mvn	r3, #0
 229 0020 FF2003E5 		str	r2, [r3, #-255]
ARM GAS  /cygdrive/c/Users/Chris/AppData/Local/Temp/ccTUaxdK.s 			page 10


 281:Serial.cpp    ****    
 282:Serial.cpp    ****    /* Recover registers and return */           
 283:Serial.cpp    ****    ISR_EXIT();   
 230              		.loc 1 283 0
 231              	@ 283 "Serial.cpp" 1
 232 0024 0200BDE8 		 ldmfd sp!,{r1}
 233 0028 01F061E1 	 msr   spsr_c,r1
 234 002c FF9FFDE8 	 ldmfd sp!,{r0-r12,pc}^
 235              	@ 0 "" 2
 284:Serial.cpp    **** 
 285:Serial.cpp    **** }
 236              		.loc 1 285 0
 237              	.LFE5:
 238              		.size	_Z10Serial2ISRv, .-_Z10Serial2ISRv
 239              		.section	.text._Z10Serial3ISRv,"ax",%progbits
 240              		.align	2
 241              		.global	_Z10Serial3ISRv
 242              		.type	_Z10Serial3ISRv, %function
 243              	_Z10Serial3ISRv:
 244              	.LFB6:
 286:Serial.cpp    **** 
 287:Serial.cpp    **** void Serial3ISR(void) {
 245              		.loc 1 287 0
 246              		@ Function supports interworking.
 247              		@ Naked Function: prologue and epilogue provided by programmer.
 248              		@ args = 0, pretend = 0, frame = 0
 249              		@ frame_needed = 0, uses_anonymous_args = 0
 288:Serial.cpp    **** 
 289:Serial.cpp    ****    /* Perform proper ISR entry so thumb-interwork works properly */
 290:Serial.cpp    ****    ISR_ENTRY();
 250              		.loc 1 290 0
 251              	@ 290 "Serial.cpp" 1
 252 0000 04E04EE2 		 sub   lr, lr,#4
 253 0004 FF5F2DE9 	 stmfd sp!,{r0-r12,lr}
 254 0008 00104FE1 	 mrs   r1, spsr
 255 000c 02002DE9 	 stmfd sp!,{r1}
 256              	@ 0 "" 2
 291:Serial.cpp    **** 
 292:Serial.cpp    ****    /* Handle the UART Interrupt */
 293:Serial.cpp    ****    SerialISR(UART3);
 257              		.loc 1 293 0
 258 0010 0300A0E3 		mov	r0, #3
 259 0014 FEFFFFEB 		bl	_Z9SerialISRh
 294:Serial.cpp    **** 
 295:Serial.cpp    ****    /* Clear this interrupt from the VIC */
 296:Serial.cpp    ****    VICVectAddr = 0x00000000;  
 260              		.loc 1 296 0
 261 0018 0020A0E3 		mov	r2, #0
 262 001c 0030E0E3 		mvn	r3, #0
 263 0020 FF2003E5 		str	r2, [r3, #-255]
 297:Serial.cpp    ****    
 298:Serial.cpp    ****    /* Recover registers and return */           
 299:Serial.cpp    ****    ISR_EXIT();   
 264              		.loc 1 299 0
 265              	@ 299 "Serial.cpp" 1
 266 0024 0200BDE8 		 ldmfd sp!,{r1}
 267 0028 01F061E1 	 msr   spsr_c,r1
ARM GAS  /cygdrive/c/Users/Chris/AppData/Local/Temp/ccTUaxdK.s 			page 11


 268 002c FF9FFDE8 	 ldmfd sp!,{r0-r12,pc}^
 269              	@ 0 "" 2
 300:Serial.cpp    **** 
 301:Serial.cpp    **** }
 270              		.loc 1 301 0
 271              	.LFE6:
 272              		.size	_Z10Serial3ISRv, .-_Z10Serial3ISRv
 273              		.global	__aeabi_uidiv
 274              		.section	.text._Z22findDivisorAndPrescalemmbRmS_,"ax",%progbits
 275              		.align	2
 276              		.global	_Z22findDivisorAndPrescalemmbRmS_
 277              		.type	_Z22findDivisorAndPrescalemmbRmS_, %function
 278              	_Z22findDivisorAndPrescalemmbRmS_:
 279              	.LFB7:
 302:Serial.cpp    **** 
 303:Serial.cpp    **** //**************************************
 304:Serial.cpp    **** //* GLOBAL FUNCTIONS
 305:Serial.cpp    **** //**************************************
 306:Serial.cpp    **** 
 307:Serial.cpp    **** /* NOTE: This findDivisorAndPrescale is code by
 308:Serial.cpp    ****  *
 309:Serial.cpp    ****  *  "Jan Vanek" <j3vanek@googlemail.com>
 310:Serial.cpp    ****  *
 311:Serial.cpp    ****  * who generously posted it to the LPC2000 mailing list on Thu, 12 Mar 2009.
 312:Serial.cpp    ****  */
 313:Serial.cpp    **** 
 314:Serial.cpp    **** uint32_t findDivisorAndPrescale(uint32_t frequency, uint32_t baudRate, bool allowSmallerBaudRate, u
 280              		.loc 1 314 0
 281              		@ Function supports interworking.
 282              		@ args = 4, pretend = 0, frame = 24
 283              		@ frame_needed = 0, uses_anonymous_args = 0
 284              	.LVL13:
 285 0000 F04F2DE9 		stmfd	sp!, {r4, r5, r6, r7, r8, r9, sl, fp, lr}
 286              	.LCFI1:
 287 0004 01B0A0E1 		mov	fp, r1
 288 0008 1CD04DE2 		sub	sp, sp, #28
 289              	.LCFI2:
 290              	.LBB5:
 315:Serial.cpp    ****   // The FDR is set to prescale the UART_CLK with factor M/(M+D),
 316:Serial.cpp    ****   // where both M and D are in <0, 15>. This is to achieve smaller
 317:Serial.cpp    ****   // error when calculating the divisor (the UnDL).
 318:Serial.cpp    ****   //                UART_CLK      M
 319:Serial.cpp    ****   // UARTbaudrate = --------- x -----
 320:Serial.cpp    ****   //                16 x UnDL   (M+D)
 321:Serial.cpp    **** 
 322:Serial.cpp    ****   uint32_t divisor = frequency / (16 * baudRate);
 291              		.loc 1 322 0
 292 000c 0112A0E1 		mov	r1, r1, asl #4
 293              	.LVL14:
 294              	.LBE5:
 295              		.loc 1 314 0
 296 0010 08208DE5 		str	r2, [sp, #8]
 297 0014 04308DE5 		str	r3, [sp, #4]
 298 0018 0C008DE5 		str	r0, [sp, #12]
 299              	.LBB17:
 300              		.loc 1 322 0
 301 001c FEFFFFEB 		bl	__aeabi_uidiv
ARM GAS  /cygdrive/c/Users/Chris/AppData/Local/Temp/ccTUaxdK.s 			page 12


 302              	.LVL15:
 303 0020 00A0A0E1 		mov	sl, r0
 304              	.LVL16:
 323:Serial.cpp    ****   uint32_t baudRateError = (frequency / (16 * divisor)) - baudRate;
 305              		.loc 1 323 0
 306 0024 0A12A0E1 		mov	r1, sl, asl #4
 307 0028 0C009DE5 		ldr	r0, [sp, #12]
 308 002c FEFFFFEB 		bl	__aeabi_uidiv
 324:Serial.cpp    **** 
 325:Serial.cpp    ****   if (allowSmallerBaudRate) {
 309              		.loc 1 325 0
 310 0030 08109DE5 		ldr	r1, [sp, #8]
 311 0034 000051E3 		cmp	r1, #0
 312              		.loc 1 323 0
 313 0038 00806BE0 		rsb	r8, fp, r0
 314              	.LVL17:
 315              		.loc 1 325 0
 316 003c 0700000A 		beq	.L18
 317              	.LVL18:
 318              	.LBB6:
 326:Serial.cpp    ****     uint32_t otherDivisor = divisor + 1;
 319              		.loc 1 326 0
 320 0040 01408AE2 		add	r4, sl, #1
 321              	.LVL19:
 327:Serial.cpp    ****     uint32_t otherBaudRateError = baudRate - (frequency / (16 * otherDivisor));
 322              		.loc 1 327 0
 323 0044 0C009DE5 		ldr	r0, [sp, #12]
 324 0048 0412A0E1 		mov	r1, r4, asl #4
 325 004c FEFFFFEB 		bl	__aeabi_uidiv
 326 0050 0B3060E0 		rsb	r3, r0, fp
 327              	.LVL20:
 328:Serial.cpp    ****     if (baudRateError > otherBaudRateError) {
 328              		.loc 1 328 0
 329 0054 030058E1 		cmp	r8, r3
 330 0058 04A0A081 		movhi	sl, r4
 331 005c 0380A081 		movhi	r8, r3
 332              	.L18:
 333              	.LBE6:
 329:Serial.cpp    ****       divisor = otherDivisor;
 330:Serial.cpp    ****       baudRateError = otherBaudRateError;
 331:Serial.cpp    ****     }
 332:Serial.cpp    ****   }
 333:Serial.cpp    ****   mulVal = 1;
 334              		.loc 1 333 0
 335 0060 04109DE5 		ldr	r1, [sp, #4]
 336 0064 0130A0E3 		mov	r3, #1
 337              	.LVL21:
 338 0068 003081E5 		str	r3, [r1, #0]
 334:Serial.cpp    ****   divAddVal = 0;
 339              		.loc 1 334 0
 340 006c 40309DE5 		ldr	r3, [sp, #64]
 341 0070 0C109DE5 		ldr	r1, [sp, #12]
 342 0074 0020A0E3 		mov	r2, #0
 343 0078 0270A0E1 		mov	r7, r2
 344              	.LVL22:
 345 007c 002083E5 		str	r2, [r3, #0]
 346 0080 10108DE5 		str	r1, [sp, #16]
ARM GAS  /cygdrive/c/Users/Chris/AppData/Local/Temp/ccTUaxdK.s 			page 13


 347              	.LVL23:
 348 0084 2B0000EA 		b	.L19
 349              	.LVL24:
 350              	.L22:
 351              	.LBB7:
 352              	.LBB8:
 353              	.LBB9:
 335:Serial.cpp    ****   for (uint32_t mv = 0; ++mv < 16;) {
 336:Serial.cpp    ****     for (uint32_t dav = 0; ++dav < 16;)  {  // ACKLEY: SHOULDN'T THIS BE: '++dav < mv' (according t
 337:Serial.cpp    ****       uint32_t prescaledClock = (frequency * mv) / (16 * (mv + dav));
 354              		.loc 1 337 0
 355 0088 FEFFFFEB 		bl	__aeabi_uidiv
 356              	.LVL25:
 338:Serial.cpp    ****       uint32_t newDivisor = prescaledClock / baudRate;
 357              		.loc 1 338 0
 358 008c 0B10A0E1 		mov	r1, fp
 359              		.loc 1 337 0
 360 0090 0050A0E1 		mov	r5, r0
 361              		.loc 1 338 0
 362 0094 FEFFFFEB 		bl	__aeabi_uidiv
 339:Serial.cpp    ****       if (newDivisor != 0) {
 363              		.loc 1 339 0
 364 0098 004050E2 		subs	r4, r0, #0
 365              	.LVL26:
 366              	.LBB14:
 340:Serial.cpp    ****         uint32_t newBaudRateError = (prescaledClock / newDivisor) - baudRate;
 341:Serial.cpp    ****         if (baudRateError > newBaudRateError) {
 342:Serial.cpp    ****           divisor = newDivisor;
 343:Serial.cpp    ****           mulVal = mv;
 344:Serial.cpp    ****           divAddVal = dav;
 345:Serial.cpp    ****           baudRateError = newBaudRateError;
 346:Serial.cpp    ****         }
 347:Serial.cpp    ****       }
 348:Serial.cpp    ****       if (allowSmallerBaudRate) {
 349:Serial.cpp    ****         ++newDivisor;
 367              		.loc 1 349 0
 368 009c 012084E2 		add	r2, r4, #1
 369 00a0 14208DE5 		str	r2, [sp, #20]
 370              	.LVL27:
 371              	.LBE14:
 372              	.LBB13:
 373              		.loc 1 340 0
 374 00a4 0410A0E1 		mov	r1, r4
 375 00a8 0500A0E1 		mov	r0, r5
 376              	.LBE13:
 377              		.loc 1 339 0
 378 00ac 0900000A 		beq	.L20
 379              	.LVL28:
 380              	.LBB12:
 381              		.loc 1 340 0
 382 00b0 FEFFFFEB 		bl	__aeabi_uidiv
 383 00b4 00006BE0 		rsb	r0, fp, r0
 384              	.LVL29:
 385              		.loc 1 341 0
 386 00b8 000058E1 		cmp	r8, r0
 387 00bc 0500009A 		bls	.L20
 388              		.loc 1 343 0
ARM GAS  /cygdrive/c/Users/Chris/AppData/Local/Temp/ccTUaxdK.s 			page 14


 389 00c0 04309DE5 		ldr	r3, [sp, #4]
 390              		.loc 1 344 0
 391 00c4 40109DE5 		ldr	r1, [sp, #64]
 392              		.loc 1 343 0
 393 00c8 007083E5 		str	r7, [r3, #0]
 394              		.loc 1 344 0
 395 00cc 006081E5 		str	r6, [r1, #0]
 396 00d0 0080A0E1 		mov	r8, r0
 397 00d4 04A0A0E1 		mov	sl, r4
 398              	.L20:
 399              	.LBE12:
 400              		.loc 1 348 0
 401 00d8 08209DE5 		ldr	r2, [sp, #8]
 402 00dc 000052E3 		cmp	r2, #0
 403              	.LBB11:
 350:Serial.cpp    ****         uint32_t newBaudRateError = baudRate - (prescaledClock / newDivisor);
 404              		.loc 1 350 0
 405 00e0 0500A0E1 		mov	r0, r5
 406              	.LVL30:
 407 00e4 14109DE5 		ldr	r1, [sp, #20]
 408              	.LBE11:
 409              		.loc 1 348 0
 410 00e8 0900000A 		beq	.L24
 411              	.LVL31:
 412              	.LBB10:
 413              		.loc 1 350 0
 414 00ec FEFFFFEB 		bl	__aeabi_uidiv
 415 00f0 0B3060E0 		rsb	r3, r0, fp
 416              	.LVL32:
 351:Serial.cpp    ****         if (baudRateError > newBaudRateError) {
 417              		.loc 1 351 0
 418 00f4 030058E1 		cmp	r8, r3
 419 00f8 0500009A 		bls	.L24
 352:Serial.cpp    ****           divisor = newDivisor;
 353:Serial.cpp    ****           mulVal = mv;
 420              		.loc 1 353 0
 421 00fc 04109DE5 		ldr	r1, [sp, #4]
 354:Serial.cpp    ****           divAddVal = dav;
 422              		.loc 1 354 0
 423 0100 40209DE5 		ldr	r2, [sp, #64]
 424              		.loc 1 353 0
 425 0104 007081E5 		str	r7, [r1, #0]
 426              		.loc 1 354 0
 427 0108 14A09DE5 		ldr	sl, [sp, #20]
 428 010c 006082E5 		str	r6, [r2, #0]
 429 0110 0380A0E1 		mov	r8, r3
 430              	.LVL33:
 431              	.L24:
 432              	.LBE10:
 433              	.LBE9:
 434              		.loc 1 336 0
 435 0114 016086E2 		add	r6, r6, #1
 436 0118 100056E3 		cmp	r6, #16
 437              	.LBB16:
 438              		.loc 1 337 0
 439 011c 0910A0E1 		mov	r1, r9
 440 0120 10009DE5 		ldr	r0, [sp, #16]
ARM GAS  /cygdrive/c/Users/Chris/AppData/Local/Temp/ccTUaxdK.s 			page 15


 441              	.LBB15:
 442              		.loc 1 354 0
 443 0124 109089E2 		add	r9, r9, #16
 444              	.LBE15:
 445              	.LBE16:
 446              		.loc 1 336 0
 447 0128 D6FFFF1A 		bne	.L22
 448              	.LVL34:
 449 012c 0C109DE5 		ldr	r1, [sp, #12]
 450 0130 013080E0 		add	r3, r0, r1
 451              	.LVL35:
 452 0134 10308DE5 		str	r3, [sp, #16]
 453              	.LVL36:
 454              	.L19:
 455              	.LBE8:
 456              		.loc 1 335 0
 457 0138 017087E2 		add	r7, r7, #1
 458 013c 100057E3 		cmp	r7, #16
 459 0140 01308712 		addne	r3, r7, #1
 460 0144 0392A011 		movne	r9, r3, asl #4
 461 0148 0060A013 		movne	r6, #0
 462 014c F0FFFF1A 		bne	.L24
 463              	.L23:
 464              	.LBE7:
 465              	.LBE17:
 355:Serial.cpp    ****           baudRateError = newBaudRateError;
 356:Serial.cpp    ****         }
 357:Serial.cpp    ****       }
 358:Serial.cpp    ****     }
 359:Serial.cpp    ****   }
 360:Serial.cpp    ****   // uint32_t calculatedBaudRate = (frequency * mulVal) / ((16 * divisor) * (mulVal + divAddVal));
 361:Serial.cpp    ****   return divisor;
 362:Serial.cpp    **** }
 466              		.loc 1 362 0
 467 0150 0A00A0E1 		mov	r0, sl
 468 0154 1CD08DE2 		add	sp, sp, #28
 469 0158 F04FBDE8 		ldmfd	sp!, {r4, r5, r6, r7, r8, r9, sl, fp, lr}
 470 015c 1EFF2FE1 		bx	lr
 471              	.LFE7:
 472              		.size	_Z22findDivisorAndPrescalemmbRmS_, .-_Z22findDivisorAndPrescalemmbRmS_
 473              		.section	.text._Z15SerialAvailableh,"ax",%progbits
 474              		.align	2
 475              		.global	_Z15SerialAvailableh
 476              		.type	_Z15SerialAvailableh, %function
 477              	_Z15SerialAvailableh:
 478              	.LFB9:
 363:Serial.cpp    **** 
 364:Serial.cpp    **** 
 365:Serial.cpp    **** //*****************************************
 366:Serial.cpp    **** //* Initialize Serial Interface
 367:Serial.cpp    **** void SerialBegin(uint8_t portNum, uint32_t baud) {
 368:Serial.cpp    **** 
 369:Serial.cpp    ****    PCONP = 0xFFFFFFFF; //everything powered on            
 370:Serial.cpp    **** 
 371:Serial.cpp    ****   ////
 372:Serial.cpp    ****   // Determine slowest sufficient PCLK for this baud rate
 373:Serial.cpp    **** 
ARM GAS  /cygdrive/c/Users/Chris/AppData/Local/Temp/ccTUaxdK.s 			page 16


 374:Serial.cpp    ****   uint32_t pclk;
 375:Serial.cpp    ****   uint8_t pclkCode;
 376:Serial.cpp    ****   if (CCLK/4/16/4 >= baud) {
 377:Serial.cpp    ****     pclk = CCLK/4;
 378:Serial.cpp    ****     pclkCode = 0;
 379:Serial.cpp    ****   } else if (CCLK/2/16/4 >= baud) {
 380:Serial.cpp    ****     pclk = CCLK/2;
 381:Serial.cpp    ****     pclkCode = 2;
 382:Serial.cpp    ****   } else {
 383:Serial.cpp    ****     pclk = CCLK;    // Yah.  Right.  This'll work.
 384:Serial.cpp    ****     pclkCode = 1;
 385:Serial.cpp    ****   }
 386:Serial.cpp    **** 
 387:Serial.cpp    ****   uint32_t mulVal;
 388:Serial.cpp    ****   uint32_t divAddVal;
 389:Serial.cpp    ****   uint32_t Fdiv;
 390:Serial.cpp    **** 
 391:Serial.cpp    ****   Fdiv = findDivisorAndPrescale(pclk, baud, true, mulVal, divAddVal);
 392:Serial.cpp    **** 
 393:Serial.cpp    ****    /* Setup the baud rate */
 394:Serial.cpp    ****    uartReg[portNum]->LCR = 0x83;           /* 8 bits, no Parity, 1 Stop bit, enable access */
 395:Serial.cpp    ****    uartReg[portNum]->FDR = (divAddVal<<0)|(mulVal <<4); /* Set the fractional divisor */
 396:Serial.cpp    ****    uartReg[portNum]->R2.DLM = Fdiv >> 8;
 397:Serial.cpp    ****    uartReg[portNum]->R1.DLL = Fdiv & 0xFF;
 398:Serial.cpp    ****    uartReg[portNum]->LCR = 0x03;           /* Disable access */
 399:Serial.cpp    ****    uartReg[portNum]->R3.FCR = 0x07;        /* Enable and reset TX and RX FIFO. */
 400:Serial.cpp    **** 
 401:Serial.cpp    **** 	/* Setup the pin connection */
 402:Serial.cpp    ****    *uartPins[portNum].TxSelReg = ( *uartPins[portNum].TxSelReg & 
 403:Serial.cpp    ****                                    ~uartPins[portNum].TxMask) |
 404:Serial.cpp    ****                                  uartPins[portNum].TxSelValue;
 405:Serial.cpp    ****    *uartPins[portNum].RxSelReg = ( *uartPins[portNum].RxSelReg & 
 406:Serial.cpp    ****                                    ~uartPins[portNum].RxMask) |
 407:Serial.cpp    **** 											uartPins[portNum].RxSelValue;
 408:Serial.cpp    **** 
 409:Serial.cpp    ****    /* Install the interrupt handler into the VIC */
 410:Serial.cpp    ****    install_irq( uartInts[portNum].IntNumber, 
 411:Serial.cpp    ****                 (void *)uartInts[portNum].IntFunc,  
 412:Serial.cpp    ****                 uartInts[portNum].Priority);
 413:Serial.cpp    ****  
 414:Serial.cpp    **** 
 415:Serial.cpp    ****    /* Enable the uart interrupts */
 416:Serial.cpp    ****    uartReg[portNum]->R2.IER.RBR = 1;   /* Rx Data Available */
 417:Serial.cpp    ****    uartReg[portNum]->R2.IER.THRE = 1;  /* THRE interrupt */
 418:Serial.cpp    **** 
 419:Serial.cpp    ****    /* Initialize the uart buffer */
 420:Serial.cpp    ****    SerialFlush(portNum);
 421:Serial.cpp    **** 
 422:Serial.cpp    **** }
 423:Serial.cpp    **** 
 424:Serial.cpp    **** //*****************************************
 425:Serial.cpp    **** //* Return the number of characters 
 426:Serial.cpp    **** //* in the buffer.
 427:Serial.cpp    **** int SerialAvailable(uint8_t portNum) {
 479              		.loc 1 427 0
 480              		@ Function supports interworking.
 481              		@ args = 0, pretend = 0, frame = 0
ARM GAS  /cygdrive/c/Users/Chris/AppData/Local/Temp/ccTUaxdK.s 			page 17


 482              		@ frame_needed = 0, uses_anonymous_args = 0
 483              		@ link register save eliminated.
 484              	.LVL37:
 428:Serial.cpp    **** 
 429:Serial.cpp    **** 	return (UART_BUFFSIZE + 
 430:Serial.cpp    ****            uartData[portNum].RxHead - uartData[portNum].RxTail) % UART_BUFFSIZE;
 485              		.loc 1 430 0
 486 0000 18309FE5 		ldr	r3, .L28
 487 0004 5020A0E3 		mov	r2, #80
 488 0008 923023E0 		mla	r3, r2, r0, r3
 489 000c 400093E5 		ldr	r0, [r3, #64]
 490              	.LVL38:
 491 0010 443093E5 		ldr	r3, [r3, #68]
 492 0014 000063E0 		rsb	r0, r3, r0
 431:Serial.cpp    **** 
 432:Serial.cpp    **** }
 493              		.loc 1 432 0
 494 0018 3F0000E2 		and	r0, r0, #63
 495 001c 1EFF2FE1 		bx	lr
 496              	.L29:
 497              		.align	2
 498              	.L28:
 499 0020 00000000 		.word	.LANCHOR1
 500              	.LFE9:
 501              		.size	_Z15SerialAvailableh, .-_Z15SerialAvailableh
 502              		.section	.text._Z11SerialWritehi,"ax",%progbits
 503              		.align	2
 504              		.global	_Z11SerialWritehi
 505              		.type	_Z11SerialWritehi, %function
 506              	_Z11SerialWritehi:
 507              	.LFB10:
 433:Serial.cpp    **** 
 434:Serial.cpp    **** //*****************************************
 435:Serial.cpp    **** //* Write character to Serial Port
 436:Serial.cpp    **** int SerialWrite(uint8_t portNum, int ch)  {
 508              		.loc 1 436 0
 509              		@ Function supports interworking.
 510              		@ args = 0, pretend = 0, frame = 0
 511              		@ frame_needed = 0, uses_anonymous_args = 0
 512              		@ link register save eliminated.
 513              	.LVL39:
 437:Serial.cpp    **** 
 438:Serial.cpp    ****    while (!(uartReg[portNum]->LSR & 0x20));
 514              		.loc 1 438 0
 515 0000 1C309FE5 		ldr	r3, .L33
 516 0004 000193E7 		ldr	r0, [r3, r0, asl #2]
 517              	.LVL40:
 518              	.L31:
 519 0008 143090E5 		ldr	r3, [r0, #20]
 520 000c 200013E3 		tst	r3, #32
 521 0010 FCFFFF0A 		beq	.L31
 439:Serial.cpp    **** 
 440:Serial.cpp    ****    return(uartReg[portNum]->R1.THR = (unsigned char)ch);
 522              		.loc 1 440 0
 523 0014 FF3001E2 		and	r3, r1, #255
 524 0018 003080E5 		str	r3, [r0, #0]
 525 001c 000090E5 		ldr	r0, [r0, #0]
ARM GAS  /cygdrive/c/Users/Chris/AppData/Local/Temp/ccTUaxdK.s 			page 18


 441:Serial.cpp    **** }
 526              		.loc 1 441 0
 527 0020 1EFF2FE1 		bx	lr
 528              	.L34:
 529              		.align	2
 530              	.L33:
 531 0024 00000000 		.word	.LANCHOR0
 532              	.LFE10:
 533              		.size	_Z11SerialWritehi, .-_Z11SerialWritehi
 534              		.section	.text._Z9SerialStrhPc,"ax",%progbits
 535              		.align	2
 536              		.global	_Z9SerialStrhPc
 537              		.type	_Z9SerialStrhPc, %function
 538              	_Z9SerialStrhPc:
 539              	.LFB11:
 442:Serial.cpp    **** 
 443:Serial.cpp    **** //*****************************************
 444:Serial.cpp    **** //* Write string to Serial Port
 445:Serial.cpp    **** void SerialStr(uint8_t portNum, char * str) {
 540              		.loc 1 445 0
 541              		@ Function supports interworking.
 542              		@ args = 0, pretend = 0, frame = 0
 543              		@ frame_needed = 0, uses_anonymous_args = 0
 544              	.LVL41:
 545 0000 70402DE9 		stmfd	sp!, {r4, r5, r6, lr}
 546              	.LCFI3:
 547              		.loc 1 445 0
 548 0004 0060A0E1 		mov	r6, r0
 549 0008 0150A0E1 		mov	r5, r1
 550 000c 0040A0E3 		mov	r4, #0
 551 0010 000000EA 		b	.L36
 552              	.LVL42:
 553              	.L37:
 446:Serial.cpp    ****    while (*str) {
 447:Serial.cpp    ****       SerialWrite(portNum, *str);
 554              		.loc 1 447 0
 555 0014 FEFFFFEB 		bl	_Z11SerialWritehi
 556              	.LVL43:
 557              	.L36:
 558              		.loc 1 446 0
 559 0018 0430D5E7 		ldrb	r3, [r5, r4]	@ zero_extendqisi2
 560 001c 001053E2 		subs	r1, r3, #0
 561              		.loc 1 447 0
 562 0020 0600A0E1 		mov	r0, r6
 563              		.loc 1 446 0
 564 0024 014084E2 		add	r4, r4, #1
 565 0028 F9FFFF1A 		bne	.L37
 448:Serial.cpp    ****       str++;
 449:Serial.cpp    ****    }
 450:Serial.cpp    **** } 
 566              		.loc 1 450 0
 567 002c 7040BDE8 		ldmfd	sp!, {r4, r5, r6, lr}
 568 0030 1EFF2FE1 		bx	lr
 569              	.LFE11:
 570              		.size	_Z9SerialStrhPc, .-_Z9SerialStrhPc
 571              		.section	.text._Z10SerialReadh,"ax",%progbits
 572              		.align	2
ARM GAS  /cygdrive/c/Users/Chris/AppData/Local/Temp/ccTUaxdK.s 			page 19


 573              		.global	_Z10SerialReadh
 574              		.type	_Z10SerialReadh, %function
 575              	_Z10SerialReadh:
 576              	.LFB12:
 451:Serial.cpp    **** 
 452:Serial.cpp    **** //*****************************************
 453:Serial.cpp    **** //* Read character from Serial Port Buffer
 454:Serial.cpp    **** int  SerialRead(uint8_t portNum) {
 577              		.loc 1 454 0
 578              		@ Function supports interworking.
 579              		@ args = 0, pretend = 0, frame = 0
 580              		@ frame_needed = 0, uses_anonymous_args = 0
 581              		@ link register save eliminated.
 582              	.LVL44:
 583              	.LBB18:
 455:Serial.cpp    ****    
 456:Serial.cpp    ****    int c;
 457:Serial.cpp    ****    vuint32_t *tail;
 458:Serial.cpp    **** 
 459:Serial.cpp    ****    tail = &uartData[portNum].RxTail;
 460:Serial.cpp    **** 
 461:Serial.cpp    **** 	// if the head isn't ahead of the tail, we don't have any characters
 462:Serial.cpp    **** 	if (uartData[portNum].RxHead == *tail) {
 584              		.loc 1 462 0
 585 0000 5030A0E3 		mov	r3, #80
 586 0004 93000CE0 		mul	ip, r3, r0
 587 0008 34009FE5 		ldr	r0, .L43
 588              	.LVL45:
 589 000c 0C1080E0 		add	r1, r0, ip
 590 0010 402091E5 		ldr	r2, [r1, #64]
 591 0014 443091E5 		ldr	r3, [r1, #68]
 592 0018 030052E1 		cmp	r2, r3
 463:Serial.cpp    **** 		c = -1;
 464:Serial.cpp    **** 	} else {
 465:Serial.cpp    **** 		c = uartData[portNum].RxBuffer[*tail];
 593              		.loc 1 465 0
 594 001c 44309115 		ldrne	r3, [r1, #68]
 595 0020 03308C10 		addne	r3, ip, r3
 596 0024 0320D017 		ldrneb	r2, [r0, r3]	@ zero_extendqisi2
 466:Serial.cpp    **** 		*tail = (*tail + 1) % UART_BUFFSIZE;
 597              		.loc 1 466 0
 598 0028 44309115 		ldrne	r3, [r1, #68]
 599 002c 01308312 		addne	r3, r3, #1
 600 0030 3F300312 		andne	r3, r3, #63
 601              		.loc 1 462 0
 602 0034 0000E003 		mvneq	r0, #0
 603              	.LVL46:
 604              		.loc 1 466 0
 605 0038 44308115 		strne	r3, [r1, #68]
 606              		.loc 1 465 0
 607 003c FF000212 		andne	r0, r2, #255
 608              	.LVL47:
 609              	.LBE18:
 467:Serial.cpp    **** 	}
 468:Serial.cpp    **** 	
 469:Serial.cpp    ****     return c;
 470:Serial.cpp    **** }
ARM GAS  /cygdrive/c/Users/Chris/AppData/Local/Temp/ccTUaxdK.s 			page 20


 610              		.loc 1 470 0
 611 0040 1EFF2FE1 		bx	lr
 612              	.L44:
 613              		.align	2
 614              	.L43:
 615 0044 00000000 		.word	.LANCHOR1
 616              	.LFE12:
 617              		.size	_Z10SerialReadh, .-_Z10SerialReadh
 618              		.section	.text._Z11SerialFlushh,"ax",%progbits
 619              		.align	2
 620              		.global	_Z11SerialFlushh
 621              		.type	_Z11SerialFlushh, %function
 622              	_Z11SerialFlushh:
 623              	.LFB13:
 471:Serial.cpp    **** 
 472:Serial.cpp    **** //*****************************************
 473:Serial.cpp    **** //* Flushes the serial buffer
 474:Serial.cpp    **** void SerialFlush(uint8_t portNum)
 624              		.loc 1 474 0
 625              		@ Function supports interworking.
 626              		@ args = 0, pretend = 0, frame = 0
 627              		@ frame_needed = 0, uses_anonymous_args = 0
 628              		@ link register save eliminated.
 629              	.LVL48:
 475:Serial.cpp    **** {
 476:Serial.cpp    **** 
 477:Serial.cpp    ****    uartData[portNum].RxHead = uartData[portNum].RxTail;
 630              		.loc 1 477 0
 631 0000 10309FE5 		ldr	r3, .L47
 632 0004 5020A0E3 		mov	r2, #80
 633 0008 903222E0 		mla	r2, r0, r2, r3
 634 000c 443092E5 		ldr	r3, [r2, #68]
 635 0010 403082E5 		str	r3, [r2, #64]
 478:Serial.cpp    **** 
 479:Serial.cpp    **** }
 636              		.loc 1 479 0
 637 0014 1EFF2FE1 		bx	lr
 638              	.L48:
 639              		.align	2
 640              	.L47:
 641 0018 00000000 		.word	.LANCHOR1
 642              	.LFE13:
 643              		.size	_Z11SerialFlushh, .-_Z11SerialFlushh
 644              		.section	.text._Z14SerialBusyReadh,"ax",%progbits
 645              		.align	2
 646              		.global	_Z14SerialBusyReadh
 647              		.type	_Z14SerialBusyReadh, %function
 648              	_Z14SerialBusyReadh:
 649              	.LFB14:
 480:Serial.cpp    **** 
 481:Serial.cpp    **** //*****************************************
 482:Serial.cpp    **** //* Reads character from Serial Port 
 483:Serial.cpp    **** //* Waits in a busy loop until a character is read. 
 484:Serial.cpp    **** int SerialBusyRead(uint8_t portNum) {
 650              		.loc 1 484 0
 651              		@ Function supports interworking.
 652              		@ args = 0, pretend = 0, frame = 0
ARM GAS  /cygdrive/c/Users/Chris/AppData/Local/Temp/ccTUaxdK.s 			page 21


 653              		@ frame_needed = 0, uses_anonymous_args = 0
 654              		@ link register save eliminated.
 655              	.LVL49:
 485:Serial.cpp    **** 
 486:Serial.cpp    ****    while (!(uartReg[portNum]->LSR & 0x01));
 656              		.loc 1 486 0
 657 0000 14309FE5 		ldr	r3, .L52
 658 0004 000193E7 		ldr	r0, [r3, r0, asl #2]
 659              	.LVL50:
 660              	.L50:
 661 0008 143090E5 		ldr	r3, [r0, #20]
 662 000c 010013E3 		tst	r3, #1
 663 0010 FCFFFF0A 		beq	.L50
 487:Serial.cpp    ****    return(uartReg[portNum]->R1.RBR);
 664              		.loc 1 487 0
 665 0014 000090E5 		ldr	r0, [r0, #0]
 488:Serial.cpp    **** 
 489:Serial.cpp    **** }
 666              		.loc 1 489 0
 667 0018 1EFF2FE1 		bx	lr
 668              	.L53:
 669              		.align	2
 670              	.L52:
 671 001c 00000000 		.word	.LANCHOR0
 672              	.LFE14:
 673              		.size	_Z14SerialBusyReadh, .-_Z14SerialBusyReadh
 674              		.section	.text._Z11SerialBeginhm,"ax",%progbits
 675              		.align	2
 676              		.global	_Z11SerialBeginhm
 677              		.type	_Z11SerialBeginhm, %function
 678              	_Z11SerialBeginhm:
 679              	.LFB8:
 680              		.loc 1 367 0
 681              		@ Function supports interworking.
 682              		@ args = 0, pretend = 0, frame = 8
 683              		@ frame_needed = 0, uses_anonymous_args = 0
 684              	.LVL51:
 685 0000 FF412DE9 		stmfd	sp!, {r0, r1, r2, r3, r4, r5, r6, r7, r8, lr}
 686              	.LCFI4:
 687              	.LVL52:
 688              	.LBB19:
 689              		.loc 1 376 0
 690 0004 34319FE5 		ldr	r3, .L59
 691 0008 030051E1 		cmp	r1, r3
 692              	.LVL53:
 693              		.loc 1 369 0
 694 000c 30319FE5 		ldr	r3, .L59+4
 695 0010 0020E0E3 		mvn	r2, #0
 696              	.LBE19:
 697              		.loc 1 367 0
 698 0014 0080A0E1 		mov	r8, r0
 699              	.LVL54:
 700 0018 01C0A0E1 		mov	ip, r1
 701              	.LBB20:
 702              		.loc 1 369 0
 703 001c C42083E5 		str	r2, [r3, #196]
 704              		.loc 1 376 0
ARM GAS  /cygdrive/c/Users/Chris/AppData/Local/Temp/ccTUaxdK.s 			page 22


 705 0020 20019F95 		ldrls	r0, .L59+8
 706              	.LVL55:
 707 0024 0500009A 		bls	.L56
 708              	.LVL56:
 709              		.loc 1 379 0
 710 0028 1C319FE5 		ldr	r3, .L59+12
 711 002c 1C119FE5 		ldr	r1, .L59+16
 712 0030 1C219FE5 		ldr	r2, .L59+20
 713 0034 03005CE1 		cmp	ip, r3
 714 0038 0200A091 		movls	r0, r2
 715 003c 0100A081 		movhi	r0, r1
 716              	.LVL57:
 717              	.L56:
 718              		.loc 1 391 0
 719 0040 0C10A0E1 		mov	r1, ip
 720 0044 0C308DE2 		add	r3, sp, #12
 721 0048 08C08DE2 		add	ip, sp, #8
 722              	.LVL58:
 723 004c 0120A0E3 		mov	r2, #1
 724 0050 00C08DE5 		str	ip, [sp, #0]
 725 0054 FEFFFFEB 		bl	_Z22findDivisorAndPrescalemmbRmS_
 726              	.LVL59:
 727              		.loc 1 404 0
 728 0058 1830A0E3 		mov	r3, #24
 729 005c 93080CE0 		mul	ip, r3, r8
 730              		.loc 1 398 0
 731 0060 0360A0E3 		mov	r6, #3
 732              		.loc 1 404 0
 733 0064 960804E0 		mul	r4, r6, r8
 734              		.loc 1 395 0
 735 0068 0C209DE5 		ldr	r2, [sp, #12]
 736              	.LVL60:
 737 006c 08309DE5 		ldr	r3, [sp, #8]
 738              	.LVL61:
 739              		.loc 1 394 0
 740 0070 E0709FE5 		ldr	r7, .L59+24
 741              		.loc 1 395 0
 742 0074 023283E1 		orr	r3, r3, r2, asl #4
 743              		.loc 1 394 0
 744 0078 081197E7 		ldr	r1, [r7, r8, asl #2]
 745              		.loc 1 395 0
 746 007c 0338A0E1 		mov	r3, r3, asl #16
 747 0080 2338A0E1 		mov	r3, r3, lsr #16
 748              		.loc 1 394 0
 749 0084 8320A0E3 		mov	r2, #131
 750 0088 0C2081E5 		str	r2, [r1, #12]
 751              		.loc 1 397 0
 752 008c FF5000E2 		and	r5, r0, #255
 753              	.LVL62:
 754              		.loc 1 395 0
 755 0090 B832C1E1 		strh	r3, [r1, #40]	@ movhi
 756              		.loc 1 396 0
 757 0094 2004A0E1 		mov	r0, r0, lsr #8
 758              	.LVL63:
 759              		.loc 1 399 0
 760 0098 0730A0E3 		mov	r3, #7
 761              		.loc 1 396 0
ARM GAS  /cygdrive/c/Users/Chris/AppData/Local/Temp/ccTUaxdK.s 			page 23


 762 009c 040081E5 		str	r0, [r1, #4]
 763              		.loc 1 397 0
 764 00a0 005081E5 		str	r5, [r1, #0]
 765              		.loc 1 398 0
 766 00a4 0C6081E5 		str	r6, [r1, #12]
 767              		.loc 1 399 0
 768 00a8 083081E5 		str	r3, [r1, #8]
 769              		.loc 1 404 0
 770 00ac A8309FE5 		ldr	r3, .L59+28
 771 00b0 0C5093E7 		ldr	r5, [r3, ip]
 772 00b4 0C2093E7 		ldr	r2, [r3, ip]
 773 00b8 014084E2 		add	r4, r4, #1
 774 00bc 002092E5 		ldr	r2, [r2, #0]
 775 00c0 0CC083E0 		add	ip, r3, ip
 776 00c4 841193E7 		ldr	r1, [r3, r4, asl #3]
 777 00c8 04009CE5 		ldr	r0, [ip, #4]
 778 00cc 0120C2E1 		bic	r2, r2, r1
 779 00d0 002082E1 		orr	r2, r2, r0
 780 00d4 002085E5 		str	r2, [r5, #0]
 781              		.loc 1 407 0
 782 00d8 843183E0 		add	r3, r3, r4, asl #3
 783 00dc 040093E5 		ldr	r0, [r3, #4]
 784 00e0 043093E5 		ldr	r3, [r3, #4]
 785 00e4 003093E5 		ldr	r3, [r3, #0]
 786 00e8 14209CE5 		ldr	r2, [ip, #20]
 787 00ec 10109CE5 		ldr	r1, [ip, #16]
 788 00f0 0230C3E1 		bic	r3, r3, r2
 789 00f4 013083E1 		orr	r3, r3, r1
 790              		.loc 1 412 0
 791 00f8 60209FE5 		ldr	r2, .L59+32
 792              		.loc 1 407 0
 793 00fc 003080E5 		str	r3, [r0, #0]
 794              		.loc 1 412 0
 795 0100 883182E0 		add	r3, r2, r8, asl #3
 796 0104 0400D3E5 		ldrb	r0, [r3, #4]	@ zero_extendqisi2
 797 0108 881192E7 		ldr	r1, [r2, r8, asl #3]
 798 010c 0520D3E5 		ldrb	r2, [r3, #5]	@ zero_extendqisi2
 799 0110 FEFFFFEB 		bl	_Z11install_irqmPvm
 800              		.loc 1 416 0
 801 0114 082197E7 		ldr	r2, [r7, r8, asl #2]
 802 0118 043092E5 		ldr	r3, [r2, #4]
 803 011c 013083E3 		orr	r3, r3, #1
 804 0120 043082E5 		str	r3, [r2, #4]
 805              		.loc 1 417 0
 806 0124 043092E5 		ldr	r3, [r2, #4]
 807 0128 023083E3 		orr	r3, r3, #2
 808 012c 043082E5 		str	r3, [r2, #4]
 809              		.loc 1 420 0
 810 0130 0800A0E1 		mov	r0, r8
 811 0134 FEFFFFEB 		bl	_Z11SerialFlushh
 812              	.LBE20:
 813              		.loc 1 422 0
 814 0138 FF41BDE8 		ldmfd	sp!, {r0, r1, r2, r3, r4, r5, r6, r7, r8, lr}
 815 013c 1EFF2FE1 		bx	lr
 816              	.L60:
 817              		.align	2
 818              	.L59:
ARM GAS  /cygdrive/c/Users/Chris/AppData/Local/Temp/ccTUaxdK.s 			page 24


 819 0140 A24A0400 		.word	281250
 820 0144 00C01FE0 		.word	-534790144
 821 0148 80A81201 		.word	18000000
 822 014c 44950800 		.word	562500
 823 0150 00A24A04 		.word	72000000
 824 0154 00512502 		.word	36000000
 825 0158 00000000 		.word	.LANCHOR0
 826 015c 00000000 		.word	.LANCHOR2
 827 0160 00000000 		.word	.LANCHOR3
 828              	.LFE8:
 829              		.size	_Z11SerialBeginhm, .-_Z11SerialBeginhm
 830              		.global	uartData
 831              		.global	uartInts
 832              		.global	uartPins
 833              		.global	uartReg
 834              		.section	.data.uartPins,"aw",%progbits
 835              		.align	2
 836              		.set	.LANCHOR2,. + 0
 837              		.type	uartPins, %object
 838              		.size	uartPins, 96
 839              	uartPins:
 840 0000 00C002E0 		.word	-536690688
 841 0004 10000000 		.word	16
 842 0008 30000000 		.word	48
 843 000c 00C002E0 		.word	-536690688
 844 0010 40000000 		.word	64
 845 0014 C0000000 		.word	192
 846 0018 00C002E0 		.word	-536690688
 847 001c 00000040 		.word	1073741824
 848 0020 000000C0 		.word	-1073741824
 849 0024 04C002E0 		.word	-536690684
 850 0028 01000000 		.word	1
 851 002c 03000000 		.word	3
 852 0030 00C002E0 		.word	-536690688
 853 0034 00001000 		.word	1048576
 854 0038 00003000 		.word	3145728
 855 003c 00C002E0 		.word	-536690688
 856 0040 00004000 		.word	4194304
 857 0044 0000C000 		.word	12582912
 858 0048 00C002E0 		.word	-536690688
 859 004c 02000000 		.word	2
 860 0050 03000000 		.word	3
 861 0054 00C002E0 		.word	-536690688
 862 0058 08000000 		.word	8
 863 005c 08000000 		.word	8
 864              		.section	.data.uartReg,"aw",%progbits
 865              		.align	2
 866              		.set	.LANCHOR0,. + 0
 867              		.type	uartReg, %object
 868              		.size	uartReg, 16
 869              	uartReg:
 870 0000 00C000E0 		.word	-536821760
 871 0004 000001E0 		.word	-536805376
 872 0008 008007E0 		.word	-536379392
 873 000c 00C007E0 		.word	-536363008
 874              		.section	.bss.uartData,"aw",%nobits
 875              		.align	2
ARM GAS  /cygdrive/c/Users/Chris/AppData/Local/Temp/ccTUaxdK.s 			page 25


 876              		.set	.LANCHOR1,. + 0
 877              		.type	uartData, %object
 878              		.size	uartData, 320
 879              	uartData:
 880 0000 00000000 		.space	320
 880      00000000 
 880      00000000 
 880      00000000 
 880      00000000 
 881              		.section	.data.uartInts,"aw",%progbits
 882              		.align	2
 883              		.set	.LANCHOR3,. + 0
 884              		.type	uartInts, %object
 885              		.size	uartInts, 32
 886              	uartInts:
 887 0000 00000000 		.word	_Z10Serial0ISRv
 888 0004 06       		.byte	6
 889 0005 01       		.byte	1
 890 0006 0000     		.space	2
 891 0008 00000000 		.word	_Z10Serial1ISRv
 892 000c 07       		.byte	7
 893 000d 01       		.byte	1
 894 000e 0000     		.space	2
 895 0010 00000000 		.word	_Z10Serial2ISRv
 896 0014 1C       		.byte	28
 897 0015 01       		.byte	1
 898 0016 0000     		.space	2
 899 0018 00000000 		.word	_Z10Serial3ISRv
 900 001c 1D       		.byte	29
 901 001d 01       		.byte	1
 902 001e 0000     		.space	2
 903              		.section	.debug_frame,"",%progbits
 904              	.Lframe0:
 905 0000 0C000000 		.4byte	.LECIE0-.LSCIE0
 906              	.LSCIE0:
 907 0004 FFFFFFFF 		.4byte	0xffffffff
 908 0008 01       		.byte	0x1
 909 0009 00       		.ascii	"\000"
 910 000a 01       		.uleb128 0x1
 911 000b 7C       		.sleb128 -4
 912 000c 0E       		.byte	0xe
 913 000d 0C       		.byte	0xc
 914 000e 0D       		.uleb128 0xd
 915 000f 00       		.uleb128 0x0
 916              		.align	2
 917              	.LECIE0:
 918              	.LSFDE0:
 919 0010 18000000 		.4byte	.LEFDE0-.LASFDE0
 920              	.LASFDE0:
 921 0014 00000000 		.4byte	.Lframe0
 922 0018 00000000 		.4byte	.LFB2
 923 001c D8000000 		.4byte	.LFE2-.LFB2
 924 0020 44       		.byte	0x4
 925              		.4byte	.LCFI0-.LFB2
 926 0021 0E       		.byte	0xe
 927 0022 10       		.uleb128 0x10
 928 0023 84       		.byte	0x84
ARM GAS  /cygdrive/c/Users/Chris/AppData/Local/Temp/ccTUaxdK.s 			page 26


 929 0024 01       		.uleb128 0x1
 930 0025 82       		.byte	0x82
 931 0026 02       		.uleb128 0x2
 932 0027 81       		.byte	0x81
 933 0028 03       		.uleb128 0x3
 934 0029 80       		.byte	0x80
 935 002a 04       		.uleb128 0x4
 936 002b 00       		.align	2
 937              	.LEFDE0:
 938              	.LSFDE2:
 939 002c 0C000000 		.4byte	.LEFDE2-.LASFDE2
 940              	.LASFDE2:
 941 0030 00000000 		.4byte	.Lframe0
 942 0034 00000000 		.4byte	.LFB3
 943 0038 30000000 		.4byte	.LFE3-.LFB3
 944              		.align	2
 945              	.LEFDE2:
 946              	.LSFDE4:
 947 003c 0C000000 		.4byte	.LEFDE4-.LASFDE4
 948              	.LASFDE4:
 949 0040 00000000 		.4byte	.Lframe0
 950 0044 00000000 		.4byte	.LFB4
 951 0048 30000000 		.4byte	.LFE4-.LFB4
 952              		.align	2
 953              	.LEFDE4:
 954              	.LSFDE6:
 955 004c 0C000000 		.4byte	.LEFDE6-.LASFDE6
 956              	.LASFDE6:
 957 0050 00000000 		.4byte	.Lframe0
 958 0054 00000000 		.4byte	.LFB5
 959 0058 30000000 		.4byte	.LFE5-.LFB5
 960              		.align	2
 961              	.LEFDE6:
 962              	.LSFDE8:
 963 005c 0C000000 		.4byte	.LEFDE8-.LASFDE8
 964              	.LASFDE8:
 965 0060 00000000 		.4byte	.Lframe0
 966 0064 00000000 		.4byte	.LFB6
 967 0068 30000000 		.4byte	.LFE6-.LFB6
 968              		.align	2
 969              	.LEFDE8:
 970              	.LSFDE10:
 971 006c 24000000 		.4byte	.LEFDE10-.LASFDE10
 972              	.LASFDE10:
 973 0070 00000000 		.4byte	.Lframe0
 974 0074 00000000 		.4byte	.LFB7
 975 0078 60010000 		.4byte	.LFE7-.LFB7
 976 007c 44       		.byte	0x4
 977              		.4byte	.LCFI1-.LFB7
 978 007d 0E       		.byte	0xe
 979 007e 24       		.uleb128 0x24
 980 007f 8E       		.byte	0x8e
 981 0080 01       		.uleb128 0x1
 982 0081 8B       		.byte	0x8b
 983 0082 02       		.uleb128 0x2
 984 0083 8A       		.byte	0x8a
 985 0084 03       		.uleb128 0x3
ARM GAS  /cygdrive/c/Users/Chris/AppData/Local/Temp/ccTUaxdK.s 			page 27


 986 0085 89       		.byte	0x89
 987 0086 04       		.uleb128 0x4
 988 0087 88       		.byte	0x88
 989 0088 05       		.uleb128 0x5
 990 0089 87       		.byte	0x87
 991 008a 06       		.uleb128 0x6
 992 008b 86       		.byte	0x86
 993 008c 07       		.uleb128 0x7
 994 008d 85       		.byte	0x85
 995 008e 08       		.uleb128 0x8
 996 008f 84       		.byte	0x84
 997 0090 09       		.uleb128 0x9
 998 0091 48       		.byte	0x4
 999              		.4byte	.LCFI2-.LCFI1
 1000 0092 0E       		.byte	0xe
 1001 0093 40       		.uleb128 0x40
 1002              		.align	2
 1003              	.LEFDE10:
 1004              	.LSFDE12:
 1005 0094 0C000000 		.4byte	.LEFDE12-.LASFDE12
 1006              	.LASFDE12:
 1007 0098 00000000 		.4byte	.Lframe0
 1008 009c 00000000 		.4byte	.LFB9
 1009 00a0 24000000 		.4byte	.LFE9-.LFB9
 1010              		.align	2
 1011              	.LEFDE12:
 1012              	.LSFDE14:
 1013 00a4 0C000000 		.4byte	.LEFDE14-.LASFDE14
 1014              	.LASFDE14:
 1015 00a8 00000000 		.4byte	.Lframe0
 1016 00ac 00000000 		.4byte	.LFB10
 1017 00b0 28000000 		.4byte	.LFE10-.LFB10
 1018              		.align	2
 1019              	.LEFDE14:
 1020              	.LSFDE16:
 1021 00b4 18000000 		.4byte	.LEFDE16-.LASFDE16
 1022              	.LASFDE16:
 1023 00b8 00000000 		.4byte	.Lframe0
 1024 00bc 00000000 		.4byte	.LFB11
 1025 00c0 34000000 		.4byte	.LFE11-.LFB11
 1026 00c4 44       		.byte	0x4
 1027              		.4byte	.LCFI3-.LFB11
 1028 00c5 0E       		.byte	0xe
 1029 00c6 10       		.uleb128 0x10
 1030 00c7 8E       		.byte	0x8e
 1031 00c8 01       		.uleb128 0x1
 1032 00c9 86       		.byte	0x86
 1033 00ca 02       		.uleb128 0x2
 1034 00cb 85       		.byte	0x85
 1035 00cc 03       		.uleb128 0x3
 1036 00cd 84       		.byte	0x84
 1037 00ce 04       		.uleb128 0x4
 1038 00cf 00       		.align	2
 1039              	.LEFDE16:
 1040              	.LSFDE18:
 1041 00d0 0C000000 		.4byte	.LEFDE18-.LASFDE18
 1042              	.LASFDE18:
ARM GAS  /cygdrive/c/Users/Chris/AppData/Local/Temp/ccTUaxdK.s 			page 28


 1043 00d4 00000000 		.4byte	.Lframe0
 1044 00d8 00000000 		.4byte	.LFB12
 1045 00dc 48000000 		.4byte	.LFE12-.LFB12
 1046              		.align	2
 1047              	.LEFDE18:
 1048              	.LSFDE20:
 1049 00e0 0C000000 		.4byte	.LEFDE20-.LASFDE20
 1050              	.LASFDE20:
 1051 00e4 00000000 		.4byte	.Lframe0
 1052 00e8 00000000 		.4byte	.LFB13
 1053 00ec 1C000000 		.4byte	.LFE13-.LFB13
 1054              		.align	2
 1055              	.LEFDE20:
 1056              	.LSFDE22:
 1057 00f0 0C000000 		.4byte	.LEFDE22-.LASFDE22
 1058              	.LASFDE22:
 1059 00f4 00000000 		.4byte	.Lframe0
 1060 00f8 00000000 		.4byte	.LFB14
 1061 00fc 20000000 		.4byte	.LFE14-.LFB14
 1062              		.align	2
 1063              	.LEFDE22:
 1064              	.LSFDE24:
 1065 0100 24000000 		.4byte	.LEFDE24-.LASFDE24
 1066              	.LASFDE24:
 1067 0104 00000000 		.4byte	.Lframe0
 1068 0108 00000000 		.4byte	.LFB8
 1069 010c 64010000 		.4byte	.LFE8-.LFB8
 1070 0110 44       		.byte	0x4
 1071              		.4byte	.LCFI4-.LFB8
 1072 0111 0E       		.byte	0xe
 1073 0112 28       		.uleb128 0x28
 1074 0113 8E       		.byte	0x8e
 1075 0114 01       		.uleb128 0x1
 1076 0115 88       		.byte	0x88
 1077 0116 02       		.uleb128 0x2
 1078 0117 87       		.byte	0x87
 1079 0118 03       		.uleb128 0x3
 1080 0119 86       		.byte	0x86
 1081 011a 04       		.uleb128 0x4
 1082 011b 85       		.byte	0x85
 1083 011c 05       		.uleb128 0x5
 1084 011d 84       		.byte	0x84
 1085 011e 06       		.uleb128 0x6
 1086 011f 83       		.byte	0x83
 1087 0120 07       		.uleb128 0x7
 1088 0121 82       		.byte	0x82
 1089 0122 08       		.uleb128 0x8
 1090 0123 81       		.byte	0x81
 1091 0124 09       		.uleb128 0x9
 1092 0125 80       		.byte	0x80
 1093 0126 0A       		.uleb128 0xa
 1094 0127 00       		.align	2
 1095              	.LEFDE24:
 1096              		.text
 1097              	.Letext0: