ARM GAS  /cygdrive/c/Users/Chris/AppData/Local/Temp/ccTUaxdK.s 			page 1


   1              		.cpu arm7tdmi
   2              		.fpu softvfp
   3              		.eabi_attribute 20, 1
   4              		.eabi_attribute 21, 1
   5              		.eabi_attribute 23, 3
   6              		.eabi_attribute 24, 1
   7              		.eabi_attribute 25, 1
   8              		.eabi_attribute 26, 1
   9              		.eabi_attribute 30, 4
  10              		.eabi_attribute 18, 4
  11              		.file	"Serial.cpp"
  12              		.section	.debug_abbrev,"",%progbits
  13              	.Ldebug_abbrev0:
  14              		.section	.debug_info,"",%progbits
  15              	.Ldebug_info0:
  16              		.section	.debug_line,"",%progbits
  17              	.Ldebug_line0:
  18 0000 27020000 		.text
  18      0200A800 
  18      00000201 
  18      FB0E0D00 
  18      01010101 
  19              	.Ltext0:
  20              		.section	.text._Z9SerialISRh,"ax",%progbits
  21              		.align	2
  22              		.global	_Z9SerialISRh
  23              		.type	_Z9SerialISRh, %function
  24              	_Z9SerialISRh:
  25              	.LFB2:
  26              		.file 1 "Serial.cpp"
   1:Serial.cpp    **** /******************************************************************************/
   2:Serial.cpp    **** /* SERIAL.C: Low Level Serial Routines                                        */
   3:Serial.cpp    **** /******************************************************************************/
   4:Serial.cpp    **** /* This file is part of the uVision/ARM development tools.                    */
   5:Serial.cpp    **** /* Copyright (c) 2005-2006 Keil Software. All rights reserved.                */
   6:Serial.cpp    **** /* This software may only be used under the terms of a valid, current,        */
   7:Serial.cpp    **** /* end user licence from KEIL for a compatible version of KEIL software       */
   8:Serial.cpp    **** /* development tools. Nothing else gives you the right to use this software.  */
   9:Serial.cpp    **** /******************************************************************************/
  10:Serial.cpp    **** 
  11:Serial.cpp    **** #include <stdlib.h>
  12:Serial.cpp    **** #include <stdint.h>
  13:Serial.cpp    **** #include <LPC23xx.H>                     /* LPC23xx definitions               */
  14:Serial.cpp    **** #include "Serial.h"
  15:Serial.cpp    **** #include "types.h"
  16:Serial.cpp    **** #include "armVIC.h"
  17:Serial.cpp    **** #include "irq.h"
  18:Serial.cpp    **** #include "sys_config.h"
  19:Serial.cpp    **** 
  20:Serial.cpp    **** //**************************************
  21:Serial.cpp    **** //* TYPES
  22:Serial.cpp    **** //**************************************
  23:Serial.cpp    **** 
  24:Serial.cpp    **** /* The names for our UARTs */
  25:Serial.cpp    **** typedef enum {
  26:Serial.cpp    ****    UART0,
  27:Serial.cpp    ****    UART1,
ARM GAS  /cygdrive/c/Users/Chris/AppData/Local/Temp/ccTUaxdK.s 			page 2


  28:Serial.cpp    ****    UART2,
  29:Serial.cpp    ****    UART3,
  30:Serial.cpp    ****    NUM_UARTS
  31:Serial.cpp    **** } UART_NAME_T;
  32:Serial.cpp    **** 
  33:Serial.cpp    **** /* UART Register Description */
  34:Serial.cpp    **** typedef struct {
  35:Serial.cpp    **** 
  36:Serial.cpp    ****    union {
  37:Serial.cpp    ****       vuint32_t RBR; 
  38:Serial.cpp    ****       vuint32_t DLL;
  39:Serial.cpp    ****       vuint32_t THR;
  40:Serial.cpp    ****    } R1;
  41:Serial.cpp    **** 
  42:Serial.cpp    ****    union {
  43:Serial.cpp    ****       vuint32_t DLM;
  44:Serial.cpp    ****       vuint32_t R;
  45:Serial.cpp    ****       struct {
  46:Serial.cpp    ****          vuint32_t RBR    :1;
  47:Serial.cpp    ****          vuint32_t THRE   :1;
  48:Serial.cpp    ****          vuint32_t RLS    :1;
  49:Serial.cpp    ****          vuint32_t Spare2 :29;
  50:Serial.cpp    ****       }IER;
  51:Serial.cpp    ****    } R2;
  52:Serial.cpp    **** 
  53:Serial.cpp    ****    union {
  54:Serial.cpp    ****       vuint32_t IIR;
  55:Serial.cpp    ****       vuint32_t FCR;
  56:Serial.cpp    ****    } R3;
  57:Serial.cpp    **** 
  58:Serial.cpp    ****    vuint32_t LCR;
  59:Serial.cpp    ****    vuint32_t MCR;
  60:Serial.cpp    ****    vuint32_t LSR;
  61:Serial.cpp    ****    vuint32_t MSR;
  62:Serial.cpp    ****    vuint32_t SCR;
  63:Serial.cpp    ****    vuint64_t ACR;
  64:Serial.cpp    ****    vuint16_t FDR;
  65:Serial.cpp    **** } UART_REG_T;
  66:Serial.cpp    **** 
  67:Serial.cpp    **** /* UART Pins Description */
  68:Serial.cpp    **** typedef struct {
  69:Serial.cpp    ****    /* TX */
  70:Serial.cpp    ****       vuint32_t *TxSelReg;
  71:Serial.cpp    ****       uint32_t   TxSelValue;
  72:Serial.cpp    ****       uint32_t   TxMask;
  73:Serial.cpp    ****    /* RX */
  74:Serial.cpp    ****       vuint32_t *RxSelReg;
  75:Serial.cpp    ****       uint32_t   RxSelValue;
  76:Serial.cpp    ****       uint32_t   RxMask;
  77:Serial.cpp    **** } UART_PIN_T;
  78:Serial.cpp    **** 
  79:Serial.cpp    **** 
  80:Serial.cpp    **** /* UART interrupt Description */
  81:Serial.cpp    **** typedef struct {
  82:Serial.cpp    ****    uint32_t *  IntFunc;
  83:Serial.cpp    ****    uint8_t     IntNumber;
  84:Serial.cpp    ****    uint8_t     Priority;
ARM GAS  /cygdrive/c/Users/Chris/AppData/Local/Temp/ccTUaxdK.s 			page 3


  85:Serial.cpp    **** } INT_DESC_T;
  86:Serial.cpp    **** 
  87:Serial.cpp    **** /* High-level UART structure */
  88:Serial.cpp    **** typedef struct {
  89:Serial.cpp    **** 	vuint8_t RxBuffer[UART_BUFFSIZE];
  90:Serial.cpp    **** 	vuint32_t RxHead;
  91:Serial.cpp    **** 	vuint32_t RxTail;
  92:Serial.cpp    **** 	vuint32_t Status;
  93:Serial.cpp    **** 	vuint16_t TxEmpy;
  94:Serial.cpp    **** } vUART_T;
  95:Serial.cpp    **** 
  96:Serial.cpp    **** //**************************************
  97:Serial.cpp    **** //* LOCAL FUNCTION PROTOTYPES
  98:Serial.cpp    **** //**************************************
  99:Serial.cpp    **** 
 100:Serial.cpp    **** void SerialISR(void);
 101:Serial.cpp    **** void Serial0ISR(void) __attribute__((naked));
 102:Serial.cpp    **** void Serial1ISR(void) __attribute__((naked));
 103:Serial.cpp    **** void Serial2ISR(void) __attribute__((naked));
 104:Serial.cpp    **** void Serial3ISR(void) __attribute__((naked));
 105:Serial.cpp    **** 
 106:Serial.cpp    **** 
 107:Serial.cpp    **** //**************************************
 108:Serial.cpp    **** //* LOCAL VARIABLES
 109:Serial.cpp    **** //**************************************
 110:Serial.cpp    **** 
 111:Serial.cpp    **** /* The quad UART High-level data */
 112:Serial.cpp    **** volatile vUART_T uartData[NUM_UARTS];
 113:Serial.cpp    **** 
 114:Serial.cpp    **** 
 115:Serial.cpp    **** /* The quad UART Interrupts */
 116:Serial.cpp    **** volatile INT_DESC_T uartInts[NUM_UARTS] = {
 117:Serial.cpp    ****                                  {
 118:Serial.cpp    ****                                    /* IntFunc   */ (uint32_t *)Serial0ISR,
 119:Serial.cpp    ****                                    /* IntNumber */ UART0_INT,
 120:Serial.cpp    ****                                    /* Priority  */ HIGHEST_PRIORITY,
 121:Serial.cpp    ****                                  },
 122:Serial.cpp    ****                                  {
 123:Serial.cpp    ****                                    /* IntFunc   */ (uint32_t *)Serial1ISR,
 124:Serial.cpp    ****                                    /* IntNumber */ UART1_INT,
 125:Serial.cpp    ****                                    /* Priority  */ HIGHEST_PRIORITY,
 126:Serial.cpp    ****                                  },
 127:Serial.cpp    ****                                  {
 128:Serial.cpp    ****                                    /* IntFunc   */ (uint32_t *)Serial2ISR,
 129:Serial.cpp    ****                                    /* IntNumber */ UART2_INT,
 130:Serial.cpp    ****                                    /* Priority  */ HIGHEST_PRIORITY,
 131:Serial.cpp    ****                                  },
 132:Serial.cpp    ****                                  {
 133:Serial.cpp    ****                                    /* IntFunc   */ (uint32_t *)Serial3ISR,
 134:Serial.cpp    ****                                    /* IntNumber */ UART3_INT,
 135:Serial.cpp    ****                                    /* Priority  */ HIGHEST_PRIORITY,
 136:Serial.cpp    ****                                  },
 137:Serial.cpp    **** 
 138:Serial.cpp    **** };
 139:Serial.cpp    **** 
 140:Serial.cpp    **** 
 141:Serial.cpp    **** /* The quad UART pins */
ARM GAS  /cygdrive/c/Users/Chris/AppData/Local/Temp/ccTUaxdK.s 			page 4


 142:Serial.cpp    **** volatile UART_PIN_T uartPins[NUM_UARTS] = {
 143:Serial.cpp    ****                           {          
 144:Serial.cpp    ****                                       /* TxSelReg    */ (vuint32_t *)PINSEL_BASE_ADDR,
 145:Serial.cpp    ****                                       /* TxSelValue  */ (1UL<<4),
 146:Serial.cpp    ****                                       /* TxMask      */ (3UL<<4),
 147:Serial.cpp    ****                                       /* RxSelReg    */ (vuint32_t *)PINSEL_BASE_ADDR,
 148:Serial.cpp    ****                                       /* RxSelValue  */ (1UL<<6),
 149:Serial.cpp    ****                                       /* RxMask      */ (3UL<<6), 
 150:Serial.cpp    ****                           },
 151:Serial.cpp    ****                           {          
 152:Serial.cpp    ****                                       /* TxSelReg    */ (vuint32_t *)PINSEL_BASE_ADDR,
 153:Serial.cpp    ****                                       /* TxSelValue  */ (1UL<<30),
 154:Serial.cpp    ****                                       /* TxMask      */ (3UL<<30),
 155:Serial.cpp    ****                                       /* RxSelReg    */ (vuint32_t *)(PINSEL_BASE_ADDR + 0x04),
 156:Serial.cpp    ****                                       /* RxSelValue  */ (1UL<<0),
 157:Serial.cpp    ****                                       /* RxMask      */ (3UL<<0), 
 158:Serial.cpp    ****                           },
 159:Serial.cpp    ****                           {          
 160:Serial.cpp    ****                                       /* TxSelReg    */ (vuint32_t *)PINSEL_BASE_ADDR,
 161:Serial.cpp    ****                                       /* TxSelValue  */ (1UL<<20),
 162:Serial.cpp    ****                                       /* TxMask      */ (3UL<<20),
 163:Serial.cpp    ****                                       /* RxSelReg    */ (vuint32_t *)PINSEL_BASE_ADDR,
 164:Serial.cpp    ****                                       /* RxSelValue  */ (1UL<<22),
 165:Serial.cpp    ****                                       /* RxMask      */ (3UL<<22), 
 166:Serial.cpp    ****                           },
 167:Serial.cpp    ****                           {          
 168:Serial.cpp    ****                                       /* TxSelReg    */ (vuint32_t *)PINSEL_BASE_ADDR,
 169:Serial.cpp    ****                                       /* TxSelValue  */ (2UL<<0),
 170:Serial.cpp    ****                                       /* TxMask      */ (3UL<<0),
 171:Serial.cpp    ****                                       /* RxSelReg    */ (vuint32_t *)PINSEL_BASE_ADDR,
 172:Serial.cpp    ****                                       /* RxSelValue  */ (2UL<<2),
 173:Serial.cpp    ****                                       /* RxMask      */ (2UL<<2), 
 174:Serial.cpp    ****                           }
 175:Serial.cpp    **** };
 176:Serial.cpp    **** 
 177:Serial.cpp    **** /* The quad UART registers */
 178:Serial.cpp    **** volatile UART_REG_T *uartReg[NUM_UARTS] = {
 179:Serial.cpp    ****                                              (volatile UART_REG_T*)UART0_BASE_ADDR,
 180:Serial.cpp    ****                                              (volatile UART_REG_T*)UART1_BASE_ADDR,
 181:Serial.cpp    ****                                              (volatile UART_REG_T*)UART2_BASE_ADDR,
 182:Serial.cpp    ****                                              (volatile UART_REG_T*)UART3_BASE_ADDR,
 183:Serial.cpp    ****                                            };
 184:Serial.cpp    **** 
 185:Serial.cpp    **** //**************************************
 186:Serial.cpp    **** //* LOCAL FUNCTIONS
 187:Serial.cpp    **** //**************************************
 188:Serial.cpp    **** 
 189:Serial.cpp    **** //***************************************
 190:Serial.cpp    **** //* The Serial Interrupt Service routine
 191:Serial.cpp    **** //* used for all 4 uarts.                     
 192:Serial.cpp    **** void SerialISR(uint8_t portNum) {
  27              		.loc 1 192 0
  28              		@ Function supports interworking.
  29              		@ args = 0, pretend = 0, frame = 8
  30              		@ frame_needed = 0, uses_anonymous_args = 0
  31              		@ link register save eliminated.
  32              	.LVL0:
ARM GAS  /cygdrive/c/Users/Chris/AppData/Local/Temp/ccTUaxdK.s 			page 5


  33 0000 17002DE9 		stmfd	sp!, {r0, r1, r2, r4}
  34              	.LCFI0:
  35              	.LVL1:
  36              	.LBB2:
 193:Serial.cpp    ****    BYTE IIRValue;
 194:Serial.cpp    ****    volatile UART_REG_T* uart = uartReg[portNum];
  37              		.loc 1 194 0
  38 0004 C4309FE5 		ldr	r3, .L7
  39 0008 00C193E7 		ldr	ip, [r3, r0, asl #2]
  40              	.LVL2:
 195:Serial.cpp    **** 
 196:Serial.cpp    ****    IIRValue = uart->R3.IIR;
  41              		.loc 1 196 0
  42 000c 08309CE5 		ldr	r3, [ip, #8]
 197:Serial.cpp    ****    IIRValue >>= 1;        /* skip pending bit in IIR */
  43              		.loc 1 197 0
  44 0010 A330A0E1 		mov	r3, r3, lsr #1
 198:Serial.cpp    ****    IIRValue &= 0x07;      /* check bit 1~3, interrupt identification */
  45              		.loc 1 198 0
  46 0014 072003E2 		and	r2, r3, #7
  47              	.LVL3:
 199:Serial.cpp    **** 
 200:Serial.cpp    ****    /* Receive Data Available */
 201:Serial.cpp    ****    if ( IIRValue == IIR_RDA ) {
  48              		.loc 1 201 0
  49 0018 020052E3 		cmp	r2, #2
  50 001c 1300001A 		bne	.L2
  51              	.LBB3:
 202:Serial.cpp    **** 
 203:Serial.cpp    ****       vuint32_t index;
 204:Serial.cpp    ****       vuint32_t *head;
 205:Serial.cpp    **** 
 206:Serial.cpp    ****       head = &uartData[portNum].RxHead;
 207:Serial.cpp    ****       index = (*head + 1) % UART_BUFFSIZE;
  52              		.loc 1 207 0
  53 0020 5030A0E3 		mov	r3, #80
  54 0024 930004E0 		mul	r4, r3, r0
  55 0028 A4009FE5 		ldr	r0, .L7+4
  56              	.LVL4:
  57 002c 041080E0 		add	r1, r0, r4
  58 0030 403091E5 		ldr	r3, [r1, #64]
  59 0034 013083E2 		add	r3, r3, #1
  60 0038 3F3003E2 		and	r3, r3, #63
  61              	.LVL5:
  62 003c 04308DE5 		str	r3, [sp, #4]
 208:Serial.cpp    **** 
 209:Serial.cpp    ****       if (index != uartData[portNum].RxTail) {
  63              		.loc 1 209 0
  64 0040 04209DE5 		ldr	r2, [sp, #4]
  65              	.LVL6:
  66 0044 443091E5 		ldr	r3, [r1, #68]
  67              	.LVL7:
  68 0048 030052E1 		cmp	r2, r3
  69 004c 1D00000A 		beq	.L6
 210:Serial.cpp    **** 
 211:Serial.cpp    ****          /* Store the received character into the buffer */
 212:Serial.cpp    ****          uartData[portNum].RxBuffer[*head] = uart->R1.RBR;
ARM GAS  /cygdrive/c/Users/Chris/AppData/Local/Temp/ccTUaxdK.s 			page 6


  70              		.loc 1 212 0
  71 0050 403091E5 		ldr	r3, [r1, #64]
  72 0054 00209CE5 		ldr	r2, [ip, #0]
  73 0058 033084E0 		add	r3, r4, r3
  74 005c FF2002E2 		and	r2, r2, #255
  75 0060 0320C0E7 		strb	r2, [r0, r3]
 213:Serial.cpp    ****          *head = index;
  76              		.loc 1 213 0
  77 0064 04309DE5 		ldr	r3, [sp, #4]
  78 0068 403081E5 		str	r3, [r1, #64]
  79 006c 150000EA 		b	.L6
  80              	.LVL8:
  81              	.L2:
  82              	.LBE3:
 214:Serial.cpp    **** 
 215:Serial.cpp    ****       }
 216:Serial.cpp    ****    }
 217:Serial.cpp    ****    else if ( IIRValue == IIR_CTI ) { /* Character timeout indicator */
  83              		.loc 1 217 0
  84 0070 060052E3 		cmp	r2, #6
  85 0074 0600001A 		bne	.L4
 218:Serial.cpp    **** 
 219:Serial.cpp    ****       /* Character Time-out indicator */
 220:Serial.cpp    ****       uartData[portNum].Status |= 0x100;     /* Bit 9 as the CTI error */
  86              		.loc 1 220 0
  87 0078 54309FE5 		ldr	r3, .L7+4
  88 007c 4A2082E2 		add	r2, r2, #74
  89              	.LVL9:
  90 0080 903222E0 		mla	r2, r0, r2, r3
  91 0084 483092E5 		ldr	r3, [r2, #72]
  92 0088 013C83E3 		orr	r3, r3, #256
  93 008c 483082E5 		str	r3, [r2, #72]
  94 0090 0C0000EA 		b	.L6
  95              	.LVL10:
  96              	.L4:
 221:Serial.cpp    **** 
 222:Serial.cpp    ****    }
 223:Serial.cpp    ****    else if ( IIRValue == IIR_THRE ) {   /* THRE, transmit holding register empty */
  97              		.loc 1 223 0
  98 0094 010052E3 		cmp	r2, #1
  99 0098 0A00001A 		bne	.L6
 100              	.LBB4:
 224:Serial.cpp    **** 	  
 225:Serial.cpp    **** 	  BYTE LSRValue;
 226:Serial.cpp    **** 
 227:Serial.cpp    ****       /* THRE interrupt */
 228:Serial.cpp    ****       LSRValue = uart->LSR;   		/* Check status in the LSR to see if
 101              		.loc 1 228 0
 102 009c 14309CE5 		ldr	r3, [ip, #20]
 103 00a0 2CC09FE5 		ldr	ip, .L7+4
 104              	.LVL11:
 229:Serial.cpp    ****                                  		valid data in U0THR or not */
 230:Serial.cpp    ****       if ( LSRValue & LSR_THRE ) {
 105              		.loc 1 230 0
 106 00a4 201013E2 		ands	r1, r3, #32
 231:Serial.cpp    ****          uartData[portNum].TxEmpy = 1;
 107              		.loc 1 231 0
ARM GAS  /cygdrive/c/Users/Chris/AppData/Local/Temp/ccTUaxdK.s 			page 7


 108 00a8 5030A013 		movne	r3, #80
 232:Serial.cpp    ****       }
 233:Serial.cpp    ****       else {
 234:Serial.cpp    ****          uartData[portNum].TxEmpy = 0;
 109              		.loc 1 234 0
 110 00ac 5030A003 		moveq	r3, #80
 111              		.loc 1 231 0
 112 00b0 90C32310 		mlane	r3, r0, r3, ip
 113              		.loc 1 234 0
 114 00b4 90C32300 		mlaeq	r3, r0, r3, ip
 115              		.loc 1 231 0
 116 00b8 48308312 		addne	r3, r3, #72
 117              		.loc 1 234 0
 118 00bc 48308302 		addeq	r3, r3, #72
 119              		.loc 1 231 0
 120 00c0 B420C311 		strneh	r2, [r3, #4]	@ movhi
 121              		.loc 1 234 0
 122 00c4 B410C301 		streqh	r1, [r3, #4]	@ movhi
 123              	.LVL12:
 124              	.L6:
 125              	.LBE4:
 126              	.LBE2:
 235:Serial.cpp    ****       }
 236:Serial.cpp    ****    }
 237:Serial.cpp    **** }
 127              		.loc 1 237 0
 128 00c8 1E00BDE8 		ldmfd	sp!, {r1, r2, r3, r4}
 129 00cc 1EFF2FE1 		bx	lr
 130              	.L8:
 131              		.align	2
 132              	.L7:
 133 00d0 00000000 		.word	.LANCHOR0
 134 00d4 00000000 		.word	.LANCHOR1
 135              	.LFE2:
 136              		.size	_Z9SerialISRh, .-_Z9SerialISRh
 137              		.section	.text._Z10Serial0ISRv,"ax",%progbits
 138              		.align	2
 139              		.global	_Z10Serial0ISRv
 140              		.type	_Z10Serial0ISRv, %function
 141              	_Z10Serial0ISRv:
 142              	.LFB3:
 238:Serial.cpp    **** 
 239:Serial.cpp    **** void Serial0ISR(void) {
 143              		.loc 1 239 0
 144              		@ Function supports interworking.
 145              		@ Naked Function: prologue and epilogue provided by programmer.
 146              		@ args = 0, pretend = 0, frame = 0
 147              		@ frame_needed = 0, uses_anonymous_args = 0
 240:Serial.cpp    ****    
 241:Serial.cpp    ****    /* Perform proper ISR entry so thumb-interwork works properly */
 242:Serial.cpp    ****    ISR_ENTRY();
 148              		.loc 1 242 0
 149              	@ 242 "Serial.cpp" 1
 150 0000 04E04EE2 		 sub   lr, lr,#4
 151 0004 FF5F2DE9 	 stmfd sp!,{r0-r12,lr}
 152 0008 00104FE1 	 mrs   r1, spsr
 153 000c 02002DE9 	 stmfd sp!,{r1}
ARM GAS  /cygdrive/c/Users/Chris/AppData/Local/Temp/ccTUaxdK.s 			page 8


 154              	@ 0 "" 2
 243:Serial.cpp    **** 
 244:Serial.cpp    ****    /* Handle the UART Interrupt */
 245:Serial.cpp    ****    SerialISR(UART0);
 155              		.loc 1 245 0
 156 0010 0000A0E3 		mov	r0, #0
 157 0014 FEFFFFEB 		bl	_Z9SerialISRh
 246:Serial.cpp    **** 
 247:Serial.cpp    ****    /* Clear this interrupt from the VIC */
 248:Serial.cpp    ****    VICVectAddr = 0x00000000;  
 158              		.loc 1 248 0
 159 0018 0020A0E3 		mov	r2, #0
 160 001c 0030E0E3 		mvn	r3, #0
 161 0020 FF2003E5 		str	r2, [r3, #-255]
 249:Serial.cpp    ****    
 250:Serial.cpp    ****    /* Recover registers and return */           
 251:Serial.cpp    ****    ISR_EXIT();                           
 162              		.loc 1 251 0
 163              	@ 251 "Serial.cpp" 1
 164 0024 0200BDE8 		 ldmfd sp!,{r1}
 165 0028 01F061E1 	 msr   spsr_c,r1
 166 002c FF9FFDE8 	 ldmfd sp!,{r0-r12,pc}^
 167              	@ 0 "" 2
 252:Serial.cpp    **** 
 253:Serial.cpp    **** }
 168              		.loc 1 253 0
 169              	.LFE3:
 170              		.size	_Z10Serial0ISRv, .-_Z10Serial0ISRv
 171              		.section	.text._Z10Serial1ISRv,"ax",%progbits
 172              		.align	2
 173              		.global	_Z10Serial1ISRv
 174              		.type	_Z10Serial1ISRv, %function
 175              	_Z10Serial1ISRv:
 176              	.LFB4:
 254:Serial.cpp    **** 
 255:Serial.cpp    **** void Serial1ISR(void) {
 177              		.loc 1 255 0
 178              		@ Function supports interworking.
 179              		@ Naked Function: prologue and epilogue provided by programmer.
 180              		@ args = 0, pretend = 0, frame = 0
 181              		@ frame_needed = 0, uses_anonymous_args = 0
 256:Serial.cpp    ****    
 257:Serial.cpp    ****    /* Perform proper ISR entry so thumb-interwork works properly */
 258:Serial.cpp    ****    ISR_ENTRY();
 182              		.loc 1 258 0
 183              	@ 258 "Serial.cpp" 1
 184 0000 04E04EE2 		 sub   lr, lr,#4
 185 0004 FF5F2DE9 	 stmfd sp!,{r0-r12,lr}
 186 0008 00104FE1 	 mrs   r1, spsr
 187 000c 02002DE9 	 stmfd sp!,{r1}
 188              	@ 0 "" 2
 259:Serial.cpp    **** 
 260:Serial.cpp    ****    /* Handle the UART Interrupt */
 261:Serial.cpp    ****    SerialISR(UART1);
 189              		.loc 1 261 0
 190 0010 0100A0E3 		mov	r0, #1
 191 0014 FEFFFFEB 		bl	_Z9SerialISRh
ARM GAS  /cygdrive/c/Users/Chris/AppData/Local/Temp/ccTUaxdK.s 			page 9


 262:Serial.cpp    **** 
 263:Serial.cpp    ****    /* Clear this interrupt from the VIC */
 264:Serial.cpp    ****    VICVectAddr = 0x00000000;  
 192              		.loc 1 264 0
 193 0018 0020A0E3 		mov	r2, #0
 194 001c 0030E0E3 		mvn	r3, #0
 195 0020 FF2003E5 		str	r2, [r3, #-255]
 265:Serial.cpp    ****    
 266:Serial.cpp    ****    /* Recover registers and return */           
 267:Serial.cpp    ****    ISR_EXIT();   
 196              		.loc 1 267 0
 197              	@ 267 "Serial.cpp" 1
 198 0024 0200BDE8 		 ldmfd sp!,{r1}
 199 0028 01F061E1 	 msr   spsr_c,r1
 200 002c FF9FFDE8 	 ldmfd sp!,{r0-r12,pc}^
 201              	@ 0 "" 2
 268:Serial.cpp    **** 
 269:Serial.cpp    **** }
 202              		.loc 1 269 0
 203              	.LFE4:
 204              		.size	_Z10Serial1ISRv, .-_Z10Serial1ISRv
 205              		.section	.text._Z10Serial2ISRv,"ax",%progbits
 206              		.align	2
 207              		.global	_Z10Serial2ISRv
 208              		.type	_Z10Serial2ISRv, %function
 209              	_Z10Serial2ISRv:
 210              	.LFB5:
 270:Serial.cpp    **** 
 271:Serial.cpp    **** void Serial2ISR(void) {
 211              		.loc 1 271 0
 212              		@ Function supports interworking.
 213              		@ Naked Function: prologue and epilogue provided by programmer.
 214              		@ args = 0, pretend = 0, frame = 0
 215              		@ frame_needed = 0, uses_anonymous_args = 0
 272:Serial.cpp    ****    
 273:Serial.cpp    ****    /* Perform proper ISR entry so thumb-interwork works properly */
 274:Serial.cpp    ****    ISR_ENTRY();
 216              		.loc 1 274 0
 217              	@ 274 "Serial.cpp" 1
 218 0000 04E04EE2 		 sub   lr, lr,#4
 219 0004 FF5F2DE9 	 stmfd sp!,{r0-r12,lr}
 220 0008 00104FE1 	 mrs   r1, spsr
 221 000c 02002DE9 	 stmfd sp!,{r1}
 222              	@ 0 "" 2
 275:Serial.cpp    **** 
 276:Serial.cpp    ****    /* Handle the UART Interrupt */
 277:Serial.cpp    ****    SerialISR(UART2);
 223              		.loc 1 277 0
 224 0010 0200A0E3 		mov	r0, #2
 225 0014 FEFFFFEB 		bl	_Z9SerialISRh
 278:Serial.cpp    **** 
 279:Serial.cpp    ****    /* Clear this interrupt from the VIC */
 280:Serial.cpp    ****    VICVectAddr = 0x00000000;  
 226              		.loc 1 280 0
 227 0018 0020A0E3 		mov	r2, #0
 228 001c 0030E0E3 		mvn	r3, #0
 229 0020 FF2003E5 		str	r2, [r3, #-255]
ARM GAS  /cygdrive/c/Users/Chris/AppData/Local/Temp/ccTUaxdK.s 			page 10


 281:Serial.cpp    ****    
 282:Serial.cpp    ****    /* Recover registers and return */           
 283:Serial.cpp    ****    ISR_EXIT();   
 230              		.loc 1 283 0
 231              	@ 283 "Serial.cpp" 1
 232 0024 0200BDE8 		 ldmfd sp!,{r1}
 233 0028 01F061E1 	 msr   spsr_c,r1
 234 002c FF9FFDE8 	 ldmfd sp!,{r0-r12,pc}^
 235              	@ 0 "" 2
 284:Serial.cpp    **** 
 285:Serial.cpp    **** }
 236              		.loc 1 285 0
 237              	.LFE5:
 238              		.size	_Z10Serial2ISRv, .-_Z10Serial2ISRv
 239              		.section	.text._Z10Serial3ISRv,"ax",%progbits
 240              		.align	2
 241              		.global	_Z10Serial3ISRv
 242              		.type	_Z10Serial3ISRv, %function
 243              	_Z10Serial3ISRv:
 244              	.LFB6:
 286:Serial.cpp    **** 
 287:Serial.cpp    **** void Serial3ISR(void) {
 245              		.loc 1 287 0
 246              		@ Function supports interworking.
 247              		@ Naked Function: prologue and epilogue provided by programmer.
 248              		@ args = 0, pretend = 0, frame = 0
 249              		@ frame_needed = 0, uses_anonymous_args = 0
 288:Serial.cpp    **** 
 289:Serial.cpp    ****    /* Perform proper ISR entry so thumb-interwork works properly */
 290:Serial.cpp    ****    ISR_ENTRY();
 250              		.loc 1 290 0
 251              	@ 290 "Serial.cpp" 1
 252 0000 04E04EE2 		 sub   lr, lr,#4
 253 0004 FF5F2DE9 	 stmfd sp!,{r0-r12,lr}
 254 0008 00104FE1 	 mrs   r1, spsr
 255 000c 02002DE9 	 stmfd sp!,{r1}
 256              	@ 0 "" 2
 291:Serial.cpp    **** 
 292:Serial.cpp    ****    /* Handle the UART Interrupt */
 293:Serial.cpp    ****    SerialISR(UART3);
 257              		.loc 1 293 0
 258 0010 0300A0E3 		mov	r0, #3
 259 0014 FEFFFFEB 		bl	_Z9SerialISRh
 294:Serial.cpp    **** 
 295:Serial.cpp    ****    /* Clear this interrupt from the VIC */
 296:Serial.cpp    ****    VICVectAddr = 0x00000000;  
 260              		.loc 1 296 0
 261 0018 0020A0E3 		mov	r2, #0
 262 001c 0030E0E3 		mvn	r3, #0
 263 0020 FF2003E5 		str	r2, [r3, #-255]
 297:Serial.cpp    ****    
 298:Serial.cpp    ****    /* Recover registers and return */           
 299:Serial.cpp    ****    ISR_EXIT();   
 264              		.loc 1 299 0
 265              	@ 299 "Serial.cpp" 1
 266 0024 0200BDE8 		 ldmfd sp!,{r1}
 267 0028 01F061E1 	 msr   spsr_c,r1
ARM GAS  /cygdrive/c/Users/Chris/AppData/Local/Temp/ccTUaxdK.s 			page 11


 268 002c FF9FFDE8 	 ldmfd sp!,{r0-r12,pc}^
 269              	@ 0 "" 2
 300:Serial.cpp    **** 
 301:Serial.cpp    **** }
 270              		.loc 1 301 0
 271              	.LFE6:
 272              		.size	_Z10Serial3ISRv, .-_Z10Serial3ISRv
 273              		.global	__aeabi_uidiv
 274              		.section	.text._Z22findDivisorAndPrescalemmbRmS_,"ax",%progbits
 275              		.align	2
 276              		.global	_Z22findDivisorAndPrescalemmbRmS_
 277              		.type	_Z22findDivisorAndPrescalemmbRmS_, %function
 278              	_Z22findDivisorAndPrescalemmbRmS_:
 279              	.LFB7:
 302:Serial.cpp    **** 
 303:Serial.cpp    **** //**************************************
 304:Serial.cpp    **** //* GLOBAL FUNCTIONS
 305:Serial.cpp    **** //**************************************
 306:Serial.cpp    **** 
 307:Serial.cpp    **** /* NOTE: This findDivisorAndPrescale is code by
 308:Serial.cpp    ****  *
 309:Serial.cpp    ****  *  "Jan Vanek" <j3vanek@googlemail.com>
 310:Serial.cpp    ****  *
 311:Serial.cpp    ****  * who generously posted it to the LPC2000 mailing list on Thu, 12 Mar 2009.
 312:Serial.cpp    ****  */
 313:Serial.cpp    **** 
 314:Serial.cpp    **** uint32_t findDivisorAndPrescale(uint32_t frequency, uint32_t baudRate, bool allowSmallerBaudRate, u
 280              		.loc 1 314 0
 281              		@ Function supports interworking.
 282              		@ args = 4, pretend = 0, frame = 24
 283              		@ frame_needed = 0, uses_anonymous_args = 0
 284              	.LVL13:
 285 0000 F04F2DE9 		stmfd	sp!, {r4, r5, r6, r7, r8, r9, sl, fp, lr}
 286              	.LCFI1:
 287 0004 01B0A0E1 		mov	fp, r1
 288 0008 1CD04DE2 		sub	sp, sp, #28
 289              	.LCFI2:
 290              	.LBB5:
 315:Serial.cpp    ****   // The FDR is set to prescale the UART_CLK with factor M/(M+D),
 316:Serial.cpp    ****   // where both M and D are in <0, 15>. This is to achieve smaller
 317:Serial.cpp    ****   // error when calculating the divisor (the UnDL).
 318:Serial.cpp    ****   //                UART_CLK      M
 319:Serial.cpp    ****   // UARTbaudrate = --------- x -----
 320:Serial.cpp    ****   //                16 x UnDL   (M+D)
 321:Serial.cpp    **** 
 322:Serial.cpp    ****   uint32_t divisor = frequency / (16 * baudRate);
 291              		.loc 1 322 0
 292 000c 0112A0E1 		mov	r1, r1, asl #4
 293              	.LVL14:
 294              	.LBE5:
 295              		.loc 1 314 0
 296 0010 08208DE5 		str	r2, [sp, #8]
 297 0014 04308DE5 		str	r3, [sp, #4]
 298 0018 0C008DE5 		str	r0, [sp, #12]
 299              	.LBB17:
 300              		.loc 1 322 0
 301 001c FEFFFFEB 		bl	__aeabi_uidiv
ARM GAS  /cygdrive/c/Users/Chris/AppData/Local/Temp/ccTUaxdK.s 			page 12


 302              	.LVL15:
 303 0020 00A0A0E1 		mov	sl, r0
 304              	.LVL16:
 323:Serial.cpp    ****   uint32_t baudRateError = (frequency / (16 * divisor)) - baudRate;
 305              		.loc 1 323 0
 306 0024 0A12A0E1 		mov	r1, sl, asl #4
 307 0028 0C009DE5 		ldr	r0, [sp, #12]
 308 002c FEFFFFEB 		bl	__aeabi_uidiv
 324:Serial.cpp    **** 
 325:Serial.cpp    ****   if (allowSmallerBaudRate) {
 309              		.loc 1 325 0
 310 0030 08109DE5 		ldr	r1, [sp, #8]
 311 0034 000051E3 		cmp	r1, #0
 312              		.loc 1 323 0
 313 0038 00806BE0 		rsb	r8, fp, r0
 314              	.LVL17:
 315              		.loc 1 325 0
 316 003c 0700000A 		beq	.L18
 317              	.LVL18:
 318              	.LBB6:
 326:Serial.cpp    ****     uint32_t otherDivisor = divisor + 1;
 319              		.loc 1 326 0
 320 0040 01408AE2 		add	r4, sl, #1
 321              	.LVL19:
 327:Serial.cpp    ****     uint32_t otherBaudRateError = baudRate - (frequency / (16 * otherDivisor));
 322              		.loc 1 327 0
 323 0044 0C009DE5 		ldr	r0, [sp, #12]
 324 0048 0412A0E1 		mov	r1, r4, asl #4
 325 004c FEFFFFEB 		bl	__aeabi_uidiv
 326 0050 0B3060E0 		rsb	r3, r0, fp
 327              	.LVL20:
 328:Serial.cpp    ****     if (baudRateError > otherBaudRateError) {
 328              		.loc 1 328 0
 329 0054 030058E1 		cmp	r8, r3
 330 0058 04A0A081 		movhi	sl, r4
 331 005c 0380A081 		movhi	r8, r3
 332              	.L18:
 333              	.LBE6:
 329:Serial.cpp    ****       divisor = otherDivisor;
 330:Serial.cpp    ****       baudRateError = otherBaudRateError;
 331:Serial.cpp    ****     }
 332:Serial.cpp    ****   }
 333:Serial.cpp    ****   mulVal = 1;
 334              		.loc 1 333 0
 335 0060 04109DE5 		ldr	r1, [sp, #4]
 336 0064 0130A0E3 		mov	r3, #1
 337              	.LVL21:
 338 0068 003081E5 		str	r3, [r1, #0]
 334:Serial.cpp    ****   divAddVal = 0;
 339              		.loc 1 334 0
 340 006c 40309DE5 		ldr	r3, [sp, #64]
 341 0070 0C109DE5 		ldr	r1, [sp, #12]
 342 0074 0020A0E3 		mov	r2, #0
 343 0078 0270A0E1 		mov	r7, r2
 344              	.LVL22:
 345 007c 002083E5 		str	r2, [r3, #0]
 346 0080 10108DE5 		str	r1, [sp, #16]
ARM GAS  /cygdrive/c/Users/Chris/AppData/Local/Temp/ccTUaxdK.s 			page 13


 347              	.LVL23:
 348 0084 2B0000EA 		b	.L19
 349              	.LVL24:
 350              	.L22:
 351              	.LBB7:
 352              	.LBB8:
 353              	.LBB9:
 335:Serial.cpp    ****   for (uint32_t mv = 0; ++mv < 16;) {
 336:Serial.cpp    ****     for (uint32_t dav = 0; ++dav < 16;)  {  // ACKLEY: SHOULDN'T THIS BE: '++dav < mv' (according t
 337:Serial.cpp    ****       uint32_t prescaledClock = (frequency * mv) / (16 * (mv + dav));
 354              		.loc 1 337 0
 355 0088 FEFFFFEB 		bl	__aeabi_uidiv
 356              	.LVL25:
 338:Serial.cpp    ****       uint32_t newDivisor = prescaledClock / baudRate;
 357              		.loc 1 338 0
 358 008c 0B10A0E1 		mov	r1, fp
 359              		.loc 1 337 0
 360 0090 0050A0E1 		mov	r5, r0
 361              		.loc 1 338 0
 362 0094 FEFFFFEB 		bl	__aeabi_uidiv
 339:Serial.cpp    ****       if (newDivisor != 0) {
 363              		.loc 1 339 0
 364 0098 004050E2 		subs	r4, r0, #0
 365              	.LVL26:
 366              	.LBB14:
 340:Serial.cpp    ****         uint32_t newBaudRateError = (prescaledClock / newDivisor) - baudRate;
 341:Serial.cpp    ****         if (baudRateError > newBaudRateError) {
 342:Serial.cpp    ****           divisor = newDivisor;
 343:Serial.cpp    ****           mulVal = mv;
 344:Serial.cpp    ****           divAddVal = dav;
 345:Serial.cpp    ****           baudRateError = newBaudRateError;
 346:Serial.cpp    ****         }
 347:Serial.cpp    ****       }
 348:Serial.cpp    ****       if (allowSmallerBaudRate) {
 349:Serial.cpp    ****         ++newDivisor;
 367              		.loc 1 349 0
 368 009c 012084E2 		add	r2, r4, #1
 369 00a0 14208DE5 		str	r2, [sp, #20]
 370              	.LVL27:
 371              	.LBE14:
 372              	.LBB13:
 373              		.loc 1 340 0
 374 00a4 0410A0E1 		mov	r1, r4
 375 00a8 0500A0E1 		mov	r0, r5
 376              	.LBE13:
 377              		.loc 1 339 0
 378 00ac 0900000A 		beq	.L20
 379              	.LVL28:
 380              	.LBB12:
 381              		.loc 1 340 0
 382 00b0 FEFFFFEB 		bl	__aeabi_uidiv
 383 00b4 00006BE0 		rsb	r0, fp, r0
 384              	.LVL29:
 385              		.loc 1 341 0
 386 00b8 000058E1 		cmp	r8, r0
 387 00bc 0500009A 		bls	.L20
 388              		.loc 1 343 0
ARM GAS  /cygdrive/c/Users/Chris/AppData/Local/Temp/ccTUaxdK.s 			page 14


 389 00c0 04309DE5 		ldr	r3, [sp, #4]
 390              		.loc 1 344 0
 391 00c4 40109DE5 		ldr	r1, [sp, #64]
 392              		.loc 1 343 0
 393 00c8 007083E5 		str	r7, [r3, #0]
 394              		.loc 1 344 0
 395 00cc 006081E5 		str	r6, [r1, #0]
 396 00d0 0080A0E1 		mov	r8, r0
 397 00d4 04A0A0E1 		mov	sl, r4
 398              	.L20:
 399              	.LBE12:
 400              		.loc 1 348 0
 401 00d8 08209DE5 		ldr	r2, [sp, #8]
 402 00dc 000052E3 		cmp	r2, #0
 403              	.LBB11:
 350:Serial.cpp    ****         uint32_t newBaudRateError = baudRate - (prescaledClock / newDivisor);
 404              		.loc 1 350 0
 405 00e0 0500A0E1 		mov	r0, r5
 406              	.LVL30:
 407 00e4 14109DE5 		ldr	r1, [sp, #20]
 408              	.LBE11:
 409              		.loc 1 348 0
 410 00e8 0900000A 		beq	.L24
 411              	.LVL31:
 412              	.LBB10:
 413              		.loc 1 350 0
 414 00ec FEFFFFEB 		bl	__aeabi_uidiv
 415 00f0 0B3060E0 		rsb	r3, r0, fp
 416              	.LVL32:
 351:Serial.cpp    ****         if (baudRateError > newBaudRateError) {
 417              		.loc 1 351 0
 418 00f4 030058E1 		cmp	r8, r3
 419 00f8 0500009A 		bls	.L24
 352:Serial.cpp    ****           divisor = newDivisor;
 353:Serial.cpp    ****           mulVal = mv;
 420              		.loc 1 353 0
 421 00fc 04109DE5 		ldr	r1, [sp, #4]
 354:Serial.cpp    ****           divAddVal = dav;
 422              		.loc 1 354 0
 423 0100 40209DE5 		ldr	r2, [sp, #64]
 424              		.loc 1 353 0
 425 0104 007081E5 		str	r7, [r1, #0]
 426              		.loc 1 354 0
 427 0108 14A09DE5 		ldr	sl, [sp, #20]
 428 010c 006082E5 		str	r6, [r2, #0]
 429 0110 0380A0E1 		mov	r8, r3
 430              	.LVL33:
 431              	.L24:
 432              	.LBE10:
 433              	.LBE9:
 434              		.loc 1 336 0
 435 0114 016086E2 		add	r6, r6, #1
 436 0118 100056E3 		cmp	r6, #16
 437              	.LBB16:
 438              		.loc 1 337 0
 439 011c 0910A0E1 		mov	r1, r9
 440 0120 10009DE5 		ldr	r0, [sp, #16]
ARM GAS  /cygdrive/c/Users/Chris/AppData/Local/Temp/ccTUaxdK.s 			page 15


 441              	.LBB15:
 442              		.loc 1 354 0
 443 0124 109089E2 		add	r9, r9, #16
 444              	.LBE15:
 445              	.LBE16:
 446              		.loc 1 336 0
 447 0128 D6FFFF1A 		bne	.L22
 448              	.LVL34:
 449 012c 0C109DE5 		ldr	r1, [sp, #12]
 450 0130 013080E0 		add	r3, r0, r1
 451              	.LVL35:
 452 0134 10308DE5 		str	r3, [sp, #16]
 453              	.LVL36:
 454              	.L19:
 455              	.LBE8:
 456              		.loc 1 335 0
 457 0138 017087E2 		add	r7, r7, #1
 458 013c 100057E3 		cmp	r7, #16
 459 0140 01308712 		addne	r3, r7, #1
 460 0144 0392A011 		movne	r9, r3, asl #4
 461 0148 0060A013 		movne	r6, #0
 462 014c F0FFFF1A 		bne	.L24
 463              	.L23:
 464              	.LBE7:
 465              	.LBE17:
 355:Serial.cpp    ****           baudRateError = newBaudRateError;
 356:Serial.cpp    ****         }
 357:Serial.cpp    ****       }
 358:Serial.cpp    ****     }
 359:Serial.cpp    ****   }
 360:Serial.cpp    ****   // uint32_t calculatedBaudRate = (frequency * mulVal) / ((16 * divisor) * (mulVal + divAddVal));
 361:Serial.cpp    ****   return divisor;
 362:Serial.cpp    **** }
 466              		.loc 1 362 0
 467 0150 0A00A0E1 		mov	r0, sl
 468 0154 1CD08DE2 		add	sp, sp, #28
 469 0158 F04FBDE8 		ldmfd	sp!, {r4, r5, r6, r7, r8, r9, sl, fp, lr}
 470 015c 1EFF2FE1 		bx	lr
 471              	.LFE7:
 472              		.size	_Z22findDivisorAndPrescalemmbRmS_, .-_Z22findDivisorAndPrescalemmbRmS_
 473              		.section	.text._Z15SerialAvailableh,"ax",%progbits
 474              		.align	2
 475              		.global	_Z15SerialAvailableh
 476              		.type	_Z15SerialAvailableh, %function
 477              	_Z15SerialAvailableh:
 478              	.LFB9:
 363:Serial.cpp    **** 
 364:Serial.cpp    **** 
 365:Serial.cpp    **** //*****************************************
 366:Serial.cpp    **** //* Initialize Serial Interface
 367:Serial.cpp    **** void SerialBegin(uint8_t portNum, uint32_t baud) {
 368:Serial.cpp    **** 
 369:Serial.cpp    ****    PCONP = 0xFFFFFFFF; //everything powered on            
 370:Serial.cpp    **** 
 371:Serial.cpp    ****   ////
 372:Serial.cpp    ****   // Determine slowest sufficient PCLK for this baud rate
 373:Serial.cpp    **** 
ARM GAS  /cygdrive/c/Users/Chris/AppData/Local/Temp/ccTUaxdK.s 			page 16


 374:Serial.cpp    ****   uint32_t pclk;
 375:Serial.cpp    ****   uint8_t pclkCode;
 376:Serial.cpp    ****   if (CCLK/4/16/4 >= baud) {
 377:Serial.cpp    ****     pclk = CCLK/4;
 378:Serial.cpp    ****     pclkCode = 0;
 379:Serial.cpp    ****   } else if (CCLK/2/16/4 >= baud) {
 380:Serial.cpp    ****     pclk = CCLK/2;
 381:Serial.cpp    ****     pclkCode = 2;
 382:Serial.cpp    ****   } else {
 383:Serial.cpp    ****     pclk = CCLK;    // Yah.  Right.  This'll work.
 384:Serial.cpp    ****     pclkCode = 1;
 385:Serial.cpp    ****   }
 386:Serial.cpp    **** 
 387:Serial.cpp    ****   uint32_t mulVal;
 388:Serial.cpp    ****   uint32_t divAddVal;
 389:Serial.cpp    ****   uint32_t Fdiv;
 390:Serial.cpp    **** 
 391:Serial.cpp    ****   Fdiv = findDivisorAndPrescale(pclk, baud, true, mulVal, divAddVal);
 392:Serial.cpp    **** 
 393:Serial.cpp    ****    /* Setup the baud rate */
 394:Serial.cpp    ****    uartReg[portNum]->LCR = 0x83;           /* 8 bits, no Parity, 1 Stop bit, enable access */
 395:Serial.cpp    ****    uartReg[portNum]->FDR = (divAddVal<<0)|(mulVal <<4); /* Set the fractional divisor */
 396:Serial.cpp    ****    uartReg[portNum]->R2.DLM = Fdiv >> 8;
 397:Serial.cpp    ****    uartReg[portNum]->R1.DLL = Fdiv & 0xFF;
 398:Serial.cpp    ****    uartReg[portNum]->LCR = 0x03;           /* Disable access */
 399:Serial.cpp    ****    uartReg[portNum]->R3.FCR = 0x07;        /* Enable and reset TX and RX FIFO. */
 400:Serial.cpp    **** 
 401:Serial.cpp    **** 	/* Setup the pin connection */
 402:Serial.cpp    ****    *uartPins[portNum].TxSelReg = ( *uartPins[portNum].TxSelReg & 
 403:Serial.cpp    ****                                    ~uartPins[portNum].TxMask) |
 404:Serial.cpp    ****                                  uartPins[portNum].TxSelValue;
 405:Serial.cpp    ****    *uartPins[portNum].RxSelReg = ( *uartPins[portNum].RxSelReg & 
 406:Serial.cpp    ****                                    ~uartPins[portNum].RxMask) |
 407:Serial.cpp    **** 											uartPins[portNum].RxSelValue;
 408:Serial.cpp    **** 
 409:Serial.cpp    ****    /* Install the interrupt handler into the VIC */
 410:Serial.cpp    ****    install_irq( uartInts[portNum].IntNumber, 
 411:Serial.cpp    ****                 (void *)uartInts[portNum].IntFunc,  
 412:Serial.cpp    ****                 uartInts[portNum].Priority);
 413:Serial.cpp    ****  
 414:Serial.cpp    **** 
 415:Serial.cpp    ****    /* Enable the uart interrupts */
 416:Serial.cpp    ****    uartReg[portNum]->R2.IER.RBR = 1;   /* Rx Data Available */
 417:Serial.cpp    ****    uartReg[portNum]->R2.IER.THRE = 1;  /* THRE interrupt */
 418:Serial.cpp    **** 
 419:Serial.cpp    ****    /* Initialize the uart buffer */
 420:Serial.cpp    ****    SerialFlush(portNum);
 421:Serial.cpp    **** 
 422:Serial.cpp    **** }
 423:Serial.cpp    **** 
 424:Serial.cpp    **** //*****************************************
 425:Serial.cpp    **** //* Return the number of characters 
 426:Serial.cpp    **** //* in the buffer.
 427:Serial.cpp    **** int SerialAvailable(uint8_t portNum) {
 479              		.loc 1 427 0
 480              		@ Function supports interworking.
 481              		@ args = 0, pretend = 0, frame = 0
ARM GAS  /cygdrive/c/Users/Chris/AppData/Local/Temp/ccTUaxdK.s 			page 17


 482              		@ frame_needed = 0, uses_anonymous_args = 0
 483              		@ link register save eliminated.
 484              	.LVL37:
 428:Serial.cpp    **** 
 429:Serial.cpp    **** 	return (UART_BUFFSIZE + 
 430:Serial.cpp    ****            uartData[portNum].RxHead - uartData[portNum].RxTail) % UART_BUFFSIZE;
 485              		.loc 1 430 0
 486 0000 18309FE5 		ldr	r3, .L28
 487 0004 5020A0E3 		mov	r2, #80
 488 0008 923023E0 		mla	r3, r2, r0, r3
 489 000c 400093E5 		ldr	r0, [r3, #64]
 490              	.LVL38:
 491 0010 443093E5 		ldr	r3, [r3, #68]
 492 0014 000063E0 		rsb	r0, r3, r0
 431:Serial.cpp    **** 
 432:Serial.cpp    **** }
 493              		.loc 1 432 0
 494 0018 3F0000E2 		and	r0, r0, #63
 495 001c 1EFF2FE1 		bx	lr
 496              	.L29:
 497              		.align	2
 498              	.L28:
 499 0020 00000000 		.word	.LANCHOR1
 500              	.LFE9:
 501              		.size	_Z15SerialAvailableh, .-_Z15SerialAvailableh
 502              		.section	.text._Z11SerialWritehi,"ax",%progbits
 503              		.align	2
 504              		.global	_Z11SerialWritehi
 505              		.type	_Z11SerialWritehi, %function
 506              	_Z11SerialWritehi:
 507              	.LFB10:
 433:Serial.cpp    **** 
 434:Serial.cpp    **** //*****************************************
 435:Serial.cpp    **** //* Write character to Serial Port
 436:Serial.cpp    **** int SerialWrite(uint8_t portNum, int ch)  {
 508              		.loc 1 436 0
 509              		@ Function supports interworking.
 510              		@ args = 0, pretend = 0, frame = 0
 511              		@ frame_needed = 0, uses_anonymous_args = 0
 512              		@ link register save eliminated.
 513              	.LVL39:
 437:Serial.cpp    **** 
 438:Serial.cpp    ****    while (!(uartReg[portNum]->LSR & 0x20));
 514              		.loc 1 438 0
 515 0000 1C309FE5 		ldr	r3, .L33
 516 0004 000193E7 		ldr	r0, [r3, r0, asl #2]
 517              	.LVL40:
 518              	.L31:
 519 0008 143090E5 		ldr	r3, [r0, #20]
 520 000c 200013E3 		tst	r3, #32
 521 0010 FCFFFF0A 		beq	.L31
 439:Serial.cpp    **** 
 440:Serial.cpp    ****    return(uartReg[portNum]->R1.THR = (unsigned char)ch);
 522              		.loc 1 440 0
 523 0014 FF3001E2 		and	r3, r1, #255
 524 0018 003080E5 		str	r3, [r0, #0]
 525 001c 000090E5 		ldr	r0, [r0, #0]
ARM GAS  /cygdrive/c/Users/Chris/AppData/Local/Temp/ccTUaxdK.s 			page 18


 441:Serial.cpp    **** }
 526              		.loc 1 441 0
 527 0020 1EFF2FE1 		bx	lr
 528              	.L34:
 529              		.align	2
 530              	.L33:
 531 0024 00000000 		.word	.LANCHOR0
 532              	.LFE10:
 533              		.size	_Z11SerialWritehi, .-_Z11SerialWritehi
 534              		.section	.text._Z9SerialStrhPc,"ax",%progbits
 535              		.align	2
 536              		.global	_Z9SerialStrhPc
 537              		.type	_Z9SerialStrhPc, %function
 538              	_Z9SerialStrhPc:
 539              	.LFB11:
 442:Serial.cpp    **** 
 443:Serial.cpp    **** //*****************************************
 444:Serial.cpp    **** //* Write string to Serial Port
 445:Serial.cpp    **** void SerialStr(uint8_t portNum, char * str) {
 540              		.loc 1 445 0
 541              		@ Function supports interworking.
 542              		@ args = 0, pretend = 0, frame = 0
 543              		@ frame_needed = 0, uses_anonymous_args = 0
 544              	.LVL41:
 545 0000 70402DE9 		stmfd	sp!, {r4, r5, r6, lr}
 546              	.LCFI3:
 547              		.loc 1 445 0
 548 0004 0060A0E1 		mov	r6, r0
 549 0008 0150A0E1 		mov	r5, r1
 550 000c 0040A0E3 		mov	r4, #0
 551 0010 000000EA 		b	.L36
 552              	.LVL42:
 553              	.L37:
 446:Serial.cpp    ****    while (*str) {
 447:Serial.cpp    ****       SerialWrite(portNum, *str);
 554              		.loc 1 447 0
 555 0014 FEFFFFEB 		bl	_Z11SerialWritehi
 556              	.LVL43:
 557              	.L36:
 558              		.loc 1 446 0
 559 0018 0430D5E7 		ldrb	r3, [r5, r4]	@ zero_extendqisi2
 560 001c 001053E2 		subs	r1, r3, #0
 561              		.loc 1 447 0
 562 0020 0600A0E1 		mov	r0, r6
 563              		.loc 1 446 0
 564 0024 014084E2 		add	r4, r4, #1
 565 0028 F9FFFF1A 		bne	.L37
 448:Serial.cpp    ****       str++;
 449:Serial.cpp    ****    }
 450:Serial.cpp    **** } 
 566              		.loc 1 450 0
 567 002c 7040BDE8 		ldmfd	sp!, {r4, r5, r6, lr}
 568 0030 1EFF2FE1 		bx	lr
 569              	.LFE11:
 570              		.size	_Z9SerialStrhPc, .-_Z9SerialStrhPc
 571              		.section	.text._Z10SerialReadh,"ax",%progbits
 572              		.align	2
ARM GAS  /cygdrive/c/Users/Chris/AppData/Local/Temp/ccTUaxdK.s 			page 19


 573              		.global	_Z10SerialReadh
 574              		.type	_Z10SerialReadh, %function
 575              	_Z10SerialReadh:
 576              	.LFB12:
 451:Serial.cpp    **** 
 452:Serial.cpp    **** //*****************************************
 453:Serial.cpp    **** //* Read character from Serial Port Buffer
 454:Serial.cpp    **** int  SerialRead(uint8_t portNum) {
 577              		.loc 1 454 0
 578              		@ Function supports interworking.
 579              		@ args = 0, pretend = 0, frame = 0
 580              		@ frame_needed = 0, uses_anonymous_args = 0
 581              		@ link register save eliminated.
 582              	.LVL44:
 583              	.LBB18:
 455:Serial.cpp    ****    
 456:Serial.cpp    ****    int c;
 457:Serial.cpp    ****    vuint32_t *tail;
 458:Serial.cpp    **** 
 459:Serial.cpp    ****    tail = &uartData[portNum].RxTail;
 460:Serial.cpp    **** 
 461:Serial.cpp    **** 	// if the head isn't ahead of the tail, we don't have any characters
 462:Serial.cpp    **** 	if (uartData[portNum].RxHead == *tail) {
 584              		.loc 1 462 0
 585 0000 5030A0E3 		mov	r3, #80
 586 0004 93000CE0 		mul	ip, r3, r0
 587 0008 34009FE5 		ldr	r0, .L43
 588              	.LVL45:
 589 000c 0C1080E0 		add	r1, r0, ip
 590 0010 402091E5 		ldr	r2, [r1, #64]
 591 0014 443091E5 		ldr	r3, [r1, #68]
 592 0018 030052E1 		cmp	r2, r3
 463:Serial.cpp    **** 		c = -1;
 464:Serial.cpp    **** 	} else {
 465:Serial.cpp    **** 		c = uartData[portNum].RxBuffer[*tail];
 593              		.loc 1 465 0
 594 001c 44309115 		ldrne	r3, [r1, #68]
 595 0020 03308C10 		addne	r3, ip, r3
 596 0024 0320D017 		ldrneb	r2, [r0, r3]	@ zero_extendqisi2
 466:Serial.cpp    **** 		*tail = (*tail + 1) % UART_BUFFSIZE;
 597              		.loc 1 466 0
 598 0028 44309115 		ldrne	r3, [r1, #68]
 599 002c 01308312 		addne	r3, r3, #1
 600 0030 3F300312 		andne	r3, r3, #63
 601              		.loc 1 462 0
 602 0034 0000E003 		mvneq	r0, #0
 603              	.LVL46:
 604              		.loc 1 466 0
 605 0038 44308115 		strne	r3, [r1, #68]
 606              		.loc 1 465 0
 607 003c FF000212 		andne	r0, r2, #255
 608              	.LVL47:
 609              	.LBE18:
 467:Serial.cpp    **** 	}
 468:Serial.cpp    **** 	
 469:Serial.cpp    ****     return c;
 470:Serial.cpp    **** }
ARM GAS  /cygdrive/c/Users/Chris/AppData/Local/Temp/ccTUaxdK.s 			page 20


 610              		.loc 1 470 0
 611 0040 1EFF2FE1 		bx	lr
 612              	.L44:
 613              		.align	2
 614              	.L43:
 615 0044 00000000 		.word	.LANCHOR1
 616              	.LFE12:
 617              		.size	_Z10SerialReadh, .-_Z10SerialReadh
 618              		.section	.text._Z11SerialFlushh,"ax",%progbits
 619              		.align	2
 620              		.global	_Z11SerialFlushh
 621              		.type	_Z11SerialFlushh, %function
 622              	_Z11SerialFlushh:
 623              	.LFB13:
 471:Serial.cpp    **** 
 472:Serial.cpp    **** //*****************************************
 473:Serial.cpp    **** //* Flushes the serial buffer
 474:Serial.cpp    **** void SerialFlush(uint8_t portNum)
 624              		.loc 1 474 0
 625              		@ Function supports interworking.
 626              		@ args = 0, pretend = 0, frame = 0
 627              		@ frame_needed = 0, uses_anonymous_args = 0
 628              		@ link register save eliminated.
 629              	.LVL48:
 475:Serial.cpp    **** {
 476:Serial.cpp    **** 
 477:Serial.cpp    ****    uartData[portNum].RxHead = uartData[portNum].RxTail;
 630              		.loc 1 477 0
 631 0000 10309FE5 		ldr	r3, .L47
 632 0004 5020A0E3 		mov	r2, #80
 633 0008 903222E0 		mla	r2, r0, r2, r3
 634 000c 443092E5 		ldr	r3, [r2, #68]
 635 0010 403082E5 		str	r3, [r2, #64]
 478:Serial.cpp    **** 
 479:Serial.cpp    **** }
 636              		.loc 1 479 0
 637 0014 1EFF2FE1 		bx	lr
 638              	.L48:
 639              		.align	2
 640              	.L47:
 641 0018 00000000 		.word	.LANCHOR1
 642              	.LFE13:
 643              		.size	_Z11SerialFlushh, .-_Z11SerialFlushh
 644              		.section	.text._Z14SerialBusyReadh,"ax",%progbits
 645              		.align	2
 646              		.global	_Z14SerialBusyReadh
 647              		.type	_Z14SerialBusyReadh, %function
 648              	_Z14SerialBusyReadh:
 649              	.LFB14:
 480:Serial.cpp    **** 
 481:Serial.cpp    **** //*****************************************
 482:Serial.cpp    **** //* Reads character from Serial Port 
 483:Serial.cpp    **** //* Waits in a busy loop until a character is read. 
 484:Serial.cpp    **** int SerialBusyRead(uint8_t portNum) {
 650              		.loc 1 484 0
 651              		@ Function supports interworking.
 652              		@ args = 0, pretend = 0, frame = 0
ARM GAS  /cygdrive/c/Users/Chris/AppData/Local/Temp/ccTUaxdK.s 			page 21


 653              		@ frame_needed = 0, uses_anonymous_args = 0
 654              		@ link register save eliminated.
 655              	.LVL49:
 485:Serial.cpp    **** 
 486:Serial.cpp    ****    while (!(uartReg[portNum]->LSR & 0x01));
 656              		.loc 1 486 0
 657 0000 14309FE5 		ldr	r3, .L52
 658 0004 000193E7 		ldr	r0, [r3, r0, asl #2]
 659              	.LVL50:
 660              	.L50:
 661 0008 143090E5 		ldr	r3, [r0, #20]
 662 000c 010013E3 		tst	r3, #1
 663 0010 FCFFFF0A 		beq	.L50
 487:Serial.cpp    ****    return(uartReg[portNum]->R1.RBR);
 664              		.loc 1 487 0
 665 0014 000090E5 		ldr	r0, [r0, #0]
 488:Serial.cpp    **** 
 489:Serial.cpp    **** }
 666              		.loc 1 489 0
 667 0018 1EFF2FE1 		bx	lr
 668              	.L53:
 669              		.align	2
 670              	.L52:
 671 001c 00000000 		.word	.LANCHOR0
 672              	.LFE14:
 673              		.size	_Z14SerialBusyReadh, .-_Z14SerialBusyReadh
 674              		.section	.text._Z11SerialBeginhm,"ax",%progbits
 675              		.align	2
 676              		.global	_Z11SerialBeginhm
 677              		.type	_Z11SerialBeginhm, %function
 678              	_Z11SerialBeginhm:
 679              	.LFB8:
 680              		.loc 1 367 0
 681              		@ Function supports interworking.
 682              		@ args = 0, pretend = 0, frame = 8
 683              		@ frame_needed = 0, uses_anonymous_args = 0
 684              	.LVL51:
 685 0000 FF412DE9 		stmfd	sp!, {r0, r1, r2, r3, r4, r5, r6, r7, r8, lr}
 686              	.LCFI4:
 687              	.LVL52:
 688              	.LBB19:
 689              		.loc 1 376 0
 690 0004 34319FE5 		ldr	r3, .L59
 691 0008 030051E1 		cmp	r1, r3
 692              	.LVL53:
 693              		.loc 1 369 0
 694 000c 30319FE5 		ldr	r3, .L59+4
 695 0010 0020E0E3 		mvn	r2, #0
 696              	.LBE19:
 697              		.loc 1 367 0
 698 0014 0080A0E1 		mov	r8, r0
 699              	.LVL54:
 700 0018 01C0A0E1 		mov	ip, r1
 701              	.LBB20:
 702              		.loc 1 369 0
 703 001c C42083E5 		str	r2, [r3, #196]
 704              		.loc 1 376 0
ARM GAS  /cygdrive/c/Users/Chris/AppData/Local/Temp/ccTUaxdK.s 			page 22


 705 0020 20019F95 		ldrls	r0, .L59+8
 706              	.LVL55:
 707 0024 0500009A 		bls	.L56
 708              	.LVL56:
 709              		.loc 1 379 0
 710 0028 1C319FE5 		ldr	r3, .L59+12
 711 002c 1C119FE5 		ldr	r1, .L59+16
 712 0030 1C219FE5 		ldr	r2, .L59+20
 713 0034 03005CE1 		cmp	ip, r3
 714 0038 0200A091 		movls	r0, r2
 715 003c 0100A081 		movhi	r0, r1
 716              	.LVL57:
 717              	.L56:
 718              		.loc 1 391 0
 719 0040 0C10A0E1 		mov	r1, ip
 720 0044 0C308DE2 		add	r3, sp, #12
 721 0048 08C08DE2 		add	ip, sp, #8
 722              	.LVL58:
 723 004c 0120A0E3 		mov	r2, #1
 724 0050 00C08DE5 		str	ip, [sp, #0]
 725 0054 FEFFFFEB 		bl	_Z22findDivisorAndPrescalemmbRmS_
 726              	.LVL59:
 727              		.loc 1 404 0
 728 0058 1830A0E3 		mov	r3, #24
 729 005c 93080CE0 		mul	ip, r3, r8
 730              		.loc 1 398 0
 731 0060 0360A0E3 		mov	r6, #3
 732              		.loc 1 404 0
 733 0064 960804E0 		mul	r4, r6, r8
 734              		.loc 1 395 0
 735 0068 0C209DE5 		ldr	r2, [sp, #12]
 736              	.LVL60:
 737 006c 08309DE5 		ldr	r3, [sp, #8]
 738              	.LVL61:
 739              		.loc 1 394 0
 740 0070 E0709FE5 		ldr	r7, .L59+24
 741              		.loc 1 395 0
 742 0074 023283E1 		orr	r3, r3, r2, asl #4
 743              		.loc 1 394 0
 744 0078 081197E7 		ldr	r1, [r7, r8, asl #2]
 745              		.loc 1 395 0
 746 007c 0338A0E1 		mov	r3, r3, asl #16
 747 0080 2338A0E1 		mov	r3, r3, lsr #16
 748              		.loc 1 394 0
 749 0084 8320A0E3 		mov	r2, #131
 750 0088 0C2081E5 		str	r2, [r1, #12]
 751              		.loc 1 397 0
 752 008c FF5000E2 		and	r5, r0, #255
 753              	.LVL62:
 754              		.loc 1 395 0
 755 0090 B832C1E1 		strh	r3, [r1, #40]	@ movhi
 756              		.loc 1 396 0
 757 0094 2004A0E1 		mov	r0, r0, lsr #8
 758              	.LVL63:
 759              		.loc 1 399 0
 760 0098 0730A0E3 		mov	r3, #7
 761              		.loc 1 396 0
ARM GAS  /cygdrive/c/Users/Chris/AppData/Local/Temp/ccTUaxdK.s 			page 23


 762 009c 040081E5 		str	r0, [r1, #4]
 763              		.loc 1 397 0
 764 00a0 005081E5 		str	r5, [r1, #0]
 765              		.loc 1 398 0
 766 00a4 0C6081E5 		str	r6, [r1, #12]
 767              		.loc 1 399 0
 768 00a8 083081E5 		str	r3, [r1, #8]
 769              		.loc 1 404 0
 770 00ac A8309FE5 		ldr	r3, .L59+28
 771 00b0 0C5093E7 		ldr	r5, [r3, ip]
 772 00b4 0C2093E7 		ldr	r2, [r3, ip]
 773 00b8 014084E2 		add	r4, r4, #1
 774 00bc 002092E5 		ldr	r2, [r2, #0]
 775 00c0 0CC083E0 		add	ip, r3, ip
 776 00c4 841193E7 		ldr	r1, [r3, r4, asl #3]
 777 00c8 04009CE5 		ldr	r0, [ip, #4]
 778 00cc 0120C2E1 		bic	r2, r2, r1
 779 00d0 002082E1 		orr	r2, r2, r0
 780 00d4 002085E5 		str	r2, [r5, #0]
 781              		.loc 1 407 0
 782 00d8 843183E0 		add	r3, r3, r4, asl #3
 783 00dc 040093E5 		ldr	r0, [r3, #4]
 784 00e0 043093E5 		ldr	r3, [r3, #4]
 785 00e4 003093E5 		ldr	r3, [r3, #0]
 786 00e8 14209CE5 		ldr	r2, [ip, #20]
 787 00ec 10109CE5 		ldr	r1, [ip, #16]
 788 00f0 0230C3E1 		bic	r3, r3, r2
 789 00f4 013083E1 		orr	r3, r3, r1
 790              		.loc 1 412 0
 791 00f8 60209FE5 		ldr	r2, .L59+32
 792              		.loc 1 407 0
 793 00fc 003080E5 		str	r3, [r0, #0]
 794              		.loc 1 412 0
 795 0100 883182E0 		add	r3, r2, r8, asl #3
 796 0104 0400D3E5 		ldrb	r0, [r3, #4]	@ zero_extendqisi2
 797 0108 881192E7 		ldr	r1, [r2, r8, asl #3]
 798 010c 0520D3E5 		ldrb	r2, [r3, #5]	@ zero_extendqisi2
 799 0110 FEFFFFEB 		bl	_Z11install_irqmPvm
 800              		.loc 1 416 0
 801 0114 082197E7 		ldr	r2, [r7, r8, asl #2]
 802 0118 043092E5 		ldr	r3, [r2, #4]
 803 011c 013083E3 		orr	r3, r3, #1
 804 0120 043082E5 		str	r3, [r2, #4]
 805              		.loc 1 417 0
 806 0124 043092E5 		ldr	r3, [r2, #4]
 807 0128 023083E3 		orr	r3, r3, #2
 808 012c 043082E5 		str	r3, [r2, #4]
 809              		.loc 1 420 0
 810 0130 0800A0E1 		mov	r0, r8
 811 0134 FEFFFFEB 		bl	_Z11SerialFlushh
 812              	.LBE20:
 813              		.loc 1 422 0
 814 0138 FF41BDE8 		ldmfd	sp!, {r0, r1, r2, r3, r4, r5, r6, r7, r8, lr}
 815 013c 1EFF2FE1 		bx	lr
 816              	.L60:
 817              		.align	2
 818              	.L59:
ARM GAS  /cygdrive/c/Users/Chris/AppData/Local/Temp/ccTUaxdK.s 			page 24


 819 0140 A24A0400 		.word	281250
 820 0144 00C01FE0 		.word	-534790144
 821 0148 80A81201 		.word	18000000
 822 014c 44950800 		.word	562500
 823 0150 00A24A04 		.word	72000000
 824 0154 00512502 		.word	36000000
 825 0158 00000000 		.word	.LANCHOR0
 826 015c 00000000 		.word	.LANCHOR2
 827 0160 00000000 		.word	.LANCHOR3
 828              	.LFE8:
 829              		.size	_Z11SerialBeginhm, .-_Z11SerialBeginhm
 830              		.global	uartData
 831              		.global	uartInts
 832              		.global	uartPins
 833              		.global	uartReg
 834              		.section	.data.uartPins,"aw",%progbits
 835              		.align	2
 836              		.set	.LANCHOR2,. + 0
 837              		.type	uartPins, %object
 838              		.size	uartPins, 96
 839              	uartPins:
 840 0000 00C002E0 		.word	-536690688
 841 0004 10000000 		.word	16
 842 0008 30000000 		.word	48
 843 000c 00C002E0 		.word	-536690688
 844 0010 40000000 		.word	64
 845 0014 C0000000 		.word	192
 846 0018 00C002E0 		.word	-536690688
 847 001c 00000040 		.word	1073741824
 848 0020 000000C0 		.word	-1073741824
 849 0024 04C002E0 		.word	-536690684
 850 0028 01000000 		.word	1
 851 002c 03000000 		.word	3
 852 0030 00C002E0 		.word	-536690688
 853 0034 00001000 		.word	1048576
 854 0038 00003000 		.word	3145728
 855 003c 00C002E0 		.word	-536690688
 856 0040 00004000 		.word	4194304
 857 0044 0000C000 		.word	12582912
 858 0048 00C002E0 		.word	-536690688
 859 004c 02000000 		.word	2
 860 0050 03000000 		.word	3
 861 0054 00C002E0 		.word	-536690688
 862 0058 08000000 		.word	8
 863 005c 08000000 		.word	8
 864              		.section	.data.uartReg,"aw",%progbits
 865              		.align	2
 866              		.set	.LANCHOR0,. + 0
 867              		.type	uartReg, %object
 868              		.size	uartReg, 16
 869              	uartReg:
 870 0000 00C000E0 		.word	-536821760
 871 0004 000001E0 		.word	-536805376
 872 0008 008007E0 		.word	-536379392
 873 000c 00C007E0 		.word	-536363008
 874              		.section	.bss.uartData,"aw",%nobits
 875              		.align	2
ARM GAS  /cygdrive/c/Users/Chris/AppData/Local/Temp/ccTUaxdK.s 			page 25


 876              		.set	.LANCHOR1,. + 0
 877              		.type	uartData, %object
 878              		.size	uartData, 320
 879              	uartData:
 880 0000 00000000 		.space	320
 880      00000000 
 880      00000000 
 880      00000000 
 880      00000000 
 881              		.section	.data.uartInts,"aw",%progbits
 882              		.align	2
 883              		.set	.LANCHOR3,. + 0
 884              		.type	uartInts, %object
 885              		.size	uartInts, 32
 886              	uartInts:
 887 0000 00000000 		.word	_Z10Serial0ISRv
 888 0004 06       		.byte	6
 889 0005 01       		.byte	1
 890 0006 0000     		.space	2
 891 0008 00000000 		.word	_Z10Serial1ISRv
 892 000c 07       		.byte	7
 893 000d 01       		.byte	1
 894 000e 0000     		.space	2
 895 0010 00000000 		.word	_Z10Serial2ISRv
 896 0014 1C       		.byte	28
 897 0015 01       		.byte	1
 898 0016 0000     		.space	2
 899 0018 00000000 		.word	_Z10Serial3ISRv
 900 001c 1D       		.byte	29
 901 001d 01       		.byte	1
 902 001e 0000     		.space	2
 903              		.section	.debug_frame,"",%progbits
 904              	.Lframe0:
 905 0000 0C000000 		.4byte	.LECIE0-.LSCIE0
 906              	.LSCIE0:
 907 0004 FFFFFFFF 		.4byte	0xffffffff
 908 0008 01       		.byte	0x1
 909 0009 00       		.ascii	"\000"
 910 000a 01       		.uleb128 0x1
 911 000b 7C       		.sleb128 -4
 912 000c 0E       		.byte	0xe
 913 000d 0C       		.byte	0xc
 914 000e 0D       		.uleb128 0xd
 915 000f 00       		.uleb128 0x0
 916              		.align	2
 917              	.LECIE0:
 918              	.LSFDE0:
 919 0010 18000000 		.4byte	.LEFDE0-.LASFDE0
 920              	.LASFDE0:
 921 0014 00000000 		.4byte	.Lframe0
 922 0018 00000000 		.4byte	.LFB2
 923 001c D8000000 		.4byte	.LFE2-.LFB2
 924 0020 44       		.byte	0x4
 925              		.4byte	.LCFI0-.LFB2
 926 0021 0E       		.byte	0xe
 927 0022 10       		.uleb128 0x10
 928 0023 84       		.byte	0x84
ARM GAS  /cygdrive/c/Users/Chris/AppData/Local/Temp/ccTUaxdK.s 			page 26


 929 0024 01       		.uleb128 0x1
 930 0025 82       		.byte	0x82
 931 0026 02       		.uleb128 0x2
 932 0027 81       		.byte	0x81
 933 0028 03       		.uleb128 0x3
 934 0029 80       		.byte	0x80
 935 002a 04       		.uleb128 0x4
 936 002b 00       		.align	2
 937              	.LEFDE0:
 938              	.LSFDE2:
 939 002c 0C000000 		.4byte	.LEFDE2-.LASFDE2
 940              	.LASFDE2:
 941 0030 00000000 		.4byte	.Lframe0
 942 0034 00000000 		.4byte	.LFB3
 943 0038 30000000 		.4byte	.LFE3-.LFB3
 944              		.align	2
 945              	.LEFDE2:
 946              	.LSFDE4:
 947 003c 0C000000 		.4byte	.LEFDE4-.LASFDE4
 948              	.LASFDE4:
 949 0040 00000000 		.4byte	.Lframe0
 950 0044 00000000 		.4byte	.LFB4
 951 0048 30000000 		.4byte	.LFE4-.LFB4
 952              		.align	2
 953              	.LEFDE4:
 954              	.LSFDE6:
 955 004c 0C000000 		.4byte	.LEFDE6-.LASFDE6
 956              	.LASFDE6:
 957 0050 00000000 		.4byte	.Lframe0
 958 0054 00000000 		.4byte	.LFB5
 959 0058 30000000 		.4byte	.LFE5-.LFB5
 960              		.align	2
 961              	.LEFDE6:
 962              	.LSFDE8:
 963 005c 0C000000 		.4byte	.LEFDE8-.LASFDE8
 964              	.LASFDE8:
 965 0060 00000000 		.4byte	.Lframe0
 966 0064 00000000 		.4byte	.LFB6
 967 0068 30000000 		.4byte	.LFE6-.LFB6
 968              		.align	2
 969              	.LEFDE8:
 970              	.LSFDE10:
 971 006c 24000000 		.4byte	.LEFDE10-.LASFDE10
 972              	.LASFDE10:
 973 0070 00000000 		.4byte	.Lframe0
 974 0074 00000000 		.4byte	.LFB7
 975 0078 60010000 		.4byte	.LFE7-.LFB7
 976 007c 44       		.byte	0x4
 977              		.4byte	.LCFI1-.LFB7
 978 007d 0E       		.byte	0xe
 979 007e 24       		.uleb128 0x24
 980 007f 8E       		.byte	0x8e
 981 0080 01       		.uleb128 0x1
 982 0081 8B       		.byte	0x8b
 983 0082 02       		.uleb128 0x2
 984 0083 8A       		.byte	0x8a
 985 0084 03       		.uleb128 0x3
ARM GAS  /cygdrive/c/Users/Chris/AppData/Local/Temp/ccTUaxdK.s 			page 27


 986 0085 89       		.byte	0x89
 987 0086 04       		.uleb128 0x4
 988 0087 88       		.byte	0x88
 989 0088 05       		.uleb128 0x5
 990 0089 87       		.byte	0x87
 991 008a 06       		.uleb128 0x6
 992 008b 86       		.byte	0x86
 993 008c 07       		.uleb128 0x7
 994 008d 85       		.byte	0x85
 995 008e 08       		.uleb128 0x8
 996 008f 84       		.byte	0x84
 997 0090 09       		.uleb128 0x9
 998 0091 48       		.byte	0x4
 999              		.4byte	.LCFI2-.LCFI1
 1000 0092 0E       		.byte	0xe
 1001 0093 40       		.uleb128 0x40
 1002              		.align	2
 1003              	.LEFDE10:
 1004              	.LSFDE12:
 1005 0094 0C000000 		.4byte	.LEFDE12-.LASFDE12
 1006              	.LASFDE12:
 1007 0098 00000000 		.4byte	.Lframe0
 1008 009c 00000000 		.4byte	.LFB9
 1009 00a0 24000000 		.4byte	.LFE9-.LFB9
 1010              		.align	2
 1011              	.LEFDE12:
 1012              	.LSFDE14:
 1013 00a4 0C000000 		.4byte	.LEFDE14-.LASFDE14
 1014              	.LASFDE14:
 1015 00a8 00000000 		.4byte	.Lframe0
 1016 00ac 00000000 		.4byte	.LFB10
 1017 00b0 28000000 		.4byte	.LFE10-.LFB10
 1018              		.align	2
 1019              	.LEFDE14:
 1020              	.LSFDE16:
 1021 00b4 18000000 		.4byte	.LEFDE16-.LASFDE16
 1022              	.LASFDE16:
 1023 00b8 00000000 		.4byte	.Lframe0
 1024 00bc 00000000 		.4byte	.LFB11
 1025 00c0 34000000 		.4byte	.LFE11-.LFB11
 1026 00c4 44       		.byte	0x4
 1027              		.4byte	.LCFI3-.LFB11
 1028 00c5 0E       		.byte	0xe
 1029 00c6 10       		.uleb128 0x10
 1030 00c7 8E       		.byte	0x8e
 1031 00c8 01       		.uleb128 0x1
 1032 00c9 86       		.byte	0x86
 1033 00ca 02       		.uleb128 0x2
 1034 00cb 85       		.byte	0x85
 1035 00cc 03       		.uleb128 0x3
 1036 00cd 84       		.byte	0x84
 1037 00ce 04       		.uleb128 0x4
 1038 00cf 00       		.align	2
 1039              	.LEFDE16:
 1040              	.LSFDE18:
 1041 00d0 0C000000 		.4byte	.LEFDE18-.LASFDE18
 1042              	.LASFDE18:
ARM GAS  /cygdrive/c/Users/Chris/AppData/Local/Temp/ccTUaxdK.s 			page 28


 1043 00d4 00000000 		.4byte	.Lframe0
 1044 00d8 00000000 		.4byte	.LFB12
 1045 00dc 48000000 		.4byte	.LFE12-.LFB12
 1046              		.align	2
 1047              	.LEFDE18:
 1048              	.LSFDE20:
 1049 00e0 0C000000 		.4byte	.LEFDE20-.LASFDE20
 1050              	.LASFDE20:
 1051 00e4 00000000 		.4byte	.Lframe0
 1052 00e8 00000000 		.4byte	.LFB13
 1053 00ec 1C000000 		.4byte	.LFE13-.LFB13
 1054              		.align	2
 1055              	.LEFDE20:
 1056              	.LSFDE22:
 1057 00f0 0C000000 		.4byte	.LEFDE22-.LASFDE22
 1058              	.LASFDE22:
 1059 00f4 00000000 		.4byte	.Lframe0
 1060 00f8 00000000 		.4byte	.LFB14
 1061 00fc 20000000 		.4byte	.LFE14-.LFB14
 1062              		.align	2
 1063              	.LEFDE22:
 1064              	.LSFDE24:
 1065 0100 24000000 		.4byte	.LEFDE24-.LASFDE24
 1066              	.LASFDE24:
 1067 0104 00000000 		.4byte	.Lframe0
 1068 0108 00000000 		.4byte	.LFB8
 1069 010c 64010000 		.4byte	.LFE8-.LFB8
 1070 0110 44       		.byte	0x4
 1071              		.4byte	.LCFI4-.LFB8
 1072 0111 0E       		.byte	0xe
 1073 0112 28       		.uleb128 0x28
 1074 0113 8E       		.byte	0x8e
 1075 0114 01       		.uleb128 0x1
 1076 0115 88       		.byte	0x88
 1077 0116 02       		.uleb128 0x2
 1078 0117 87       		.byte	0x87
 1079 0118 03       		.uleb128 0x3
 1080 0119 86       		.byte	0x86
 1081 011a 04       		.uleb128 0x4
 1082 011b 85       		.byte	0x85
 1083 011c 05       		.uleb128 0x5
 1084 011d 84       		.byte	0x84
 1085 011e 06       		.uleb128 0x6
 1086 011f 83       		.byte	0x83
 1087 0120 07       		.uleb128 0x7
 1088 0121 82       		.byte	0x82
 1089 0122 08       		.uleb128 0x8
 1090 0123 81       		.byte	0x81
 1091 0124 09       		.uleb128 0x9
 1092 0125 80       		.byte	0x80
 1093 0126 0A       		.uleb128 0xa
 1094 0127 00       		.align	2
 1095              	.LEFDE24:
 1096              		.text
 1097              	.Letext0:
 1098              		.section	.debug_loc,"",%progbits
 1099              	.Ldebug_loc0:
ARM GAS  /cygdrive/c/Users/Chris/AppData/Local/Temp/ccTUaxdK.s 			page 29


 1100              	.LLST0:
 1101 0000 00000000 		.4byte	.LFB2
 1102 0004 04000000 		.4byte	.LCFI0
 1103 0008 0100     		.2byte	0x1
 1104 000a 5D       		.byte	0x5d
 1105 000b 04000000 		.4byte	.LCFI0
 1106 000f D8000000 		.4byte	.LFE2
 1107 0013 0200     		.2byte	0x2
 1108 0015 7D       		.byte	0x7d
 1109 0016 10       		.sleb128 16
 1110 0017 00000000 		.4byte	0x0
 1111 001b 00000000 		.4byte	0x0
 1112              	.LLST1:
 1113 001f 00000000 		.4byte	.LVL0
 1114 0023 04000000 		.4byte	.LVL1
 1115 0027 0100     		.2byte	0x1
 1116 0029 50       		.byte	0x50
 1117 002a 0C000000 		.4byte	.LVL2
 1118 002e 2C000000 		.4byte	.LVL4
 1119 0032 0100     		.2byte	0x1
 1120 0034 50       		.byte	0x50
 1121 0035 70000000 		.4byte	.LVL8
 1122 0039 D8000000 		.4byte	.LFE2
 1123 003d 0100     		.2byte	0x1
 1124 003f 50       		.byte	0x50
 1125 0040 00000000 		.4byte	0x0
 1126 0044 00000000 		.4byte	0x0
 1127              	.LLST2:
 1128 0048 18000000 		.4byte	.LVL3
 1129 004c 44000000 		.4byte	.LVL6
 1130 0050 0100     		.2byte	0x1
 1131 0052 52       		.byte	0x52
 1132 0053 70000000 		.4byte	.LVL8
 1133 0057 80000000 		.4byte	.LVL9
 1134 005b 0100     		.2byte	0x1
 1135 005d 52       		.byte	0x52
 1136 005e 94000000 		.4byte	.LVL10
 1137 0062 D8000000 		.4byte	.LFE2
 1138 0066 0100     		.2byte	0x1
 1139 0068 52       		.byte	0x52
 1140 0069 00000000 		.4byte	0x0
 1141 006d 00000000 		.4byte	0x0
 1142              	.LLST3:
 1143 0071 0C000000 		.4byte	.LVL2
 1144 0075 A4000000 		.4byte	.LVL11
 1145 0079 0100     		.2byte	0x1
 1146 007b 5C       		.byte	0x5c
 1147 007c C8000000 		.4byte	.LVL12
 1148 0080 D8000000 		.4byte	.LFE2
 1149 0084 0100     		.2byte	0x1
 1150 0086 5C       		.byte	0x5c
 1151 0087 00000000 		.4byte	0x0
 1152 008b 00000000 		.4byte	0x0
 1153              	.LLST4:
 1154 008f 3C000000 		.4byte	.LVL5
 1155 0093 48000000 		.4byte	.LVL7
 1156 0097 0100     		.2byte	0x1
ARM GAS  /cygdrive/c/Users/Chris/AppData/Local/Temp/ccTUaxdK.s 			page 30


 1157 0099 53       		.byte	0x53
 1158 009a 48000000 		.4byte	.LVL7
 1159 009e 70000000 		.4byte	.LVL8
 1160 00a2 0200     		.2byte	0x2
 1161 00a4 91       		.byte	0x91
 1162 00a5 7C       		.sleb128 -4
 1163 00a6 C8000000 		.4byte	.LVL12
 1164 00aa D8000000 		.4byte	.LFE2
 1165 00ae 0200     		.2byte	0x2
 1166 00b0 91       		.byte	0x91
 1167 00b1 7C       		.sleb128 -4
 1168 00b2 00000000 		.4byte	0x0
 1169 00b6 00000000 		.4byte	0x0
 1170              	.LLST9:
 1171 00ba 00000000 		.4byte	.LFB7
 1172 00be 04000000 		.4byte	.LCFI1
 1173 00c2 0100     		.2byte	0x1
 1174 00c4 5D       		.byte	0x5d
 1175 00c5 04000000 		.4byte	.LCFI1
 1176 00c9 0C000000 		.4byte	.LCFI2
 1177 00cd 0200     		.2byte	0x2
 1178 00cf 7D       		.byte	0x7d
 1179 00d0 24       		.sleb128 36
 1180 00d1 0C000000 		.4byte	.LCFI2
 1181 00d5 60010000 		.4byte	.LFE7
 1182 00d9 0300     		.2byte	0x3
 1183 00db 7D       		.byte	0x7d
 1184 00dc C000     		.sleb128 64
 1185 00de 00000000 		.4byte	0x0
 1186 00e2 00000000 		.4byte	0x0
 1187              	.LLST10:
 1188 00e6 00000000 		.4byte	.LVL13
 1189 00ea 20000000 		.4byte	.LVL15
 1190 00ee 0100     		.2byte	0x1
 1191 00f0 50       		.byte	0x50
 1192 00f1 20000000 		.4byte	.LVL15
 1193 00f5 40000000 		.4byte	.LVL18
 1194 00f9 0200     		.2byte	0x2
 1195 00fb 7D       		.byte	0x7d
 1196 00fc 0C       		.sleb128 12
 1197 00fd 40000000 		.4byte	.LVL18
 1198 0101 84000000 		.4byte	.LVL23
 1199 0105 0200     		.2byte	0x2
 1200 0107 91       		.byte	0x91
 1201 0108 68       		.sleb128 -24
 1202 0109 84000000 		.4byte	.LVL23
 1203 010d 88000000 		.4byte	.LVL24
 1204 0111 0200     		.2byte	0x2
 1205 0113 7D       		.byte	0x7d
 1206 0114 10       		.sleb128 16
 1207 0115 88000000 		.4byte	.LVL24
 1208 0119 14010000 		.4byte	.LVL33
 1209 011d 0200     		.2byte	0x2
 1210 011f 91       		.byte	0x91
 1211 0120 6C       		.sleb128 -20
 1212 0121 14010000 		.4byte	.LVL33
 1213 0125 2C010000 		.4byte	.LVL34
ARM GAS  /cygdrive/c/Users/Chris/AppData/Local/Temp/ccTUaxdK.s 			page 31


 1214 0129 0200     		.2byte	0x2
 1215 012b 7D       		.byte	0x7d
 1216 012c 10       		.sleb128 16
 1217 012d 2C010000 		.4byte	.LVL34
 1218 0131 38010000 		.4byte	.LVL36
 1219 0135 0200     		.2byte	0x2
 1220 0137 91       		.byte	0x91
 1221 0138 6C       		.sleb128 -20
 1222 0139 38010000 		.4byte	.LVL36
 1223 013d 60010000 		.4byte	.LFE7
 1224 0141 0200     		.2byte	0x2
 1225 0143 7D       		.byte	0x7d
 1226 0144 10       		.sleb128 16
 1227 0145 00000000 		.4byte	0x0
 1228 0149 00000000 		.4byte	0x0
 1229              	.LLST11:
 1230 014d 00000000 		.4byte	.LVL13
 1231 0151 10000000 		.4byte	.LVL14
 1232 0155 0100     		.2byte	0x1
 1233 0157 51       		.byte	0x51
 1234 0158 10000000 		.4byte	.LVL14
 1235 015c 60010000 		.4byte	.LFE7
 1236 0160 0100     		.2byte	0x1
 1237 0162 5B       		.byte	0x5b
 1238 0163 00000000 		.4byte	0x0
 1239 0167 00000000 		.4byte	0x0
 1240              	.LLST12:
 1241 016b 00000000 		.4byte	.LVL13
 1242 016f 20000000 		.4byte	.LVL15
 1243 0173 0100     		.2byte	0x1
 1244 0175 52       		.byte	0x52
 1245 0176 20000000 		.4byte	.LVL15
 1246 017a 40000000 		.4byte	.LVL18
 1247 017e 0200     		.2byte	0x2
 1248 0180 7D       		.byte	0x7d
 1249 0181 08       		.sleb128 8
 1250 0182 40000000 		.4byte	.LVL18
 1251 0186 60010000 		.4byte	.LFE7
 1252 018a 0200     		.2byte	0x2
 1253 018c 91       		.byte	0x91
 1254 018d 64       		.sleb128 -28
 1255 018e 00000000 		.4byte	0x0
 1256 0192 00000000 		.4byte	0x0
 1257              	.LLST13:
 1258 0196 00000000 		.4byte	.LVL13
 1259 019a 20000000 		.4byte	.LVL15
 1260 019e 0100     		.2byte	0x1
 1261 01a0 53       		.byte	0x53
 1262 01a1 20000000 		.4byte	.LVL15
 1263 01a5 88000000 		.4byte	.LVL24
 1264 01a9 0200     		.2byte	0x2
 1265 01ab 7D       		.byte	0x7d
 1266 01ac 04       		.sleb128 4
 1267 01ad 88000000 		.4byte	.LVL24
 1268 01b1 60010000 		.4byte	.LFE7
 1269 01b5 0200     		.2byte	0x2
 1270 01b7 91       		.byte	0x91
ARM GAS  /cygdrive/c/Users/Chris/AppData/Local/Temp/ccTUaxdK.s 			page 32


 1271 01b8 60       		.sleb128 -32
 1272 01b9 00000000 		.4byte	0x0
 1273 01bd 00000000 		.4byte	0x0
 1274              	.LLST14:
 1275 01c1 00000000 		.4byte	.LVL13
 1276 01c5 88000000 		.4byte	.LVL24
 1277 01c9 0200     		.2byte	0x2
 1278 01cb 91       		.byte	0x91
 1279 01cc 00       		.sleb128 0
 1280 01cd 88000000 		.4byte	.LVL24
 1281 01d1 60010000 		.4byte	.LFE7
 1282 01d5 0200     		.2byte	0x2
 1283 01d7 91       		.byte	0x91
 1284 01d8 1C       		.sleb128 28
 1285 01d9 00000000 		.4byte	0x0
 1286 01dd 00000000 		.4byte	0x0
 1287              	.LLST15:
 1288 01e1 44000000 		.4byte	.LVL19
 1289 01e5 9C000000 		.4byte	.LVL26
 1290 01e9 0100     		.2byte	0x1
 1291 01eb 54       		.byte	0x54
 1292 01ec 14010000 		.4byte	.LVL33
 1293 01f0 60010000 		.4byte	.LFE7
 1294 01f4 0100     		.2byte	0x1
 1295 01f6 54       		.byte	0x54
 1296 01f7 00000000 		.4byte	0x0
 1297 01fb 00000000 		.4byte	0x0
 1298              	.LLST16:
 1299 01ff 54000000 		.4byte	.LVL20
 1300 0203 68000000 		.4byte	.LVL21
 1301 0207 0100     		.2byte	0x1
 1302 0209 53       		.byte	0x53
 1303 020a 00000000 		.4byte	0x0
 1304 020e 00000000 		.4byte	0x0
 1305              	.LLST17:
 1306 0212 88000000 		.4byte	.LVL24
 1307 0216 9C000000 		.4byte	.LVL26
 1308 021a 0200     		.2byte	0x2
 1309 021c 91       		.byte	0x91
 1310 021d 70       		.sleb128 -16
 1311 021e 9C000000 		.4byte	.LVL26
 1312 0222 A4000000 		.4byte	.LVL27
 1313 0226 0100     		.2byte	0x1
 1314 0228 54       		.byte	0x54
 1315 0229 A4000000 		.4byte	.LVL27
 1316 022d B0000000 		.4byte	.LVL28
 1317 0231 0200     		.2byte	0x2
 1318 0233 7D       		.byte	0x7d
 1319 0234 14       		.sleb128 20
 1320 0235 B0000000 		.4byte	.LVL28
 1321 0239 EC000000 		.4byte	.LVL31
 1322 023d 0100     		.2byte	0x1
 1323 023f 54       		.byte	0x54
 1324 0240 EC000000 		.4byte	.LVL31
 1325 0244 60010000 		.4byte	.LFE7
 1326 0248 0200     		.2byte	0x2
 1327 024a 91       		.byte	0x91
ARM GAS  /cygdrive/c/Users/Chris/AppData/Local/Temp/ccTUaxdK.s 			page 33


 1328 024b 70       		.sleb128 -16
 1329 024c 00000000 		.4byte	0x0
 1330 0250 00000000 		.4byte	0x0
 1331              	.LLST18:
 1332 0254 B8000000 		.4byte	.LVL29
 1333 0258 E4000000 		.4byte	.LVL30
 1334 025c 0100     		.2byte	0x1
 1335 025e 50       		.byte	0x50
 1336 025f 00000000 		.4byte	0x0
 1337 0263 00000000 		.4byte	0x0
 1338              	.LLST19:
 1339 0267 88000000 		.4byte	.LVL24
 1340 026b 8C000000 		.4byte	.LVL25
 1341 026f 0100     		.2byte	0x1
 1342 0271 53       		.byte	0x53
 1343 0272 F4000000 		.4byte	.LVL32
 1344 0276 34010000 		.4byte	.LVL35
 1345 027a 0100     		.2byte	0x1
 1346 027c 53       		.byte	0x53
 1347 027d 00000000 		.4byte	0x0
 1348 0281 00000000 		.4byte	0x0
 1349              	.LLST21:
 1350 0285 00000000 		.4byte	.LVL37
 1351 0289 10000000 		.4byte	.LVL38
 1352 028d 0100     		.2byte	0x1
 1353 028f 50       		.byte	0x50
 1354 0290 00000000 		.4byte	0x0
 1355 0294 00000000 		.4byte	0x0
 1356              	.LLST23:
 1357 0298 00000000 		.4byte	.LVL39
 1358 029c 08000000 		.4byte	.LVL40
 1359 02a0 0100     		.2byte	0x1
 1360 02a2 50       		.byte	0x50
 1361 02a3 00000000 		.4byte	0x0
 1362 02a7 00000000 		.4byte	0x0
 1363              	.LLST24:
 1364 02ab 00000000 		.4byte	.LFB11
 1365 02af 04000000 		.4byte	.LCFI3
 1366 02b3 0100     		.2byte	0x1
 1367 02b5 5D       		.byte	0x5d
 1368 02b6 04000000 		.4byte	.LCFI3
 1369 02ba 34000000 		.4byte	.LFE11
 1370 02be 0200     		.2byte	0x2
 1371 02c0 7D       		.byte	0x7d
 1372 02c1 10       		.sleb128 16
 1373 02c2 00000000 		.4byte	0x0
 1374 02c6 00000000 		.4byte	0x0
 1375              	.LLST25:
 1376 02ca 00000000 		.4byte	.LVL41
 1377 02ce 14000000 		.4byte	.LVL42
 1378 02d2 0100     		.2byte	0x1
 1379 02d4 50       		.byte	0x50
 1380 02d5 14000000 		.4byte	.LVL42
 1381 02d9 34000000 		.4byte	.LFE11
 1382 02dd 0100     		.2byte	0x1
 1383 02df 56       		.byte	0x56
 1384 02e0 00000000 		.4byte	0x0
ARM GAS  /cygdrive/c/Users/Chris/AppData/Local/Temp/ccTUaxdK.s 			page 34


 1385 02e4 00000000 		.4byte	0x0
 1386              	.LLST26:
 1387 02e8 00000000 		.4byte	.LVL41
 1388 02ec 14000000 		.4byte	.LVL42
 1389 02f0 0100     		.2byte	0x1
 1390 02f2 51       		.byte	0x51
 1391 02f3 14000000 		.4byte	.LVL42
 1392 02f7 34000000 		.4byte	.LFE11
 1393 02fb 0100     		.2byte	0x1
 1394 02fd 55       		.byte	0x55
 1395 02fe 00000000 		.4byte	0x0
 1396 0302 00000000 		.4byte	0x0
 1397              	.LLST28:
 1398 0306 00000000 		.4byte	.LVL44
 1399 030a 0C000000 		.4byte	.LVL45
 1400 030e 0100     		.2byte	0x1
 1401 0310 50       		.byte	0x50
 1402 0311 00000000 		.4byte	0x0
 1403 0315 00000000 		.4byte	0x0
 1404              	.LLST29:
 1405 0319 38000000 		.4byte	.LVL46
 1406 031d 40000000 		.4byte	.LVL47
 1407 0321 0100     		.2byte	0x1
 1408 0323 50       		.byte	0x50
 1409 0324 00000000 		.4byte	0x0
 1410 0328 00000000 		.4byte	0x0
 1411              	.LLST32:
 1412 032c 00000000 		.4byte	.LVL49
 1413 0330 08000000 		.4byte	.LVL50
 1414 0334 0100     		.2byte	0x1
 1415 0336 50       		.byte	0x50
 1416 0337 00000000 		.4byte	0x0
 1417 033b 00000000 		.4byte	0x0
 1418              	.LLST33:
 1419 033f 00000000 		.4byte	.LFB8
 1420 0343 04000000 		.4byte	.LCFI4
 1421 0347 0100     		.2byte	0x1
 1422 0349 5D       		.byte	0x5d
 1423 034a 04000000 		.4byte	.LCFI4
 1424 034e 64010000 		.4byte	.LFE8
 1425 0352 0200     		.2byte	0x2
 1426 0354 7D       		.byte	0x7d
 1427 0355 28       		.sleb128 40
 1428 0356 00000000 		.4byte	0x0
 1429 035a 00000000 		.4byte	0x0
 1430              	.LLST34:
 1431 035e 00000000 		.4byte	.LVL51
 1432 0362 04000000 		.4byte	.LVL52
 1433 0366 0100     		.2byte	0x1
 1434 0368 50       		.byte	0x50
 1435 0369 18000000 		.4byte	.LVL54
 1436 036d 24000000 		.4byte	.LVL55
 1437 0371 0100     		.2byte	0x1
 1438 0373 50       		.byte	0x50
 1439 0374 24000000 		.4byte	.LVL55
 1440 0378 64010000 		.4byte	.LFE8
 1441 037c 0100     		.2byte	0x1
ARM GAS  /cygdrive/c/Users/Chris/AppData/Local/Temp/ccTUaxdK.s 			page 35


 1442 037e 58       		.byte	0x58
 1443 037f 00000000 		.4byte	0x0
 1444 0383 00000000 		.4byte	0x0
 1445              	.LLST35:
 1446 0387 00000000 		.4byte	.LVL51
 1447 038b 04000000 		.4byte	.LVL52
 1448 038f 0100     		.2byte	0x1
 1449 0391 51       		.byte	0x51
 1450 0392 0C000000 		.4byte	.LVL53
 1451 0396 28000000 		.4byte	.LVL56
 1452 039a 0100     		.2byte	0x1
 1453 039c 51       		.byte	0x51
 1454 039d 28000000 		.4byte	.LVL56
 1455 03a1 4C000000 		.4byte	.LVL58
 1456 03a5 0100     		.2byte	0x1
 1457 03a7 5C       		.byte	0x5c
 1458 03a8 00000000 		.4byte	0x0
 1459 03ac 00000000 		.4byte	0x0
 1460              	.LLST36:
 1461 03b0 24000000 		.4byte	.LVL55
 1462 03b4 58000000 		.4byte	.LVL59
 1463 03b8 0100     		.2byte	0x1
 1464 03ba 50       		.byte	0x50
 1465 03bb 00000000 		.4byte	0x0
 1466 03bf 00000000 		.4byte	0x0
 1467              	.LLST37:
 1468 03c3 90000000 		.4byte	.LVL62
 1469 03c7 98000000 		.4byte	.LVL63
 1470 03cb 0100     		.2byte	0x1
 1471 03cd 50       		.byte	0x50
 1472 03ce 00000000 		.4byte	0x0
 1473 03d2 00000000 		.4byte	0x0
 1474              		.file 2 "/cygdrive/f/ARM2008q3-66-GPL/build/install/Bin/../lib/gcc/arm-none-eabi/4.3.2/../../../..
 1475              		.file 3 "types.h"
 1476              		.section	.debug_info
 1477 0000 18080000 		.4byte	0x818
 1478 0004 0200     		.2byte	0x2
 1479 0006 00000000 		.4byte	.Ldebug_abbrev0
 1480 000a 04       		.byte	0x4
 1481 000b 01       		.uleb128 0x1
 1482 000c CA000000 		.4byte	.LASF92
 1483 0010 04       		.byte	0x4
 1484 0011 1F020000 		.4byte	.LASF93
 1485 0015 8D000000 		.4byte	.LASF94
 1486 0019 00000000 		.4byte	0x0
 1487 001d 00000000 		.4byte	0x0
 1488 0021 58000000 		.4byte	.Ldebug_ranges0+0x58
 1489 0025 00000000 		.4byte	.Ldebug_line0
 1490 0029 02       		.uleb128 0x2
 1491 002a 04       		.byte	0x4
 1492 002b 07       		.byte	0x7
 1493 002c 9E010000 		.4byte	.LASF0
 1494 0030 02       		.uleb128 0x2
 1495 0031 01       		.byte	0x1
 1496 0032 06       		.byte	0x6
 1497 0033 EB000000 		.4byte	.LASF1
 1498 0037 02       		.uleb128 0x2
ARM GAS  /cygdrive/c/Users/Chris/AppData/Local/Temp/ccTUaxdK.s 			page 36


 1499 0038 01       		.byte	0x1
 1500 0039 08       		.byte	0x8
 1501 003a E4020000 		.4byte	.LASF2
 1502 003e 02       		.uleb128 0x2
 1503 003f 02       		.byte	0x2
 1504 0040 05       		.byte	0x5
 1505 0041 02030000 		.4byte	.LASF3
 1506 0045 02       		.uleb128 0x2
 1507 0046 02       		.byte	0x2
 1508 0047 07       		.byte	0x7
 1509 0048 E5010000 		.4byte	.LASF4
 1510 004c 03       		.uleb128 0x3
 1511 004d 04       		.byte	0x4
 1512 004e 05       		.byte	0x5
 1513 004f 696E7400 		.ascii	"int\000"
 1514 0053 02       		.uleb128 0x2
 1515 0054 08       		.byte	0x8
 1516 0055 05       		.byte	0x5
 1517 0056 DD000000 		.4byte	.LASF5
 1518 005a 02       		.uleb128 0x2
 1519 005b 08       		.byte	0x8
 1520 005c 07       		.byte	0x7
 1521 005d 76000000 		.4byte	.LASF6
 1522 0061 02       		.uleb128 0x2
 1523 0062 04       		.byte	0x4
 1524 0063 05       		.byte	0x5
 1525 0064 4A010000 		.4byte	.LASF7
 1526 0068 04       		.uleb128 0x4
 1527 0069 04       		.byte	0x4
 1528 006a 07       		.byte	0x7
 1529 006b 02       		.uleb128 0x2
 1530 006c 04       		.byte	0x4
 1531 006d 07       		.byte	0x7
 1532 006e C9010000 		.4byte	.LASF8
 1533 0072 05       		.uleb128 0x5
 1534 0073 04       		.byte	0x4
 1535 0074 78000000 		.4byte	0x78
 1536 0078 02       		.uleb128 0x2
 1537 0079 01       		.byte	0x1
 1538 007a 08       		.byte	0x8
 1539 007b 67030000 		.4byte	.LASF9
 1540 007f 06       		.uleb128 0x6
 1541 0080 EE030000 		.4byte	.LASF10
 1542 0084 02       		.byte	0x2
 1543 0085 2E       		.byte	0x2e
 1544 0086 37000000 		.4byte	0x37
 1545 008a 06       		.uleb128 0x6
 1546 008b 52030000 		.4byte	.LASF11
 1547 008f 02       		.byte	0x2
 1548 0090 54       		.byte	0x54
 1549 0091 6B000000 		.4byte	0x6b
 1550 0095 06       		.uleb128 0x6
 1551 0096 91010000 		.4byte	.LASF12
 1552 009a 03       		.byte	0x3
 1553 009b 11       		.byte	0x11
 1554 009c 37000000 		.4byte	0x37
 1555 00a0 06       		.uleb128 0x6
ARM GAS  /cygdrive/c/Users/Chris/AppData/Local/Temp/ccTUaxdK.s 			page 37


 1556 00a1 54040000 		.4byte	.LASF13
 1557 00a5 03       		.byte	0x3
 1558 00a6 1A       		.byte	0x1a
 1559 00a7 AB000000 		.4byte	0xab
 1560 00ab 07       		.uleb128 0x7
 1561 00ac 45000000 		.4byte	0x45
 1562 00b0 06       		.uleb128 0x6
 1563 00b1 52020000 		.4byte	.LASF14
 1564 00b5 03       		.byte	0x3
 1565 00b6 1D       		.byte	0x1d
 1566 00b7 BB000000 		.4byte	0xbb
 1567 00bb 07       		.uleb128 0x7
 1568 00bc 29000000 		.4byte	0x29
 1569 00c0 06       		.uleb128 0x6
 1570 00c1 72030000 		.4byte	.LASF15
 1571 00c5 03       		.byte	0x3
 1572 00c6 20       		.byte	0x20
 1573 00c7 CB000000 		.4byte	0xcb
 1574 00cb 07       		.uleb128 0x7
 1575 00cc 5A000000 		.4byte	0x5a
 1576 00d0 08       		.uleb128 0x8
 1577 00d1 AB020000 		.4byte	.LASF95
 1578 00d5 01       		.byte	0x1
 1579 00d6 01       		.byte	0x1
 1580 00d7 19       		.byte	0x19
 1581 00d8 FB000000 		.4byte	0xfb
 1582 00dc 09       		.uleb128 0x9
 1583 00dd 1B000000 		.4byte	.LASF16
 1584 00e1 00       		.sleb128 0
 1585 00e2 09       		.uleb128 0x9
 1586 00e3 21000000 		.4byte	.LASF17
 1587 00e7 01       		.sleb128 1
 1588 00e8 09       		.uleb128 0x9
 1589 00e9 27000000 		.4byte	.LASF18
 1590 00ed 02       		.sleb128 2
 1591 00ee 09       		.uleb128 0x9
 1592 00ef 2D000000 		.4byte	.LASF19
 1593 00f3 03       		.sleb128 3
 1594 00f4 09       		.uleb128 0x9
 1595 00f5 87010000 		.4byte	.LASF20
 1596 00f9 04       		.sleb128 4
 1597 00fa 00       		.byte	0x0
 1598 00fb 0A       		.uleb128 0xa
 1599 00fc D2030000 		.4byte	.LASF22
 1600 0100 30       		.byte	0x30
 1601 0101 01       		.byte	0x1
 1602 0102 22       		.byte	0x22
 1603 0103 5F020000 		.4byte	0x25f
 1604 0107 0B       		.uleb128 0xb
 1605 0108 4D000000 		.4byte	.LASF21
 1606 010c 04       		.byte	0x4
 1607 010d 01       		.byte	0x1
 1608 010e 24       		.byte	0x24
 1609 010f 35010000 		.4byte	0x135
 1610 0113 0C       		.uleb128 0xc
 1611 0114 52425200 		.ascii	"RBR\000"
 1612 0118 01       		.byte	0x1
ARM GAS  /cygdrive/c/Users/Chris/AppData/Local/Temp/ccTUaxdK.s 			page 38


 1613 0119 25       		.byte	0x25
 1614 011a B0000000 		.4byte	0xb0
 1615 011e 0C       		.uleb128 0xc
 1616 011f 444C4C00 		.ascii	"DLL\000"
 1617 0123 01       		.byte	0x1
 1618 0124 26       		.byte	0x26
 1619 0125 B0000000 		.4byte	0xb0
 1620 0129 0C       		.uleb128 0xc
 1621 012a 54485200 		.ascii	"THR\000"
 1622 012e 01       		.byte	0x1
 1623 012f 27       		.byte	0x27
 1624 0130 B0000000 		.4byte	0xb0
 1625 0134 00       		.byte	0x0
 1626 0135 0B       		.uleb128 0xb
 1627 0136 4D000000 		.4byte	.LASF21
 1628 013a 04       		.byte	0x4
 1629 013b 01       		.byte	0x1
 1630 013c 2A       		.byte	0x2a
 1631 013d B2010000 		.4byte	0x1b2
 1632 0141 0A       		.uleb128 0xa
 1633 0142 D2030000 		.4byte	.LASF22
 1634 0146 04       		.byte	0x4
 1635 0147 01       		.byte	0x1
 1636 0148 2D       		.byte	0x2d
 1637 0149 92010000 		.4byte	0x192
 1638 014d 0D       		.uleb128 0xd
 1639 014e 52425200 		.ascii	"RBR\000"
 1640 0152 01       		.byte	0x1
 1641 0153 2E       		.byte	0x2e
 1642 0154 B0000000 		.4byte	0xb0
 1643 0158 04       		.byte	0x4
 1644 0159 01       		.byte	0x1
 1645 015a 1F       		.byte	0x1f
 1646 015b 02       		.byte	0x2
 1647 015c 23       		.byte	0x23
 1648 015d 00       		.uleb128 0x0
 1649 015e 0E       		.uleb128 0xe
 1650 015f D8000000 		.4byte	.LASF23
 1651 0163 01       		.byte	0x1
 1652 0164 2F       		.byte	0x2f
 1653 0165 B0000000 		.4byte	0xb0
 1654 0169 04       		.byte	0x4
 1655 016a 01       		.byte	0x1
 1656 016b 1E       		.byte	0x1e
 1657 016c 02       		.byte	0x2
 1658 016d 23       		.byte	0x23
 1659 016e 00       		.uleb128 0x0
 1660 016f 0D       		.uleb128 0xd
 1661 0170 524C5300 		.ascii	"RLS\000"
 1662 0174 01       		.byte	0x1
 1663 0175 30       		.byte	0x30
 1664 0176 B0000000 		.4byte	0xb0
 1665 017a 04       		.byte	0x4
 1666 017b 01       		.byte	0x1
 1667 017c 1D       		.byte	0x1d
 1668 017d 02       		.byte	0x2
 1669 017e 23       		.byte	0x23
ARM GAS  /cygdrive/c/Users/Chris/AppData/Local/Temp/ccTUaxdK.s 			page 39


 1670 017f 00       		.uleb128 0x0
 1671 0180 0E       		.uleb128 0xe
 1672 0181 D1020000 		.4byte	.LASF24
 1673 0185 01       		.byte	0x1
 1674 0186 31       		.byte	0x31
 1675 0187 B0000000 		.4byte	0xb0
 1676 018b 04       		.byte	0x4
 1677 018c 1D       		.byte	0x1d
 1678 018d 00       		.byte	0x0
 1679 018e 02       		.byte	0x2
 1680 018f 23       		.byte	0x23
 1681 0190 00       		.uleb128 0x0
 1682 0191 00       		.byte	0x0
 1683 0192 0C       		.uleb128 0xc
 1684 0193 444C4D00 		.ascii	"DLM\000"
 1685 0197 01       		.byte	0x1
 1686 0198 2B       		.byte	0x2b
 1687 0199 B0000000 		.4byte	0xb0
 1688 019d 0C       		.uleb128 0xc
 1689 019e 5200     		.ascii	"R\000"
 1690 01a0 01       		.byte	0x1
 1691 01a1 2C       		.byte	0x2c
 1692 01a2 B0000000 		.4byte	0xb0
 1693 01a6 0C       		.uleb128 0xc
 1694 01a7 49455200 		.ascii	"IER\000"
 1695 01ab 01       		.byte	0x1
 1696 01ac 32       		.byte	0x32
 1697 01ad 41010000 		.4byte	0x141
 1698 01b1 00       		.byte	0x0
 1699 01b2 0B       		.uleb128 0xb
 1700 01b3 4D000000 		.4byte	.LASF21
 1701 01b7 04       		.byte	0x4
 1702 01b8 01       		.byte	0x1
 1703 01b9 35       		.byte	0x35
 1704 01ba D5010000 		.4byte	0x1d5
 1705 01be 0C       		.uleb128 0xc
 1706 01bf 49495200 		.ascii	"IIR\000"
 1707 01c3 01       		.byte	0x1
 1708 01c4 36       		.byte	0x36
 1709 01c5 B0000000 		.4byte	0xb0
 1710 01c9 0C       		.uleb128 0xc
 1711 01ca 46435200 		.ascii	"FCR\000"
 1712 01ce 01       		.byte	0x1
 1713 01cf 37       		.byte	0x37
 1714 01d0 B0000000 		.4byte	0xb0
 1715 01d4 00       		.byte	0x0
 1716 01d5 0F       		.uleb128 0xf
 1717 01d6 523100   		.ascii	"R1\000"
 1718 01d9 01       		.byte	0x1
 1719 01da 28       		.byte	0x28
 1720 01db 07010000 		.4byte	0x107
 1721 01df 02       		.byte	0x2
 1722 01e0 23       		.byte	0x23
 1723 01e1 00       		.uleb128 0x0
 1724 01e2 0F       		.uleb128 0xf
 1725 01e3 523200   		.ascii	"R2\000"
 1726 01e6 01       		.byte	0x1
ARM GAS  /cygdrive/c/Users/Chris/AppData/Local/Temp/ccTUaxdK.s 			page 40


 1727 01e7 33       		.byte	0x33
 1728 01e8 35010000 		.4byte	0x135
 1729 01ec 02       		.byte	0x2
 1730 01ed 23       		.byte	0x23
 1731 01ee 04       		.uleb128 0x4
 1732 01ef 0F       		.uleb128 0xf
 1733 01f0 523300   		.ascii	"R3\000"
 1734 01f3 01       		.byte	0x1
 1735 01f4 38       		.byte	0x38
 1736 01f5 B2010000 		.4byte	0x1b2
 1737 01f9 02       		.byte	0x2
 1738 01fa 23       		.byte	0x23
 1739 01fb 08       		.uleb128 0x8
 1740 01fc 0F       		.uleb128 0xf
 1741 01fd 4C435200 		.ascii	"LCR\000"
 1742 0201 01       		.byte	0x1
 1743 0202 3A       		.byte	0x3a
 1744 0203 B0000000 		.4byte	0xb0
 1745 0207 02       		.byte	0x2
 1746 0208 23       		.byte	0x23
 1747 0209 0C       		.uleb128 0xc
 1748 020a 0F       		.uleb128 0xf
 1749 020b 4D435200 		.ascii	"MCR\000"
 1750 020f 01       		.byte	0x1
 1751 0210 3B       		.byte	0x3b
 1752 0211 B0000000 		.4byte	0xb0
 1753 0215 02       		.byte	0x2
 1754 0216 23       		.byte	0x23
 1755 0217 10       		.uleb128 0x10
 1756 0218 0F       		.uleb128 0xf
 1757 0219 4C535200 		.ascii	"LSR\000"
 1758 021d 01       		.byte	0x1
 1759 021e 3C       		.byte	0x3c
 1760 021f B0000000 		.4byte	0xb0
 1761 0223 02       		.byte	0x2
 1762 0224 23       		.byte	0x23
 1763 0225 14       		.uleb128 0x14
 1764 0226 0F       		.uleb128 0xf
 1765 0227 4D535200 		.ascii	"MSR\000"
 1766 022b 01       		.byte	0x1
 1767 022c 3D       		.byte	0x3d
 1768 022d B0000000 		.4byte	0xb0
 1769 0231 02       		.byte	0x2
 1770 0232 23       		.byte	0x23
 1771 0233 18       		.uleb128 0x18
 1772 0234 0F       		.uleb128 0xf
 1773 0235 53435200 		.ascii	"SCR\000"
 1774 0239 01       		.byte	0x1
 1775 023a 3E       		.byte	0x3e
 1776 023b B0000000 		.4byte	0xb0
 1777 023f 02       		.byte	0x2
 1778 0240 23       		.byte	0x23
 1779 0241 1C       		.uleb128 0x1c
 1780 0242 0F       		.uleb128 0xf
 1781 0243 41435200 		.ascii	"ACR\000"
 1782 0247 01       		.byte	0x1
 1783 0248 3F       		.byte	0x3f
ARM GAS  /cygdrive/c/Users/Chris/AppData/Local/Temp/ccTUaxdK.s 			page 41


 1784 0249 C0000000 		.4byte	0xc0
 1785 024d 02       		.byte	0x2
 1786 024e 23       		.byte	0x23
 1787 024f 20       		.uleb128 0x20
 1788 0250 0F       		.uleb128 0xf
 1789 0251 46445200 		.ascii	"FDR\000"
 1790 0255 01       		.byte	0x1
 1791 0256 40       		.byte	0x40
 1792 0257 A0000000 		.4byte	0xa0
 1793 025b 02       		.byte	0x2
 1794 025c 23       		.byte	0x23
 1795 025d 28       		.uleb128 0x28
 1796 025e 00       		.byte	0x0
 1797 025f 0A       		.uleb128 0xa
 1798 0260 D2030000 		.4byte	.LASF22
 1799 0264 18       		.byte	0x18
 1800 0265 01       		.byte	0x1
 1801 0266 44       		.byte	0x44
 1802 0267 C0020000 		.4byte	0x2c0
 1803 026b 10       		.uleb128 0x10
 1804 026c 99030000 		.4byte	.LASF25
 1805 0270 01       		.byte	0x1
 1806 0271 46       		.byte	0x46
 1807 0272 C0020000 		.4byte	0x2c0
 1808 0276 02       		.byte	0x2
 1809 0277 23       		.byte	0x23
 1810 0278 00       		.uleb128 0x0
 1811 0279 10       		.uleb128 0x10
 1812 027a 5E010000 		.4byte	.LASF26
 1813 027e 01       		.byte	0x1
 1814 027f 47       		.byte	0x47
 1815 0280 8A000000 		.4byte	0x8a
 1816 0284 02       		.byte	0x2
 1817 0285 23       		.byte	0x23
 1818 0286 04       		.uleb128 0x4
 1819 0287 10       		.uleb128 0x10
 1820 0288 35040000 		.4byte	.LASF27
 1821 028c 01       		.byte	0x1
 1822 028d 48       		.byte	0x48
 1823 028e 8A000000 		.4byte	0x8a
 1824 0292 02       		.byte	0x2
 1825 0293 23       		.byte	0x23
 1826 0294 08       		.uleb128 0x8
 1827 0295 10       		.uleb128 0x10
 1828 0296 01020000 		.4byte	.LASF28
 1829 029a 01       		.byte	0x1
 1830 029b 4A       		.byte	0x4a
 1831 029c C0020000 		.4byte	0x2c0
 1832 02a0 02       		.byte	0x2
 1833 02a1 23       		.byte	0x23
 1834 02a2 0C       		.uleb128 0xc
 1835 02a3 10       		.uleb128 0x10
 1836 02a4 53010000 		.4byte	.LASF29
 1837 02a8 01       		.byte	0x1
 1838 02a9 4B       		.byte	0x4b
 1839 02aa 8A000000 		.4byte	0x8a
 1840 02ae 02       		.byte	0x2
ARM GAS  /cygdrive/c/Users/Chris/AppData/Local/Temp/ccTUaxdK.s 			page 42


 1841 02af 23       		.byte	0x23
 1842 02b0 10       		.uleb128 0x10
 1843 02b1 10       		.uleb128 0x10
 1844 02b2 3B030000 		.4byte	.LASF30
 1845 02b6 01       		.byte	0x1
 1846 02b7 4C       		.byte	0x4c
 1847 02b8 8A000000 		.4byte	0x8a
 1848 02bc 02       		.byte	0x2
 1849 02bd 23       		.byte	0x23
 1850 02be 14       		.uleb128 0x14
 1851 02bf 00       		.byte	0x0
 1852 02c0 05       		.uleb128 0x5
 1853 02c1 04       		.byte	0x4
 1854 02c2 B0000000 		.4byte	0xb0
 1855 02c6 0A       		.uleb128 0xa
 1856 02c7 D2030000 		.4byte	.LASF22
 1857 02cb 08       		.byte	0x8
 1858 02cc 01       		.byte	0x1
 1859 02cd 51       		.byte	0x51
 1860 02ce FD020000 		.4byte	0x2fd
 1861 02d2 10       		.uleb128 0x10
 1862 02d3 96010000 		.4byte	.LASF31
 1863 02d7 01       		.byte	0x1
 1864 02d8 52       		.byte	0x52
 1865 02d9 FD020000 		.4byte	0x2fd
 1866 02dd 02       		.byte	0x2
 1867 02de 23       		.byte	0x23
 1868 02df 00       		.uleb128 0x0
 1869 02e0 10       		.uleb128 0x10
 1870 02e1 11030000 		.4byte	.LASF32
 1871 02e5 01       		.byte	0x1
 1872 02e6 53       		.byte	0x53
 1873 02e7 7F000000 		.4byte	0x7f
 1874 02eb 02       		.byte	0x2
 1875 02ec 23       		.byte	0x23
 1876 02ed 04       		.uleb128 0x4
 1877 02ee 10       		.uleb128 0x10
 1878 02ef E5030000 		.4byte	.LASF33
 1879 02f3 01       		.byte	0x1
 1880 02f4 54       		.byte	0x54
 1881 02f5 7F000000 		.4byte	0x7f
 1882 02f9 02       		.byte	0x2
 1883 02fa 23       		.byte	0x23
 1884 02fb 05       		.uleb128 0x5
 1885 02fc 00       		.byte	0x0
 1886 02fd 05       		.uleb128 0x5
 1887 02fe 04       		.byte	0x4
 1888 02ff 8A000000 		.4byte	0x8a
 1889 0303 0A       		.uleb128 0xa
 1890 0304 D2030000 		.4byte	.LASF22
 1891 0308 50       		.byte	0x50
 1892 0309 01       		.byte	0x1
 1893 030a 58       		.byte	0x58
 1894 030b 56030000 		.4byte	0x356
 1895 030f 10       		.uleb128 0x10
 1896 0310 F8010000 		.4byte	.LASF34
 1897 0314 01       		.byte	0x1
ARM GAS  /cygdrive/c/Users/Chris/AppData/Local/Temp/ccTUaxdK.s 			page 43


 1898 0315 59       		.byte	0x59
 1899 0316 66030000 		.4byte	0x366
 1900 031a 02       		.byte	0x2
 1901 031b 23       		.byte	0x23
 1902 031c 00       		.uleb128 0x0
 1903 031d 10       		.uleb128 0x10
 1904 031e F7000000 		.4byte	.LASF35
 1905 0322 01       		.byte	0x1
 1906 0323 5A       		.byte	0x5a
 1907 0324 B0000000 		.4byte	0xb0
 1908 0328 02       		.byte	0x2
 1909 0329 23       		.byte	0x23
 1910 032a 40       		.uleb128 0x40
 1911 032b 10       		.uleb128 0x10
 1912 032c DD020000 		.4byte	.LASF36
 1913 0330 01       		.byte	0x1
 1914 0331 5B       		.byte	0x5b
 1915 0332 B0000000 		.4byte	0xb0
 1916 0336 02       		.byte	0x2
 1917 0337 23       		.byte	0x23
 1918 0338 44       		.uleb128 0x44
 1919 0339 10       		.uleb128 0x10
 1920 033a 3C040000 		.4byte	.LASF37
 1921 033e 01       		.byte	0x1
 1922 033f 5C       		.byte	0x5c
 1923 0340 B0000000 		.4byte	0xb0
 1924 0344 02       		.byte	0x2
 1925 0345 23       		.byte	0x23
 1926 0346 48       		.uleb128 0x48
 1927 0347 10       		.uleb128 0x10
 1928 0348 80010000 		.4byte	.LASF38
 1929 034c 01       		.byte	0x1
 1930 034d 5D       		.byte	0x5d
 1931 034e A0000000 		.4byte	0xa0
 1932 0352 02       		.byte	0x2
 1933 0353 23       		.byte	0x23
 1934 0354 4C       		.uleb128 0x4c
 1935 0355 00       		.byte	0x0
 1936 0356 11       		.uleb128 0x11
 1937 0357 37000000 		.4byte	0x37
 1938 035b 66030000 		.4byte	0x366
 1939 035f 12       		.uleb128 0x12
 1940 0360 68000000 		.4byte	0x68
 1941 0364 3F       		.byte	0x3f
 1942 0365 00       		.byte	0x0
 1943 0366 07       		.uleb128 0x7
 1944 0367 56030000 		.4byte	0x356
 1945 036b 13       		.uleb128 0x13
 1946 036c 01       		.byte	0x1
 1947 036d 40010000 		.4byte	.LASF72
 1948 0371 01       		.byte	0x1
 1949 0372 C0       		.byte	0xc0
 1950 0373 2D030000 		.4byte	.LASF96
 1951 0377 00000000 		.4byte	.LFB2
 1952 037b D8000000 		.4byte	.LFE2
 1953 037f 00000000 		.4byte	.LLST0
 1954 0383 F2030000 		.4byte	0x3f2
ARM GAS  /cygdrive/c/Users/Chris/AppData/Local/Temp/ccTUaxdK.s 			page 44


 1955 0387 14       		.uleb128 0x14
 1956 0388 5F000000 		.4byte	.LASF52
 1957 038c 01       		.byte	0x1
 1958 038d C0       		.byte	0xc0
 1959 038e 7F000000 		.4byte	0x7f
 1960 0392 1F000000 		.4byte	.LLST1
 1961 0396 15       		.uleb128 0x15
 1962 0397 5C020000 		.4byte	.LASF39
 1963 039b 01       		.byte	0x1
 1964 039c C1       		.byte	0xc1
 1965 039d 95000000 		.4byte	0x95
 1966 03a1 48000000 		.4byte	.LLST2
 1967 03a5 15       		.uleb128 0x15
 1968 03a6 D8020000 		.4byte	.LASF40
 1969 03aa 01       		.byte	0x1
 1970 03ab C2       		.byte	0xc2
 1971 03ac F2030000 		.4byte	0x3f2
 1972 03b0 71000000 		.4byte	.LLST3
 1973 03b4 16       		.uleb128 0x16
 1974 03b5 20000000 		.4byte	.LBB3
 1975 03b9 70000000 		.4byte	.LBE3
 1976 03bd DC030000 		.4byte	0x3dc
 1977 03c1 15       		.uleb128 0x15
 1978 03c2 6C030000 		.4byte	.LASF41
 1979 03c6 01       		.byte	0x1
 1980 03c7 CB       		.byte	0xcb
 1981 03c8 B0000000 		.4byte	0xb0
 1982 03cc 8F000000 		.4byte	.LLST4
 1983 03d0 17       		.uleb128 0x17
 1984 03d1 4D030000 		.4byte	.LASF42
 1985 03d5 01       		.byte	0x1
 1986 03d6 CC       		.byte	0xcc
 1987 03d7 C0020000 		.4byte	0x2c0
 1988 03db 00       		.byte	0x0
 1989 03dc 18       		.uleb128 0x18
 1990 03dd 9C000000 		.4byte	.LBB4
 1991 03e1 C8000000 		.4byte	.LBE4
 1992 03e5 17       		.uleb128 0x17
 1993 03e6 12000000 		.4byte	.LASF43
 1994 03ea 01       		.byte	0x1
 1995 03eb E1       		.byte	0xe1
 1996 03ec 95000000 		.4byte	0x95
 1997 03f0 00       		.byte	0x0
 1998 03f1 00       		.byte	0x0
 1999 03f2 05       		.uleb128 0x5
 2000 03f3 04       		.byte	0x4
 2001 03f4 F8030000 		.4byte	0x3f8
 2002 03f8 07       		.uleb128 0x7
 2003 03f9 FB000000 		.4byte	0xfb
 2004 03fd 19       		.uleb128 0x19
 2005 03fe 01       		.byte	0x1
 2006 03ff 33000000 		.4byte	.LASF44
 2007 0403 01       		.byte	0x1
 2008 0404 EF       		.byte	0xef
 2009 0405 9B020000 		.4byte	.LASF46
 2010 0409 00000000 		.4byte	.LFB3
 2011 040d 30000000 		.4byte	.LFE3
ARM GAS  /cygdrive/c/Users/Chris/AppData/Local/Temp/ccTUaxdK.s 			page 45


 2012 0411 01       		.byte	0x1
 2013 0412 5D       		.byte	0x5d
 2014 0413 19       		.uleb128 0x19
 2015 0414 01       		.byte	0x1
 2016 0415 21040000 		.4byte	.LASF45
 2017 0419 01       		.byte	0x1
 2018 041a FF       		.byte	0xff
 2019 041b 30010000 		.4byte	.LASF47
 2020 041f 00000000 		.4byte	.LFB4
 2021 0423 30000000 		.4byte	.LFE4
 2022 0427 01       		.byte	0x1
 2023 0428 5D       		.byte	0x5d
 2024 0429 1A       		.uleb128 0x1a
 2025 042a 01       		.byte	0x1
 2026 042b B2030000 		.4byte	.LASF48
 2027 042f 01       		.byte	0x1
 2028 0430 0F01     		.2byte	0x10f
 2029 0432 A2030000 		.4byte	.LASF50
 2030 0436 00000000 		.4byte	.LFB5
 2031 043a 30000000 		.4byte	.LFE5
 2032 043e 01       		.byte	0x1
 2033 043f 5D       		.byte	0x5d
 2034 0440 1A       		.uleb128 0x1a
 2035 0441 01       		.byte	0x1
 2036 0442 42030000 		.4byte	.LASF49
 2037 0446 01       		.byte	0x1
 2038 0447 1F01     		.2byte	0x11f
 2039 0449 0A020000 		.4byte	.LASF51
 2040 044d 00000000 		.4byte	.LFB6
 2041 0451 30000000 		.4byte	.LFE6
 2042 0455 01       		.byte	0x1
 2043 0456 5D       		.byte	0x5d
 2044 0457 1B       		.uleb128 0x1b
 2045 0458 01       		.byte	0x1
 2046 0459 69010000 		.4byte	.LASF66
 2047 045d 01       		.byte	0x1
 2048 045e 3A01     		.2byte	0x13a
 2049 0460 0E010000 		.4byte	.LASF68
 2050 0464 8A000000 		.4byte	0x8a
 2051 0468 00000000 		.4byte	.LFB7
 2052 046c 60010000 		.4byte	.LFE7
 2053 0470 BA000000 		.4byte	.LLST9
 2054 0474 96050000 		.4byte	0x596
 2055 0478 1C       		.uleb128 0x1c
 2056 0479 C0000000 		.4byte	.LASF53
 2057 047d 01       		.byte	0x1
 2058 047e 3A01     		.2byte	0x13a
 2059 0480 8A000000 		.4byte	0x8a
 2060 0484 E6000000 		.4byte	.LLST10
 2061 0488 1C       		.uleb128 0x1c
 2062 0489 24030000 		.4byte	.LASF54
 2063 048d 01       		.byte	0x1
 2064 048e 3A01     		.2byte	0x13a
 2065 0490 8A000000 		.4byte	0x8a
 2066 0494 4D010000 		.4byte	.LLST11
 2067 0498 1C       		.uleb128 0x1c
 2068 0499 BC020000 		.4byte	.LASF55
ARM GAS  /cygdrive/c/Users/Chris/AppData/Local/Temp/ccTUaxdK.s 			page 46


 2069 049d 01       		.byte	0x1
 2070 049e 3A01     		.2byte	0x13a
 2071 04a0 96050000 		.4byte	0x596
 2072 04a4 6B010000 		.4byte	.LLST12
 2073 04a8 1C       		.uleb128 0x1c
 2074 04a9 5B030000 		.4byte	.LASF56
 2075 04ad 01       		.byte	0x1
 2076 04ae 3A01     		.2byte	0x13a
 2077 04b0 9D050000 		.4byte	0x59d
 2078 04b4 96010000 		.4byte	.LLST13
 2079 04b8 1C       		.uleb128 0x1c
 2080 04b9 DB010000 		.4byte	.LASF57
 2081 04bd 01       		.byte	0x1
 2082 04be 3A01     		.2byte	0x13a
 2083 04c0 A8050000 		.4byte	0x5a8
 2084 04c4 C1010000 		.4byte	.LLST14
 2085 04c8 1D       		.uleb128 0x1d
 2086 04c9 7E020000 		.4byte	.LASF58
 2087 04cd 01       		.byte	0x1
 2088 04ce 4201     		.2byte	0x142
 2089 04d0 8A000000 		.4byte	0x8a
 2090 04d4 01       		.byte	0x1
 2091 04d5 5A       		.byte	0x5a
 2092 04d6 1D       		.uleb128 0x1d
 2093 04d7 2A020000 		.4byte	.LASF59
 2094 04db 01       		.byte	0x1
 2095 04dc 4301     		.2byte	0x143
 2096 04de 8A000000 		.4byte	0x8a
 2097 04e2 01       		.byte	0x1
 2098 04e3 58       		.byte	0x58
 2099 04e4 16       		.uleb128 0x16
 2100 04e5 40000000 		.4byte	.LBB6
 2101 04e9 60000000 		.4byte	.LBE6
 2102 04ed 12050000 		.4byte	0x512
 2103 04f1 1E       		.uleb128 0x1e
 2104 04f2 8E020000 		.4byte	.LASF60
 2105 04f6 01       		.byte	0x1
 2106 04f7 4601     		.2byte	0x146
 2107 04f9 8A000000 		.4byte	0x8a
 2108 04fd E1010000 		.4byte	.LLST15
 2109 0501 1E       		.uleb128 0x1e
 2110 0502 86030000 		.4byte	.LASF61
 2111 0506 01       		.byte	0x1
 2112 0507 4701     		.2byte	0x147
 2113 0509 8A000000 		.4byte	0x8a
 2114 050d FF010000 		.4byte	.LLST16
 2115 0511 00       		.byte	0x0
 2116 0512 18       		.uleb128 0x18
 2117 0513 88000000 		.4byte	.LBB7
 2118 0517 50010000 		.4byte	.LBE7
 2119 051b 1F       		.uleb128 0x1f
 2120 051c 6D7600   		.ascii	"mv\000"
 2121 051f 01       		.byte	0x1
 2122 0520 4F01     		.2byte	0x14f
 2123 0522 8A000000 		.4byte	0x8a
 2124 0526 01       		.byte	0x1
 2125 0527 57       		.byte	0x57
ARM GAS  /cygdrive/c/Users/Chris/AppData/Local/Temp/ccTUaxdK.s 			page 47


 2126 0528 18       		.uleb128 0x18
 2127 0529 88000000 		.4byte	.LBB8
 2128 052d 38010000 		.4byte	.LBE8
 2129 0531 1F       		.uleb128 0x1f
 2130 0532 64617600 		.ascii	"dav\000"
 2131 0536 01       		.byte	0x1
 2132 0537 5001     		.2byte	0x150
 2133 0539 8A000000 		.4byte	0x8a
 2134 053d 01       		.byte	0x1
 2135 053e 56       		.byte	0x56
 2136 053f 20       		.uleb128 0x20
 2137 0540 00000000 		.4byte	.Ldebug_ranges0+0x0
 2138 0544 1D       		.uleb128 0x1d
 2139 0545 3E000000 		.4byte	.LASF62
 2140 0549 01       		.byte	0x1
 2141 054a 5101     		.2byte	0x151
 2142 054c 8A000000 		.4byte	0x8a
 2143 0550 01       		.byte	0x1
 2144 0551 55       		.byte	0x55
 2145 0552 1E       		.uleb128 0x1e
 2146 0553 16040000 		.4byte	.LASF63
 2147 0557 01       		.byte	0x1
 2148 0558 5201     		.2byte	0x152
 2149 055a 8A000000 		.4byte	0x8a
 2150 055e 12020000 		.4byte	.LLST17
 2151 0562 21       		.uleb128 0x21
 2152 0563 18000000 		.4byte	.Ldebug_ranges0+0x18
 2153 0567 7C050000 		.4byte	0x57c
 2154 056b 1E       		.uleb128 0x1e
 2155 056c 41020000 		.4byte	.LASF64
 2156 0570 01       		.byte	0x1
 2157 0571 5401     		.2byte	0x154
 2158 0573 8A000000 		.4byte	0x8a
 2159 0577 54020000 		.4byte	.LLST18
 2160 057b 00       		.byte	0x0
 2161 057c 20       		.uleb128 0x20
 2162 057d 30000000 		.4byte	.Ldebug_ranges0+0x30
 2163 0581 1E       		.uleb128 0x1e
 2164 0582 41020000 		.4byte	.LASF64
 2165 0586 01       		.byte	0x1
 2166 0587 5E01     		.2byte	0x15e
 2167 0589 8A000000 		.4byte	0x8a
 2168 058d 67020000 		.4byte	.LLST19
 2169 0591 00       		.byte	0x0
 2170 0592 00       		.byte	0x0
 2171 0593 00       		.byte	0x0
 2172 0594 00       		.byte	0x0
 2173 0595 00       		.byte	0x0
 2174 0596 02       		.uleb128 0x2
 2175 0597 01       		.byte	0x1
 2176 0598 02       		.byte	0x2
 2177 0599 1A020000 		.4byte	.LASF65
 2178 059d 22       		.uleb128 0x22
 2179 059e A2050000 		.4byte	0x5a2
 2180 05a2 23       		.uleb128 0x23
 2181 05a3 04       		.byte	0x4
 2182 05a4 8A000000 		.4byte	0x8a
ARM GAS  /cygdrive/c/Users/Chris/AppData/Local/Temp/ccTUaxdK.s 			page 48


 2183 05a8 22       		.uleb128 0x22
 2184 05a9 A2050000 		.4byte	0x5a2
 2185 05ad 24       		.uleb128 0x24
 2186 05ae 01       		.byte	0x1
 2187 05af 5E040000 		.4byte	.LASF67
 2188 05b3 01       		.byte	0x1
 2189 05b4 AB01     		.2byte	0x1ab
 2190 05b6 01040000 		.4byte	.LASF69
 2191 05ba 4C000000 		.4byte	0x4c
 2192 05be 00000000 		.4byte	.LFB9
 2193 05c2 24000000 		.4byte	.LFE9
 2194 05c6 01       		.byte	0x1
 2195 05c7 5D       		.byte	0x5d
 2196 05c8 DD050000 		.4byte	0x5dd
 2197 05cc 1C       		.uleb128 0x1c
 2198 05cd 5F000000 		.4byte	.LASF52
 2199 05d1 01       		.byte	0x1
 2200 05d2 AB01     		.2byte	0x1ab
 2201 05d4 7F000000 		.4byte	0x7f
 2202 05d8 85020000 		.4byte	.LLST21
 2203 05dc 00       		.byte	0x0
 2204 05dd 24       		.uleb128 0x24
 2205 05de 01       		.byte	0x1
 2206 05df 43040000 		.4byte	.LASF70
 2207 05e3 01       		.byte	0x1
 2208 05e4 B401     		.2byte	0x1b4
 2209 05e6 AB010000 		.4byte	.LASF71
 2210 05ea 4C000000 		.4byte	0x4c
 2211 05ee 00000000 		.4byte	.LFB10
 2212 05f2 28000000 		.4byte	.LFE10
 2213 05f6 01       		.byte	0x1
 2214 05f7 5D       		.byte	0x5d
 2215 05f8 1A060000 		.4byte	0x61a
 2216 05fc 1C       		.uleb128 0x1c
 2217 05fd 5F000000 		.4byte	.LASF52
 2218 0601 01       		.byte	0x1
 2219 0602 B401     		.2byte	0x1b4
 2220 0604 7F000000 		.4byte	0x7f
 2221 0608 98020000 		.4byte	.LLST23
 2222 060c 25       		.uleb128 0x25
 2223 060d 636800   		.ascii	"ch\000"
 2224 0610 01       		.byte	0x1
 2225 0611 B401     		.2byte	0x1b4
 2226 0613 4C000000 		.4byte	0x4c
 2227 0617 01       		.byte	0x1
 2228 0618 51       		.byte	0x51
 2229 0619 00       		.byte	0x0
 2230 061a 26       		.uleb128 0x26
 2231 061b 01       		.byte	0x1
 2232 061c 7C030000 		.4byte	.LASF73
 2233 0620 01       		.byte	0x1
 2234 0621 BD01     		.2byte	0x1bd
 2235 0623 FE000000 		.4byte	.LASF78
 2236 0627 00000000 		.4byte	.LFB11
 2237 062b 34000000 		.4byte	.LFE11
 2238 062f AB020000 		.4byte	.LLST24
 2239 0633 58060000 		.4byte	0x658
ARM GAS  /cygdrive/c/Users/Chris/AppData/Local/Temp/ccTUaxdK.s 			page 49


 2240 0637 1C       		.uleb128 0x1c
 2241 0638 5F000000 		.4byte	.LASF52
 2242 063c 01       		.byte	0x1
 2243 063d BD01     		.2byte	0x1bd
 2244 063f 7F000000 		.4byte	0x7f
 2245 0643 CA020000 		.4byte	.LLST25
 2246 0647 27       		.uleb128 0x27
 2247 0648 73747200 		.ascii	"str\000"
 2248 064c 01       		.byte	0x1
 2249 064d BD01     		.2byte	0x1bd
 2250 064f 72000000 		.4byte	0x72
 2251 0653 E8020000 		.4byte	.LLST26
 2252 0657 00       		.byte	0x0
 2253 0658 24       		.uleb128 0x24
 2254 0659 01       		.byte	0x1
 2255 065a F6030000 		.4byte	.LASF74
 2256 065e 01       		.byte	0x1
 2257 065f C601     		.2byte	0x1c6
 2258 0661 F2020000 		.4byte	.LASF75
 2259 0665 4C000000 		.4byte	0x4c
 2260 0669 00000000 		.4byte	.LFB12
 2261 066d 48000000 		.4byte	.LFE12
 2262 0671 01       		.byte	0x1
 2263 0672 5D       		.byte	0x5d
 2264 0673 A2060000 		.4byte	0x6a2
 2265 0677 1C       		.uleb128 0x1c
 2266 0678 5F000000 		.4byte	.LASF52
 2267 067c 01       		.byte	0x1
 2268 067d C601     		.2byte	0x1c6
 2269 067f 7F000000 		.4byte	0x7f
 2270 0683 06030000 		.4byte	.LLST28
 2271 0687 28       		.uleb128 0x28
 2272 0688 6300     		.ascii	"c\000"
 2273 068a 01       		.byte	0x1
 2274 068b C801     		.2byte	0x1c8
 2275 068d 4C000000 		.4byte	0x4c
 2276 0691 19030000 		.4byte	.LLST29
 2277 0695 29       		.uleb128 0x29
 2278 0696 65020000 		.4byte	.LASF76
 2279 069a 01       		.byte	0x1
 2280 069b C901     		.2byte	0x1c9
 2281 069d C0020000 		.4byte	0x2c0
 2282 06a1 00       		.byte	0x0
 2283 06a2 2A       		.uleb128 0x2a
 2284 06a3 01       		.byte	0x1
 2285 06a4 BD010000 		.4byte	.LASF77
 2286 06a8 01       		.byte	0x1
 2287 06a9 DA01     		.2byte	0x1da
 2288 06ab 6E040000 		.4byte	.LASF79
 2289 06af 00000000 		.4byte	.LFB13
 2290 06b3 1C000000 		.4byte	.LFE13
 2291 06b7 01       		.byte	0x1
 2292 06b8 5D       		.byte	0x5d
 2293 06b9 CC060000 		.4byte	0x6cc
 2294 06bd 2B       		.uleb128 0x2b
 2295 06be 5F000000 		.4byte	.LASF52
 2296 06c2 01       		.byte	0x1
ARM GAS  /cygdrive/c/Users/Chris/AppData/Local/Temp/ccTUaxdK.s 			page 50


 2297 06c3 DA01     		.2byte	0x1da
 2298 06c5 7F000000 		.4byte	0x7f
 2299 06c9 01       		.byte	0x1
 2300 06ca 50       		.byte	0x50
 2301 06cb 00       		.byte	0x0
 2302 06cc 24       		.uleb128 0x24
 2303 06cd 01       		.byte	0x1
 2304 06ce 67000000 		.4byte	.LASF80
 2305 06d2 01       		.byte	0x1
 2306 06d3 E401     		.2byte	0x1e4
 2307 06d5 6A020000 		.4byte	.LASF81
 2308 06d9 4C000000 		.4byte	0x4c
 2309 06dd 00000000 		.4byte	.LFB14
 2310 06e1 20000000 		.4byte	.LFE14
 2311 06e5 01       		.byte	0x1
 2312 06e6 5D       		.byte	0x5d
 2313 06e7 FC060000 		.4byte	0x6fc
 2314 06eb 1C       		.uleb128 0x1c
 2315 06ec 5F000000 		.4byte	.LASF52
 2316 06f0 01       		.byte	0x1
 2317 06f1 E401     		.2byte	0x1e4
 2318 06f3 7F000000 		.4byte	0x7f
 2319 06f7 2C030000 		.4byte	.LLST32
 2320 06fb 00       		.byte	0x0
 2321 06fc 26       		.uleb128 0x26
 2322 06fd 01       		.byte	0x1
 2323 06fe BD030000 		.4byte	.LASF82
 2324 0702 01       		.byte	0x1
 2325 0703 6F01     		.2byte	0x16f
 2326 0705 00000000 		.4byte	.LASF83
 2327 0709 00000000 		.4byte	.LFB8
 2328 070d 64010000 		.4byte	.LFE8
 2329 0711 3F030000 		.4byte	.LLST33
 2330 0715 84070000 		.4byte	0x784
 2331 0719 1C       		.uleb128 0x1c
 2332 071a 5F000000 		.4byte	.LASF52
 2333 071e 01       		.byte	0x1
 2334 071f 6F01     		.2byte	0x16f
 2335 0721 7F000000 		.4byte	0x7f
 2336 0725 5E030000 		.4byte	.LLST34
 2337 0729 1C       		.uleb128 0x1c
 2338 072a 62030000 		.4byte	.LASF84
 2339 072e 01       		.byte	0x1
 2340 072f 6F01     		.2byte	0x16f
 2341 0731 8A000000 		.4byte	0x8a
 2342 0735 87030000 		.4byte	.LLST35
 2343 0739 1E       		.uleb128 0x1e
 2344 073a 0C030000 		.4byte	.LASF85
 2345 073e 01       		.byte	0x1
 2346 073f 7601     		.2byte	0x176
 2347 0741 8A000000 		.4byte	0x8a
 2348 0745 B0030000 		.4byte	.LLST36
 2349 0749 29       		.uleb128 0x29
 2350 074a 1B030000 		.4byte	.LASF86
 2351 074e 01       		.byte	0x1
 2352 074f 7701     		.2byte	0x177
 2353 0751 7F000000 		.4byte	0x7f
ARM GAS  /cygdrive/c/Users/Chris/AppData/Local/Temp/ccTUaxdK.s 			page 51


 2354 0755 1D       		.uleb128 0x1d
 2355 0756 5B030000 		.4byte	.LASF56
 2356 075a 01       		.byte	0x1
 2357 075b 8301     		.2byte	0x183
 2358 075d 8A000000 		.4byte	0x8a
 2359 0761 02       		.byte	0x2
 2360 0762 91       		.byte	0x91
 2361 0763 04       		.sleb128 4
 2362 0764 1D       		.uleb128 0x1d
 2363 0765 DB010000 		.4byte	.LASF57
 2364 0769 01       		.byte	0x1
 2365 076a 8401     		.2byte	0x184
 2366 076c 8A000000 		.4byte	0x8a
 2367 0770 02       		.byte	0x2
 2368 0771 91       		.byte	0x91
 2369 0772 00       		.sleb128 0
 2370 0773 1E       		.uleb128 0x1e
 2371 0774 4F040000 		.4byte	.LASF87
 2372 0778 01       		.byte	0x1
 2373 0779 8501     		.2byte	0x185
 2374 077b 8A000000 		.4byte	0x8a
 2375 077f C3030000 		.4byte	.LLST37
 2376 0783 00       		.byte	0x0
 2377 0784 11       		.uleb128 0x11
 2378 0785 03030000 		.4byte	0x303
 2379 0789 94070000 		.4byte	0x794
 2380 078d 12       		.uleb128 0x12
 2381 078e 68000000 		.4byte	0x68
 2382 0792 03       		.byte	0x3
 2383 0793 00       		.byte	0x0
 2384 0794 2C       		.uleb128 0x2c
 2385 0795 38020000 		.4byte	.LASF88
 2386 0799 01       		.byte	0x1
 2387 079a 70       		.byte	0x70
 2388 079b A6070000 		.4byte	0x7a6
 2389 079f 01       		.byte	0x1
 2390 07a0 05       		.byte	0x5
 2391 07a1 03       		.byte	0x3
 2392 07a2 00000000 		.4byte	uartData
 2393 07a6 07       		.uleb128 0x7
 2394 07a7 84070000 		.4byte	0x784
 2395 07ab 11       		.uleb128 0x11
 2396 07ac C6020000 		.4byte	0x2c6
 2397 07b0 BB070000 		.4byte	0x7bb
 2398 07b4 12       		.uleb128 0x12
 2399 07b5 68000000 		.4byte	0x68
 2400 07b9 03       		.byte	0x3
 2401 07ba 00       		.byte	0x0
 2402 07bb 2C       		.uleb128 0x2c
 2403 07bc C9030000 		.4byte	.LASF89
 2404 07c0 01       		.byte	0x1
 2405 07c1 74       		.byte	0x74
 2406 07c2 CD070000 		.4byte	0x7cd
 2407 07c6 01       		.byte	0x1
 2408 07c7 05       		.byte	0x5
 2409 07c8 03       		.byte	0x3
 2410 07c9 00000000 		.4byte	uartInts
ARM GAS  /cygdrive/c/Users/Chris/AppData/Local/Temp/ccTUaxdK.s 			page 52


 2411 07cd 07       		.uleb128 0x7
 2412 07ce AB070000 		.4byte	0x7ab
 2413 07d2 11       		.uleb128 0x11
 2414 07d3 5F020000 		.4byte	0x25f
 2415 07d7 E2070000 		.4byte	0x7e2
 2416 07db 12       		.uleb128 0x12
 2417 07dc 68000000 		.4byte	0x68
 2418 07e0 03       		.byte	0x3
 2419 07e1 00       		.byte	0x0
 2420 07e2 2C       		.uleb128 0x2c
 2421 07e3 2C040000 		.4byte	.LASF90
 2422 07e7 01       		.byte	0x1
 2423 07e8 8E       		.byte	0x8e
 2424 07e9 F4070000 		.4byte	0x7f4
 2425 07ed 01       		.byte	0x1
 2426 07ee 05       		.byte	0x5
 2427 07ef 03       		.byte	0x3
 2428 07f0 00000000 		.4byte	uartPins
 2429 07f4 07       		.uleb128 0x7
 2430 07f5 D2070000 		.4byte	0x7d2
 2431 07f9 11       		.uleb128 0x11
 2432 07fa F2030000 		.4byte	0x3f2
 2433 07fe 09080000 		.4byte	0x809
 2434 0802 12       		.uleb128 0x12
 2435 0803 68000000 		.4byte	0x68
 2436 0807 03       		.byte	0x3
 2437 0808 00       		.byte	0x0
 2438 0809 2C       		.uleb128 0x2c
 2439 080a 86020000 		.4byte	.LASF91
 2440 080e 01       		.byte	0x1
 2441 080f B2       		.byte	0xb2
 2442 0810 F9070000 		.4byte	0x7f9
 2443 0814 01       		.byte	0x1
 2444 0815 05       		.byte	0x5
 2445 0816 03       		.byte	0x3
 2446 0817 00000000 		.4byte	uartReg
 2447 081b 00       		.byte	0x0
 2448              		.section	.debug_abbrev
 2449 0000 01       		.uleb128 0x1
 2450 0001 11       		.uleb128 0x11
 2451 0002 01       		.byte	0x1
 2452 0003 25       		.uleb128 0x25
 2453 0004 0E       		.uleb128 0xe
 2454 0005 13       		.uleb128 0x13
 2455 0006 0B       		.uleb128 0xb
 2456 0007 03       		.uleb128 0x3
 2457 0008 0E       		.uleb128 0xe
 2458 0009 1B       		.uleb128 0x1b
 2459 000a 0E       		.uleb128 0xe
 2460 000b 11       		.uleb128 0x11
 2461 000c 01       		.uleb128 0x1
 2462 000d 52       		.uleb128 0x52
 2463 000e 01       		.uleb128 0x1
 2464 000f 55       		.uleb128 0x55
 2465 0010 06       		.uleb128 0x6
 2466 0011 10       		.uleb128 0x10
 2467 0012 06       		.uleb128 0x6
ARM GAS  /cygdrive/c/Users/Chris/AppData/Local/Temp/ccTUaxdK.s 			page 53


 2468 0013 00       		.byte	0x0
 2469 0014 00       		.byte	0x0
 2470 0015 02       		.uleb128 0x2
 2471 0016 24       		.uleb128 0x24
 2472 0017 00       		.byte	0x0
 2473 0018 0B       		.uleb128 0xb
 2474 0019 0B       		.uleb128 0xb
 2475 001a 3E       		.uleb128 0x3e
 2476 001b 0B       		.uleb128 0xb
 2477 001c 03       		.uleb128 0x3
 2478 001d 0E       		.uleb128 0xe
 2479 001e 00       		.byte	0x0
 2480 001f 00       		.byte	0x0
 2481 0020 03       		.uleb128 0x3
 2482 0021 24       		.uleb128 0x24
 2483 0022 00       		.byte	0x0
 2484 0023 0B       		.uleb128 0xb
 2485 0024 0B       		.uleb128 0xb
 2486 0025 3E       		.uleb128 0x3e
 2487 0026 0B       		.uleb128 0xb
 2488 0027 03       		.uleb128 0x3
 2489 0028 08       		.uleb128 0x8
 2490 0029 00       		.byte	0x0
 2491 002a 00       		.byte	0x0
 2492 002b 04       		.uleb128 0x4
 2493 002c 24       		.uleb128 0x24
 2494 002d 00       		.byte	0x0
 2495 002e 0B       		.uleb128 0xb
 2496 002f 0B       		.uleb128 0xb
 2497 0030 3E       		.uleb128 0x3e
 2498 0031 0B       		.uleb128 0xb
 2499 0032 00       		.byte	0x0
 2500 0033 00       		.byte	0x0
 2501 0034 05       		.uleb128 0x5
 2502 0035 0F       		.uleb128 0xf
 2503 0036 00       		.byte	0x0
 2504 0037 0B       		.uleb128 0xb
 2505 0038 0B       		.uleb128 0xb
 2506 0039 49       		.uleb128 0x49
 2507 003a 13       		.uleb128 0x13
 2508 003b 00       		.byte	0x0
 2509 003c 00       		.byte	0x0
 2510 003d 06       		.uleb128 0x6
 2511 003e 16       		.uleb128 0x16
 2512 003f 00       		.byte	0x0
 2513 0040 03       		.uleb128 0x3
 2514 0041 0E       		.uleb128 0xe
 2515 0042 3A       		.uleb128 0x3a
 2516 0043 0B       		.uleb128 0xb
 2517 0044 3B       		.uleb128 0x3b
 2518 0045 0B       		.uleb128 0xb
 2519 0046 49       		.uleb128 0x49
 2520 0047 13       		.uleb128 0x13
 2521 0048 00       		.byte	0x0
 2522 0049 00       		.byte	0x0
 2523 004a 07       		.uleb128 0x7
 2524 004b 35       		.uleb128 0x35
ARM GAS  /cygdrive/c/Users/Chris/AppData/Local/Temp/ccTUaxdK.s 			page 54


 2525 004c 00       		.byte	0x0
 2526 004d 49       		.uleb128 0x49
 2527 004e 13       		.uleb128 0x13
 2528 004f 00       		.byte	0x0
 2529 0050 00       		.byte	0x0
 2530 0051 08       		.uleb128 0x8
 2531 0052 04       		.uleb128 0x4
 2532 0053 01       		.byte	0x1
 2533 0054 03       		.uleb128 0x3
 2534 0055 0E       		.uleb128 0xe
 2535 0056 0B       		.uleb128 0xb
 2536 0057 0B       		.uleb128 0xb
 2537 0058 3A       		.uleb128 0x3a
 2538 0059 0B       		.uleb128 0xb
 2539 005a 3B       		.uleb128 0x3b
 2540 005b 0B       		.uleb128 0xb
 2541 005c 01       		.uleb128 0x1
 2542 005d 13       		.uleb128 0x13
 2543 005e 00       		.byte	0x0
 2544 005f 00       		.byte	0x0
 2545 0060 09       		.uleb128 0x9
 2546 0061 28       		.uleb128 0x28
 2547 0062 00       		.byte	0x0
 2548 0063 03       		.uleb128 0x3
 2549 0064 0E       		.uleb128 0xe
 2550 0065 1C       		.uleb128 0x1c
 2551 0066 0D       		.uleb128 0xd
 2552 0067 00       		.byte	0x0
 2553 0068 00       		.byte	0x0
 2554 0069 0A       		.uleb128 0xa
 2555 006a 13       		.uleb128 0x13
 2556 006b 01       		.byte	0x1
 2557 006c 03       		.uleb128 0x3
 2558 006d 0E       		.uleb128 0xe
 2559 006e 0B       		.uleb128 0xb
 2560 006f 0B       		.uleb128 0xb
 2561 0070 3A       		.uleb128 0x3a
 2562 0071 0B       		.uleb128 0xb
 2563 0072 3B       		.uleb128 0x3b
 2564 0073 0B       		.uleb128 0xb
 2565 0074 01       		.uleb128 0x1
 2566 0075 13       		.uleb128 0x13
 2567 0076 00       		.byte	0x0
 2568 0077 00       		.byte	0x0
 2569 0078 0B       		.uleb128 0xb
 2570 0079 17       		.uleb128 0x17
 2571 007a 01       		.byte	0x1
 2572 007b 03       		.uleb128 0x3
 2573 007c 0E       		.uleb128 0xe
 2574 007d 0B       		.uleb128 0xb
 2575 007e 0B       		.uleb128 0xb
 2576 007f 3A       		.uleb128 0x3a
 2577 0080 0B       		.uleb128 0xb
 2578 0081 3B       		.uleb128 0x3b
 2579 0082 0B       		.uleb128 0xb
 2580 0083 01       		.uleb128 0x1
 2581 0084 13       		.uleb128 0x13
ARM GAS  /cygdrive/c/Users/Chris/AppData/Local/Temp/ccTUaxdK.s 			page 55


 2582 0085 00       		.byte	0x0
 2583 0086 00       		.byte	0x0
 2584 0087 0C       		.uleb128 0xc
 2585 0088 0D       		.uleb128 0xd
 2586 0089 00       		.byte	0x0
 2587 008a 03       		.uleb128 0x3
 2588 008b 08       		.uleb128 0x8
 2589 008c 3A       		.uleb128 0x3a
 2590 008d 0B       		.uleb128 0xb
 2591 008e 3B       		.uleb128 0x3b
 2592 008f 0B       		.uleb128 0xb
 2593 0090 49       		.uleb128 0x49
 2594 0091 13       		.uleb128 0x13
 2595 0092 00       		.byte	0x0
 2596 0093 00       		.byte	0x0
 2597 0094 0D       		.uleb128 0xd
 2598 0095 0D       		.uleb128 0xd
 2599 0096 00       		.byte	0x0
 2600 0097 03       		.uleb128 0x3
 2601 0098 08       		.uleb128 0x8
 2602 0099 3A       		.uleb128 0x3a
 2603 009a 0B       		.uleb128 0xb
 2604 009b 3B       		.uleb128 0x3b
 2605 009c 0B       		.uleb128 0xb
 2606 009d 49       		.uleb128 0x49
 2607 009e 13       		.uleb128 0x13
 2608 009f 0B       		.uleb128 0xb
 2609 00a0 0B       		.uleb128 0xb
 2610 00a1 0D       		.uleb128 0xd
 2611 00a2 0B       		.uleb128 0xb
 2612 00a3 0C       		.uleb128 0xc
 2613 00a4 0B       		.uleb128 0xb
 2614 00a5 38       		.uleb128 0x38
 2615 00a6 0A       		.uleb128 0xa
 2616 00a7 00       		.byte	0x0
 2617 00a8 00       		.byte	0x0
 2618 00a9 0E       		.uleb128 0xe
 2619 00aa 0D       		.uleb128 0xd
 2620 00ab 00       		.byte	0x0
 2621 00ac 03       		.uleb128 0x3
 2622 00ad 0E       		.uleb128 0xe
 2623 00ae 3A       		.uleb128 0x3a
 2624 00af 0B       		.uleb128 0xb
 2625 00b0 3B       		.uleb128 0x3b
 2626 00b1 0B       		.uleb128 0xb
 2627 00b2 49       		.uleb128 0x49
 2628 00b3 13       		.uleb128 0x13
 2629 00b4 0B       		.uleb128 0xb
 2630 00b5 0B       		.uleb128 0xb
 2631 00b6 0D       		.uleb128 0xd
 2632 00b7 0B       		.uleb128 0xb
 2633 00b8 0C       		.uleb128 0xc
 2634 00b9 0B       		.uleb128 0xb
 2635 00ba 38       		.uleb128 0x38
 2636 00bb 0A       		.uleb128 0xa
 2637 00bc 00       		.byte	0x0
 2638 00bd 00       		.byte	0x0
ARM GAS  /cygdrive/c/Users/Chris/AppData/Local/Temp/ccTUaxdK.s 			page 56


 2639 00be 0F       		.uleb128 0xf
 2640 00bf 0D       		.uleb128 0xd
 2641 00c0 00       		.byte	0x0
 2642 00c1 03       		.uleb128 0x3
 2643 00c2 08       		.uleb128 0x8
 2644 00c3 3A       		.uleb128 0x3a
 2645 00c4 0B       		.uleb128 0xb
 2646 00c5 3B       		.uleb128 0x3b
 2647 00c6 0B       		.uleb128 0xb
 2648 00c7 49       		.uleb128 0x49
 2649 00c8 13       		.uleb128 0x13
 2650 00c9 38       		.uleb128 0x38
 2651 00ca 0A       		.uleb128 0xa
 2652 00cb 00       		.byte	0x0
 2653 00cc 00       		.byte	0x0
 2654 00cd 10       		.uleb128 0x10
 2655 00ce 0D       		.uleb128 0xd
 2656 00cf 00       		.byte	0x0
 2657 00d0 03       		.uleb128 0x3
 2658 00d1 0E       		.uleb128 0xe
 2659 00d2 3A       		.uleb128 0x3a
 2660 00d3 0B       		.uleb128 0xb
 2661 00d4 3B       		.uleb128 0x3b
 2662 00d5 0B       		.uleb128 0xb
 2663 00d6 49       		.uleb128 0x49
 2664 00d7 13       		.uleb128 0x13
 2665 00d8 38       		.uleb128 0x38
 2666 00d9 0A       		.uleb128 0xa
 2667 00da 00       		.byte	0x0
 2668 00db 00       		.byte	0x0
 2669 00dc 11       		.uleb128 0x11
 2670 00dd 01       		.uleb128 0x1
 2671 00de 01       		.byte	0x1
 2672 00df 49       		.uleb128 0x49
 2673 00e0 13       		.uleb128 0x13
 2674 00e1 01       		.uleb128 0x1
 2675 00e2 13       		.uleb128 0x13
 2676 00e3 00       		.byte	0x0
 2677 00e4 00       		.byte	0x0
 2678 00e5 12       		.uleb128 0x12
 2679 00e6 21       		.uleb128 0x21
 2680 00e7 00       		.byte	0x0
 2681 00e8 49       		.uleb128 0x49
 2682 00e9 13       		.uleb128 0x13
 2683 00ea 2F       		.uleb128 0x2f
 2684 00eb 0B       		.uleb128 0xb
 2685 00ec 00       		.byte	0x0
 2686 00ed 00       		.byte	0x0
 2687 00ee 13       		.uleb128 0x13
 2688 00ef 2E       		.uleb128 0x2e
 2689 00f0 01       		.byte	0x1
 2690 00f1 3F       		.uleb128 0x3f
 2691 00f2 0C       		.uleb128 0xc
 2692 00f3 03       		.uleb128 0x3
 2693 00f4 0E       		.uleb128 0xe
 2694 00f5 3A       		.uleb128 0x3a
 2695 00f6 0B       		.uleb128 0xb
ARM GAS  /cygdrive/c/Users/Chris/AppData/Local/Temp/ccTUaxdK.s 			page 57


 2696 00f7 3B       		.uleb128 0x3b
 2697 00f8 0B       		.uleb128 0xb
 2698 00f9 8740     		.uleb128 0x2007
 2699 00fb 0E       		.uleb128 0xe
 2700 00fc 11       		.uleb128 0x11
 2701 00fd 01       		.uleb128 0x1
 2702 00fe 12       		.uleb128 0x12
 2703 00ff 01       		.uleb128 0x1
 2704 0100 40       		.uleb128 0x40
 2705 0101 06       		.uleb128 0x6
 2706 0102 01       		.uleb128 0x1
 2707 0103 13       		.uleb128 0x13
 2708 0104 00       		.byte	0x0
 2709 0105 00       		.byte	0x0
 2710 0106 14       		.uleb128 0x14
 2711 0107 05       		.uleb128 0x5
 2712 0108 00       		.byte	0x0
 2713 0109 03       		.uleb128 0x3
 2714 010a 0E       		.uleb128 0xe
 2715 010b 3A       		.uleb128 0x3a
 2716 010c 0B       		.uleb128 0xb
 2717 010d 3B       		.uleb128 0x3b
 2718 010e 0B       		.uleb128 0xb
 2719 010f 49       		.uleb128 0x49
 2720 0110 13       		.uleb128 0x13
 2721 0111 02       		.uleb128 0x2
 2722 0112 06       		.uleb128 0x6
 2723 0113 00       		.byte	0x0
 2724 0114 00       		.byte	0x0
 2725 0115 15       		.uleb128 0x15
 2726 0116 34       		.uleb128 0x34
 2727 0117 00       		.byte	0x0
 2728 0118 03       		.uleb128 0x3
 2729 0119 0E       		.uleb128 0xe
 2730 011a 3A       		.uleb128 0x3a
 2731 011b 0B       		.uleb128 0xb
 2732 011c 3B       		.uleb128 0x3b
 2733 011d 0B       		.uleb128 0xb
 2734 011e 49       		.uleb128 0x49
 2735 011f 13       		.uleb128 0x13
 2736 0120 02       		.uleb128 0x2
 2737 0121 06       		.uleb128 0x6
 2738 0122 00       		.byte	0x0
 2739 0123 00       		.byte	0x0
 2740 0124 16       		.uleb128 0x16
 2741 0125 0B       		.uleb128 0xb
 2742 0126 01       		.byte	0x1
 2743 0127 11       		.uleb128 0x11
 2744 0128 01       		.uleb128 0x1
 2745 0129 12       		.uleb128 0x12
 2746 012a 01       		.uleb128 0x1
 2747 012b 01       		.uleb128 0x1
 2748 012c 13       		.uleb128 0x13
 2749 012d 00       		.byte	0x0
 2750 012e 00       		.byte	0x0
 2751 012f 17       		.uleb128 0x17
 2752 0130 34       		.uleb128 0x34
ARM GAS  /cygdrive/c/Users/Chris/AppData/Local/Temp/ccTUaxdK.s 			page 58


 2753 0131 00       		.byte	0x0
 2754 0132 03       		.uleb128 0x3
 2755 0133 0E       		.uleb128 0xe
 2756 0134 3A       		.uleb128 0x3a
 2757 0135 0B       		.uleb128 0xb
 2758 0136 3B       		.uleb128 0x3b
 2759 0137 0B       		.uleb128 0xb
 2760 0138 49       		.uleb128 0x49
 2761 0139 13       		.uleb128 0x13
 2762 013a 00       		.byte	0x0
 2763 013b 00       		.byte	0x0
 2764 013c 18       		.uleb128 0x18
 2765 013d 0B       		.uleb128 0xb
 2766 013e 01       		.byte	0x1
 2767 013f 11       		.uleb128 0x11
 2768 0140 01       		.uleb128 0x1
 2769 0141 12       		.uleb128 0x12
 2770 0142 01       		.uleb128 0x1
 2771 0143 00       		.byte	0x0
 2772 0144 00       		.byte	0x0
 2773 0145 19       		.uleb128 0x19
 2774 0146 2E       		.uleb128 0x2e
 2775 0147 00       		.byte	0x0
 2776 0148 3F       		.uleb128 0x3f
 2777 0149 0C       		.uleb128 0xc
 2778 014a 03       		.uleb128 0x3
 2779 014b 0E       		.uleb128 0xe
 2780 014c 3A       		.uleb128 0x3a
 2781 014d 0B       		.uleb128 0xb
 2782 014e 3B       		.uleb128 0x3b
 2783 014f 0B       		.uleb128 0xb
 2784 0150 8740     		.uleb128 0x2007
 2785 0152 0E       		.uleb128 0xe
 2786 0153 11       		.uleb128 0x11
 2787 0154 01       		.uleb128 0x1
 2788 0155 12       		.uleb128 0x12
 2789 0156 01       		.uleb128 0x1
 2790 0157 40       		.uleb128 0x40
 2791 0158 0A       		.uleb128 0xa
 2792 0159 00       		.byte	0x0
 2793 015a 00       		.byte	0x0
 2794 015b 1A       		.uleb128 0x1a
 2795 015c 2E       		.uleb128 0x2e
 2796 015d 00       		.byte	0x0
 2797 015e 3F       		.uleb128 0x3f
 2798 015f 0C       		.uleb128 0xc
 2799 0160 03       		.uleb128 0x3
 2800 0161 0E       		.uleb128 0xe
 2801 0162 3A       		.uleb128 0x3a
 2802 0163 0B       		.uleb128 0xb
 2803 0164 3B       		.uleb128 0x3b
 2804 0165 05       		.uleb128 0x5
 2805 0166 8740     		.uleb128 0x2007
 2806 0168 0E       		.uleb128 0xe
 2807 0169 11       		.uleb128 0x11
 2808 016a 01       		.uleb128 0x1
 2809 016b 12       		.uleb128 0x12
ARM GAS  /cygdrive/c/Users/Chris/AppData/Local/Temp/ccTUaxdK.s 			page 59


 2810 016c 01       		.uleb128 0x1
 2811 016d 40       		.uleb128 0x40
 2812 016e 0A       		.uleb128 0xa
 2813 016f 00       		.byte	0x0
 2814 0170 00       		.byte	0x0
 2815 0171 1B       		.uleb128 0x1b
 2816 0172 2E       		.uleb128 0x2e
 2817 0173 01       		.byte	0x1
 2818 0174 3F       		.uleb128 0x3f
 2819 0175 0C       		.uleb128 0xc
 2820 0176 03       		.uleb128 0x3
 2821 0177 0E       		.uleb128 0xe
 2822 0178 3A       		.uleb128 0x3a
 2823 0179 0B       		.uleb128 0xb
 2824 017a 3B       		.uleb128 0x3b
 2825 017b 05       		.uleb128 0x5
 2826 017c 8740     		.uleb128 0x2007
 2827 017e 0E       		.uleb128 0xe
 2828 017f 49       		.uleb128 0x49
 2829 0180 13       		.uleb128 0x13
 2830 0181 11       		.uleb128 0x11
 2831 0182 01       		.uleb128 0x1
 2832 0183 12       		.uleb128 0x12
 2833 0184 01       		.uleb128 0x1
 2834 0185 40       		.uleb128 0x40
 2835 0186 06       		.uleb128 0x6
 2836 0187 01       		.uleb128 0x1
 2837 0188 13       		.uleb128 0x13
 2838 0189 00       		.byte	0x0
 2839 018a 00       		.byte	0x0
 2840 018b 1C       		.uleb128 0x1c
 2841 018c 05       		.uleb128 0x5
 2842 018d 00       		.byte	0x0
 2843 018e 03       		.uleb128 0x3
 2844 018f 0E       		.uleb128 0xe
 2845 0190 3A       		.uleb128 0x3a
 2846 0191 0B       		.uleb128 0xb
 2847 0192 3B       		.uleb128 0x3b
 2848 0193 05       		.uleb128 0x5
 2849 0194 49       		.uleb128 0x49
 2850 0195 13       		.uleb128 0x13
 2851 0196 02       		.uleb128 0x2
 2852 0197 06       		.uleb128 0x6
 2853 0198 00       		.byte	0x0
 2854 0199 00       		.byte	0x0
 2855 019a 1D       		.uleb128 0x1d
 2856 019b 34       		.uleb128 0x34
 2857 019c 00       		.byte	0x0
 2858 019d 03       		.uleb128 0x3
 2859 019e 0E       		.uleb128 0xe
 2860 019f 3A       		.uleb128 0x3a
 2861 01a0 0B       		.uleb128 0xb
 2862 01a1 3B       		.uleb128 0x3b
 2863 01a2 05       		.uleb128 0x5
 2864 01a3 49       		.uleb128 0x49
 2865 01a4 13       		.uleb128 0x13
 2866 01a5 02       		.uleb128 0x2
ARM GAS  /cygdrive/c/Users/Chris/AppData/Local/Temp/ccTUaxdK.s 			page 60


 2867 01a6 0A       		.uleb128 0xa
 2868 01a7 00       		.byte	0x0
 2869 01a8 00       		.byte	0x0
 2870 01a9 1E       		.uleb128 0x1e
 2871 01aa 34       		.uleb128 0x34
 2872 01ab 00       		.byte	0x0
 2873 01ac 03       		.uleb128 0x3
 2874 01ad 0E       		.uleb128 0xe
 2875 01ae 3A       		.uleb128 0x3a
 2876 01af 0B       		.uleb128 0xb
 2877 01b0 3B       		.uleb128 0x3b
 2878 01b1 05       		.uleb128 0x5
 2879 01b2 49       		.uleb128 0x49
 2880 01b3 13       		.uleb128 0x13
 2881 01b4 02       		.uleb128 0x2
 2882 01b5 06       		.uleb128 0x6
 2883 01b6 00       		.byte	0x0
 2884 01b7 00       		.byte	0x0
 2885 01b8 1F       		.uleb128 0x1f
 2886 01b9 34       		.uleb128 0x34
 2887 01ba 00       		.byte	0x0
 2888 01bb 03       		.uleb128 0x3
 2889 01bc 08       		.uleb128 0x8
 2890 01bd 3A       		.uleb128 0x3a
 2891 01be 0B       		.uleb128 0xb
 2892 01bf 3B       		.uleb128 0x3b
 2893 01c0 05       		.uleb128 0x5
 2894 01c1 49       		.uleb128 0x49
 2895 01c2 13       		.uleb128 0x13
 2896 01c3 02       		.uleb128 0x2
 2897 01c4 0A       		.uleb128 0xa
 2898 01c5 00       		.byte	0x0
 2899 01c6 00       		.byte	0x0
 2900 01c7 20       		.uleb128 0x20
 2901 01c8 0B       		.uleb128 0xb
 2902 01c9 01       		.byte	0x1
 2903 01ca 55       		.uleb128 0x55
 2904 01cb 06       		.uleb128 0x6
 2905 01cc 00       		.byte	0x0
 2906 01cd 00       		.byte	0x0
 2907 01ce 21       		.uleb128 0x21
 2908 01cf 0B       		.uleb128 0xb
 2909 01d0 01       		.byte	0x1
 2910 01d1 55       		.uleb128 0x55
 2911 01d2 06       		.uleb128 0x6
 2912 01d3 01       		.uleb128 0x1
 2913 01d4 13       		.uleb128 0x13
 2914 01d5 00       		.byte	0x0
 2915 01d6 00       		.byte	0x0
 2916 01d7 22       		.uleb128 0x22
 2917 01d8 26       		.uleb128 0x26
 2918 01d9 00       		.byte	0x0
 2919 01da 49       		.uleb128 0x49
 2920 01db 13       		.uleb128 0x13
 2921 01dc 00       		.byte	0x0
 2922 01dd 00       		.byte	0x0
 2923 01de 23       		.uleb128 0x23
ARM GAS  /cygdrive/c/Users/Chris/AppData/Local/Temp/ccTUaxdK.s 			page 61


 2924 01df 10       		.uleb128 0x10
 2925 01e0 00       		.byte	0x0
 2926 01e1 0B       		.uleb128 0xb
 2927 01e2 0B       		.uleb128 0xb
 2928 01e3 49       		.uleb128 0x49
 2929 01e4 13       		.uleb128 0x13
 2930 01e5 00       		.byte	0x0
 2931 01e6 00       		.byte	0x0
 2932 01e7 24       		.uleb128 0x24
 2933 01e8 2E       		.uleb128 0x2e
 2934 01e9 01       		.byte	0x1
 2935 01ea 3F       		.uleb128 0x3f
 2936 01eb 0C       		.uleb128 0xc
 2937 01ec 03       		.uleb128 0x3
 2938 01ed 0E       		.uleb128 0xe
 2939 01ee 3A       		.uleb128 0x3a
 2940 01ef 0B       		.uleb128 0xb
 2941 01f0 3B       		.uleb128 0x3b
 2942 01f1 05       		.uleb128 0x5
 2943 01f2 8740     		.uleb128 0x2007
 2944 01f4 0E       		.uleb128 0xe
 2945 01f5 49       		.uleb128 0x49
 2946 01f6 13       		.uleb128 0x13
 2947 01f7 11       		.uleb128 0x11
 2948 01f8 01       		.uleb128 0x1
 2949 01f9 12       		.uleb128 0x12
 2950 01fa 01       		.uleb128 0x1
 2951 01fb 40       		.uleb128 0x40
 2952 01fc 0A       		.uleb128 0xa
 2953 01fd 01       		.uleb128 0x1
 2954 01fe 13       		.uleb128 0x13
 2955 01ff 00       		.byte	0x0
 2956 0200 00       		.byte	0x0
 2957 0201 25       		.uleb128 0x25
 2958 0202 05       		.uleb128 0x5
 2959 0203 00       		.byte	0x0
 2960 0204 03       		.uleb128 0x3
 2961 0205 08       		.uleb128 0x8
 2962 0206 3A       		.uleb128 0x3a
 2963 0207 0B       		.uleb128 0xb
 2964 0208 3B       		.uleb128 0x3b
 2965 0209 05       		.uleb128 0x5
 2966 020a 49       		.uleb128 0x49
 2967 020b 13       		.uleb128 0x13
 2968 020c 02       		.uleb128 0x2
 2969 020d 0A       		.uleb128 0xa
 2970 020e 00       		.byte	0x0
 2971 020f 00       		.byte	0x0
 2972 0210 26       		.uleb128 0x26
 2973 0211 2E       		.uleb128 0x2e
 2974 0212 01       		.byte	0x1
 2975 0213 3F       		.uleb128 0x3f
 2976 0214 0C       		.uleb128 0xc
 2977 0215 03       		.uleb128 0x3
 2978 0216 0E       		.uleb128 0xe
 2979 0217 3A       		.uleb128 0x3a
 2980 0218 0B       		.uleb128 0xb
ARM GAS  /cygdrive/c/Users/Chris/AppData/Local/Temp/ccTUaxdK.s 			page 62


 2981 0219 3B       		.uleb128 0x3b
 2982 021a 05       		.uleb128 0x5
 2983 021b 8740     		.uleb128 0x2007
 2984 021d 0E       		.uleb128 0xe
 2985 021e 11       		.uleb128 0x11
 2986 021f 01       		.uleb128 0x1
 2987 0220 12       		.uleb128 0x12
 2988 0221 01       		.uleb128 0x1
 2989 0222 40       		.uleb128 0x40
 2990 0223 06       		.uleb128 0x6
 2991 0224 01       		.uleb128 0x1
 2992 0225 13       		.uleb128 0x13
 2993 0226 00       		.byte	0x0
 2994 0227 00       		.byte	0x0
 2995 0228 27       		.uleb128 0x27
 2996 0229 05       		.uleb128 0x5
 2997 022a 00       		.byte	0x0
 2998 022b 03       		.uleb128 0x3
 2999 022c 08       		.uleb128 0x8
 3000 022d 3A       		.uleb128 0x3a
 3001 022e 0B       		.uleb128 0xb
 3002 022f 3B       		.uleb128 0x3b
 3003 0230 05       		.uleb128 0x5
 3004 0231 49       		.uleb128 0x49
 3005 0232 13       		.uleb128 0x13
 3006 0233 02       		.uleb128 0x2
 3007 0234 06       		.uleb128 0x6
 3008 0235 00       		.byte	0x0
 3009 0236 00       		.byte	0x0
 3010 0237 28       		.uleb128 0x28
 3011 0238 34       		.uleb128 0x34
 3012 0239 00       		.byte	0x0
 3013 023a 03       		.uleb128 0x3
 3014 023b 08       		.uleb128 0x8
 3015 023c 3A       		.uleb128 0x3a
 3016 023d 0B       		.uleb128 0xb
 3017 023e 3B       		.uleb128 0x3b
 3018 023f 05       		.uleb128 0x5
 3019 0240 49       		.uleb128 0x49
 3020 0241 13       		.uleb128 0x13
 3021 0242 02       		.uleb128 0x2
 3022 0243 06       		.uleb128 0x6
 3023 0244 00       		.byte	0x0
 3024 0245 00       		.byte	0x0
 3025 0246 29       		.uleb128 0x29
 3026 0247 34       		.uleb128 0x34
 3027 0248 00       		.byte	0x0
 3028 0249 03       		.uleb128 0x3
 3029 024a 0E       		.uleb128 0xe
 3030 024b 3A       		.uleb128 0x3a
 3031 024c 0B       		.uleb128 0xb
 3032 024d 3B       		.uleb128 0x3b
 3033 024e 05       		.uleb128 0x5
 3034 024f 49       		.uleb128 0x49
 3035 0250 13       		.uleb128 0x13
 3036 0251 00       		.byte	0x0
 3037 0252 00       		.byte	0x0
ARM GAS  /cygdrive/c/Users/Chris/AppData/Local/Temp/ccTUaxdK.s 			page 63


 3038 0253 2A       		.uleb128 0x2a
 3039 0254 2E       		.uleb128 0x2e
 3040 0255 01       		.byte	0x1
 3041 0256 3F       		.uleb128 0x3f
 3042 0257 0C       		.uleb128 0xc
 3043 0258 03       		.uleb128 0x3
 3044 0259 0E       		.uleb128 0xe
 3045 025a 3A       		.uleb128 0x3a
 3046 025b 0B       		.uleb128 0xb
 3047 025c 3B       		.uleb128 0x3b
 3048 025d 05       		.uleb128 0x5
 3049 025e 8740     		.uleb128 0x2007
 3050 0260 0E       		.uleb128 0xe
 3051 0261 11       		.uleb128 0x11
 3052 0262 01       		.uleb128 0x1
 3053 0263 12       		.uleb128 0x12
 3054 0264 01       		.uleb128 0x1
 3055 0265 40       		.uleb128 0x40
 3056 0266 0A       		.uleb128 0xa
 3057 0267 01       		.uleb128 0x1
 3058 0268 13       		.uleb128 0x13
 3059 0269 00       		.byte	0x0
 3060 026a 00       		.byte	0x0
 3061 026b 2B       		.uleb128 0x2b
 3062 026c 05       		.uleb128 0x5
 3063 026d 00       		.byte	0x0
 3064 026e 03       		.uleb128 0x3
 3065 026f 0E       		.uleb128 0xe
 3066 0270 3A       		.uleb128 0x3a
 3067 0271 0B       		.uleb128 0xb
 3068 0272 3B       		.uleb128 0x3b
 3069 0273 05       		.uleb128 0x5
 3070 0274 49       		.uleb128 0x49
 3071 0275 13       		.uleb128 0x13
 3072 0276 02       		.uleb128 0x2
 3073 0277 0A       		.uleb128 0xa
 3074 0278 00       		.byte	0x0
 3075 0279 00       		.byte	0x0
 3076 027a 2C       		.uleb128 0x2c
 3077 027b 34       		.uleb128 0x34
 3078 027c 00       		.byte	0x0
 3079 027d 03       		.uleb128 0x3
 3080 027e 0E       		.uleb128 0xe
 3081 027f 3A       		.uleb128 0x3a
 3082 0280 0B       		.uleb128 0xb
 3083 0281 3B       		.uleb128 0x3b
 3084 0282 0B       		.uleb128 0xb
 3085 0283 49       		.uleb128 0x49
 3086 0284 13       		.uleb128 0x13
 3087 0285 3F       		.uleb128 0x3f
 3088 0286 0C       		.uleb128 0xc
 3089 0287 02       		.uleb128 0x2
 3090 0288 0A       		.uleb128 0xa
 3091 0289 00       		.byte	0x0
 3092 028a 00       		.byte	0x0
 3093 028b 00       		.byte	0x0
 3094              		.section	.debug_pubnames,"",%progbits
ARM GAS  /cygdrive/c/Users/Chris/AppData/Local/Temp/ccTUaxdK.s 			page 64


 3095 0000 1A010000 		.4byte	0x11a
 3096 0004 0200     		.2byte	0x2
 3097 0006 00000000 		.4byte	.Ldebug_info0
 3098 000a 1C080000 		.4byte	0x81c
 3099 000e 6B030000 		.4byte	0x36b
 3100 0012 53657269 		.ascii	"SerialISR\000"
 3100      616C4953 
 3100      5200
 3101 001c FD030000 		.4byte	0x3fd
 3102 0020 53657269 		.ascii	"Serial0ISR\000"
 3102      616C3049 
 3102      535200
 3103 002b 13040000 		.4byte	0x413
 3104 002f 53657269 		.ascii	"Serial1ISR\000"
 3104      616C3149 
 3104      535200
 3105 003a 29040000 		.4byte	0x429
 3106 003e 53657269 		.ascii	"Serial2ISR\000"
 3106      616C3249 
 3106      535200
 3107 0049 40040000 		.4byte	0x440
 3108 004d 53657269 		.ascii	"Serial3ISR\000"
 3108      616C3349 
 3108      535200
 3109 0058 57040000 		.4byte	0x457
 3110 005c 66696E64 		.ascii	"findDivisorAndPrescale\000"
 3110      44697669 
 3110      736F7241 
 3110      6E645072 
 3110      65736361 
 3111 0073 AD050000 		.4byte	0x5ad
 3112 0077 53657269 		.ascii	"SerialAvailable\000"
 3112      616C4176 
 3112      61696C61 
 3112      626C6500 
 3113 0087 DD050000 		.4byte	0x5dd
 3114 008b 53657269 		.ascii	"SerialWrite\000"
 3114      616C5772 
 3114      69746500 
 3115 0097 1A060000 		.4byte	0x61a
 3116 009b 53657269 		.ascii	"SerialStr\000"
 3116      616C5374 
 3116      7200
 3117 00a5 58060000 		.4byte	0x658
 3118 00a9 53657269 		.ascii	"SerialRead\000"
 3118      616C5265 
 3118      616400
 3119 00b4 A2060000 		.4byte	0x6a2
 3120 00b8 53657269 		.ascii	"SerialFlush\000"
 3120      616C466C 
 3120      75736800 
 3121 00c4 CC060000 		.4byte	0x6cc
 3122 00c8 53657269 		.ascii	"SerialBusyRead\000"
 3122      616C4275 
 3122      73795265 
 3122      616400
 3123 00d7 FC060000 		.4byte	0x6fc
ARM GAS  /cygdrive/c/Users/Chris/AppData/Local/Temp/ccTUaxdK.s 			page 65


 3124 00db 53657269 		.ascii	"SerialBegin\000"
 3124      616C4265 
 3124      67696E00 
 3125 00e7 94070000 		.4byte	0x794
 3126 00eb 75617274 		.ascii	"uartData\000"
 3126      44617461 
 3126      00
 3127 00f4 BB070000 		.4byte	0x7bb
 3128 00f8 75617274 		.ascii	"uartInts\000"
 3128      496E7473 
 3128      00
 3129 0101 E2070000 		.4byte	0x7e2
 3130 0105 75617274 		.ascii	"uartPins\000"
 3130      50696E73 
 3130      00
 3131 010e 09080000 		.4byte	0x809
 3132 0112 75617274 		.ascii	"uartReg\000"
 3132      52656700 
 3133 011a 00000000 		.4byte	0x0
 3134              		.section	.debug_aranges,"",%progbits
 3135 0000 7C000000 		.4byte	0x7c
 3136 0004 0200     		.2byte	0x2
 3137 0006 00000000 		.4byte	.Ldebug_info0
 3138 000a 04       		.byte	0x4
 3139 000b 00       		.byte	0x0
 3140 000c 0000     		.2byte	0x0
 3141 000e 0000     		.2byte	0x0
 3142 0010 00000000 		.4byte	.LFB2
 3143 0014 D8000000 		.4byte	.LFE2-.LFB2
 3144 0018 00000000 		.4byte	.LFB3
 3145 001c 30000000 		.4byte	.LFE3-.LFB3
 3146 0020 00000000 		.4byte	.LFB4
 3147 0024 30000000 		.4byte	.LFE4-.LFB4
 3148 0028 00000000 		.4byte	.LFB5
 3149 002c 30000000 		.4byte	.LFE5-.LFB5
 3150 0030 00000000 		.4byte	.LFB6
 3151 0034 30000000 		.4byte	.LFE6-.LFB6
 3152 0038 00000000 		.4byte	.LFB7
 3153 003c 60010000 		.4byte	.LFE7-.LFB7
 3154 0040 00000000 		.4byte	.LFB9
 3155 0044 24000000 		.4byte	.LFE9-.LFB9
 3156 0048 00000000 		.4byte	.LFB10
 3157 004c 28000000 		.4byte	.LFE10-.LFB10
 3158 0050 00000000 		.4byte	.LFB11
 3159 0054 34000000 		.4byte	.LFE11-.LFB11
 3160 0058 00000000 		.4byte	.LFB12
 3161 005c 48000000 		.4byte	.LFE12-.LFB12
 3162 0060 00000000 		.4byte	.LFB13
 3163 0064 1C000000 		.4byte	.LFE13-.LFB13
 3164 0068 00000000 		.4byte	.LFB14
 3165 006c 20000000 		.4byte	.LFE14-.LFB14
 3166 0070 00000000 		.4byte	.LFB8
 3167 0074 64010000 		.4byte	.LFE8-.LFB8
 3168 0078 00000000 		.4byte	0x0
 3169 007c 00000000 		.4byte	0x0
 3170              		.section	.debug_ranges,"",%progbits
 3171              	.Ldebug_ranges0:
ARM GAS  /cygdrive/c/Users/Chris/AppData/Local/Temp/ccTUaxdK.s 			page 66


 3172 0000 88000000 		.4byte	.LBB9
 3173 0004 14010000 		.4byte	.LBE9
 3174 0008 1C010000 		.4byte	.LBB16
 3175 000c 28010000 		.4byte	.LBE16
 3176 0010 00000000 		.4byte	0x0
 3177 0014 00000000 		.4byte	0x0
 3178 0018 A4000000 		.4byte	.LBB13
 3179 001c AC000000 		.4byte	.LBE13
 3180 0020 B0000000 		.4byte	.LBB12
 3181 0024 D8000000 		.4byte	.LBE12
 3182 0028 00000000 		.4byte	0x0
 3183 002c 00000000 		.4byte	0x0
 3184 0030 9C000000 		.4byte	.LBB14
 3185 0034 A4000000 		.4byte	.LBE14
 3186 0038 24010000 		.4byte	.LBB15
 3187 003c 28010000 		.4byte	.LBE15
 3188 0040 EC000000 		.4byte	.LBB10
 3189 0044 14010000 		.4byte	.LBE10
 3190 0048 E0000000 		.4byte	.LBB11
 3191 004c E8000000 		.4byte	.LBE11
 3192 0050 00000000 		.4byte	0x0
 3193 0054 00000000 		.4byte	0x0
 3194 0058 00000000 		.4byte	.Ltext0
 3195 005c 00000000 		.4byte	.Letext0
 3196 0060 00000000 		.4byte	.LFB2
 3197 0064 D8000000 		.4byte	.LFE2
 3198 0068 00000000 		.4byte	.LFB3
 3199 006c 30000000 		.4byte	.LFE3
 3200 0070 00000000 		.4byte	.LFB4
 3201 0074 30000000 		.4byte	.LFE4
 3202 0078 00000000 		.4byte	.LFB5
 3203 007c 30000000 		.4byte	.LFE5
 3204 0080 00000000 		.4byte	.LFB6
 3205 0084 30000000 		.4byte	.LFE6
 3206 0088 00000000 		.4byte	.LFB7
 3207 008c 60010000 		.4byte	.LFE7
 3208 0090 00000000 		.4byte	.LFB9
 3209 0094 24000000 		.4byte	.LFE9
 3210 0098 00000000 		.4byte	.LFB10
 3211 009c 28000000 		.4byte	.LFE10
 3212 00a0 00000000 		.4byte	.LFB11
 3213 00a4 34000000 		.4byte	.LFE11
 3214 00a8 00000000 		.4byte	.LFB12
 3215 00ac 48000000 		.4byte	.LFE12
 3216 00b0 00000000 		.4byte	.LFB13
 3217 00b4 1C000000 		.4byte	.LFE13
 3218 00b8 00000000 		.4byte	.LFB14
 3219 00bc 20000000 		.4byte	.LFE14
 3220 00c0 00000000 		.4byte	.LFB8
 3221 00c4 64010000 		.4byte	.LFE8
 3222 00c8 00000000 		.4byte	0x0
 3223 00cc 00000000 		.4byte	0x0
 3224              		.section	.debug_str,"MS",%progbits,1
 3225              	.LASF83:
 3226 0000 5F5A3131 		.ascii	"_Z11SerialBeginhm\000"
 3226      53657269 
 3226      616C4265 
ARM GAS  /cygdrive/c/Users/Chris/AppData/Local/Temp/ccTUaxdK.s 			page 67


 3226      67696E68 
 3226      6D00
 3227              	.LASF43:
 3228 0012 4C535256 		.ascii	"LSRValue\000"
 3228      616C7565 
 3228      00
 3229              	.LASF16:
 3230 001b 55415254 		.ascii	"UART0\000"
 3230      3000
 3231              	.LASF17:
 3232 0021 55415254 		.ascii	"UART1\000"
 3232      3100
 3233              	.LASF18:
 3234 0027 55415254 		.ascii	"UART2\000"
 3234      3200
 3235              	.LASF19:
 3236 002d 55415254 		.ascii	"UART3\000"
 3236      3300
 3237              	.LASF44:
 3238 0033 53657269 		.ascii	"Serial0ISR\000"
 3238      616C3049 
 3238      535200
 3239              	.LASF62:
 3240 003e 70726573 		.ascii	"prescaledClock\000"
 3240      63616C65 
 3240      64436C6F 
 3240      636B00
 3241              	.LASF21:
 3242 004d 3C616E6F 		.ascii	"<anonymous union>\000"
 3242      6E796D6F 
 3242      75732075 
 3242      6E696F6E 
 3242      3E00
 3243              	.LASF52:
 3244 005f 706F7274 		.ascii	"portNum\000"
 3244      4E756D00 
 3245              	.LASF80:
 3246 0067 53657269 		.ascii	"SerialBusyRead\000"
 3246      616C4275 
 3246      73795265 
 3246      616400
 3247              	.LASF6:
 3248 0076 6C6F6E67 		.ascii	"long long unsigned int\000"
 3248      206C6F6E 
 3248      6720756E 
 3248      7369676E 
 3248      65642069 
 3249              	.LASF94:
 3250 008d 2F637967 		.ascii	"/cygdrive/c/Users/Chris/Desktop/sfboot-test/sfboot\000"
 3250      64726976 
 3250      652F632F 
 3250      55736572 
 3250      732F4368 
 3251              	.LASF53:
 3252 00c0 66726571 		.ascii	"frequency\000"
 3252      75656E63 
 3252      7900
ARM GAS  /cygdrive/c/Users/Chris/AppData/Local/Temp/ccTUaxdK.s 			page 68


 3253              	.LASF92:
 3254 00ca 474E5520 		.ascii	"GNU C++ 4.3.2\000"
 3254      432B2B20 
 3254      342E332E 
 3254      3200
 3255              	.LASF23:
 3256 00d8 54485245 		.ascii	"THRE\000"
 3256      00
 3257              	.LASF5:
 3258 00dd 6C6F6E67 		.ascii	"long long int\000"
 3258      206C6F6E 
 3258      6720696E 
 3258      7400
 3259              	.LASF1:
 3260 00eb 7369676E 		.ascii	"signed char\000"
 3260      65642063 
 3260      68617200 
 3261              	.LASF35:
 3262 00f7 52784865 		.ascii	"RxHead\000"
 3262      616400
 3263              	.LASF78:
 3264 00fe 5F5A3953 		.ascii	"_Z9SerialStrhPc\000"
 3264      65726961 
 3264      6C537472 
 3264      68506300 
 3265              	.LASF68:
 3266 010e 5F5A3232 		.ascii	"_Z22findDivisorAndPrescalemmbRmS_\000"
 3266      66696E64 
 3266      44697669 
 3266      736F7241 
 3266      6E645072 
 3267              	.LASF47:
 3268 0130 5F5A3130 		.ascii	"_Z10Serial1ISRv\000"
 3268      53657269 
 3268      616C3149 
 3268      53527600 
 3269              	.LASF72:
 3270 0140 53657269 		.ascii	"SerialISR\000"
 3270      616C4953 
 3270      5200
 3271              	.LASF7:
 3272 014a 6C6F6E67 		.ascii	"long int\000"
 3272      20696E74 
 3272      00
 3273              	.LASF29:
 3274 0153 52785365 		.ascii	"RxSelValue\000"
 3274      6C56616C 
 3274      756500
 3275              	.LASF26:
 3276 015e 54785365 		.ascii	"TxSelValue\000"
 3276      6C56616C 
 3276      756500
 3277              	.LASF66:
 3278 0169 66696E64 		.ascii	"findDivisorAndPrescale\000"
 3278      44697669 
 3278      736F7241 
 3278      6E645072 
ARM GAS  /cygdrive/c/Users/Chris/AppData/Local/Temp/ccTUaxdK.s 			page 69


 3278      65736361 
 3279              	.LASF38:
 3280 0180 5478456D 		.ascii	"TxEmpy\000"
 3280      707900
 3281              	.LASF20:
 3282 0187 4E554D5F 		.ascii	"NUM_UARTS\000"
 3282      55415254 
 3282      5300
 3283              	.LASF12:
 3284 0191 42595445 		.ascii	"BYTE\000"
 3284      00
 3285              	.LASF31:
 3286 0196 496E7446 		.ascii	"IntFunc\000"
 3286      756E6300 
 3287              	.LASF0:
 3288 019e 756E7369 		.ascii	"unsigned int\000"
 3288      676E6564 
 3288      20696E74 
 3288      00
 3289              	.LASF71:
 3290 01ab 5F5A3131 		.ascii	"_Z11SerialWritehi\000"
 3290      53657269 
 3290      616C5772 
 3290      69746568 
 3290      6900
 3291              	.LASF77:
 3292 01bd 53657269 		.ascii	"SerialFlush\000"
 3292      616C466C 
 3292      75736800 
 3293              	.LASF8:
 3294 01c9 6C6F6E67 		.ascii	"long unsigned int\000"
 3294      20756E73 
 3294      69676E65 
 3294      6420696E 
 3294      7400
 3295              	.LASF57:
 3296 01db 64697641 		.ascii	"divAddVal\000"
 3296      64645661 
 3296      6C00
 3297              	.LASF4:
 3298 01e5 73686F72 		.ascii	"short unsigned int\000"
 3298      7420756E 
 3298      7369676E 
 3298      65642069 
 3298      6E7400
 3299              	.LASF34:
 3300 01f8 52784275 		.ascii	"RxBuffer\000"
 3300      66666572 
 3300      00
 3301              	.LASF28:
 3302 0201 52785365 		.ascii	"RxSelReg\000"
 3302      6C526567 
 3302      00
 3303              	.LASF51:
 3304 020a 5F5A3130 		.ascii	"_Z10Serial3ISRv\000"
 3304      53657269 
 3304      616C3349 
ARM GAS  /cygdrive/c/Users/Chris/AppData/Local/Temp/ccTUaxdK.s 			page 70


 3304      53527600 
 3305              	.LASF65:
 3306 021a 626F6F6C 		.ascii	"bool\000"
 3306      00
 3307              	.LASF93:
 3308 021f 53657269 		.ascii	"Serial.cpp\000"
 3308      616C2E63 
 3308      707000
 3309              	.LASF59:
 3310 022a 62617564 		.ascii	"baudRateError\000"
 3310      52617465 
 3310      4572726F 
 3310      7200
 3311              	.LASF88:
 3312 0238 75617274 		.ascii	"uartData\000"
 3312      44617461 
 3312      00
 3313              	.LASF64:
 3314 0241 6E657742 		.ascii	"newBaudRateError\000"
 3314      61756452 
 3314      61746545 
 3314      72726F72 
 3314      00
 3315              	.LASF14:
 3316 0252 7675696E 		.ascii	"vuint32_t\000"
 3316      7433325F 
 3316      7400
 3317              	.LASF39:
 3318 025c 49495256 		.ascii	"IIRValue\000"
 3318      616C7565 
 3318      00
 3319              	.LASF76:
 3320 0265 7461696C 		.ascii	"tail\000"
 3320      00
 3321              	.LASF81:
 3322 026a 5F5A3134 		.ascii	"_Z14SerialBusyReadh\000"
 3322      53657269 
 3322      616C4275 
 3322      73795265 
 3322      61646800 
 3323              	.LASF58:
 3324 027e 64697669 		.ascii	"divisor\000"
 3324      736F7200 
 3325              	.LASF91:
 3326 0286 75617274 		.ascii	"uartReg\000"
 3326      52656700 
 3327              	.LASF60:
 3328 028e 6F746865 		.ascii	"otherDivisor\000"
 3328      72446976 
 3328      69736F72 
 3328      00
 3329              	.LASF46:
 3330 029b 5F5A3130 		.ascii	"_Z10Serial0ISRv\000"
 3330      53657269 
 3330      616C3049 
 3330      53527600 
 3331              	.LASF95:
ARM GAS  /cygdrive/c/Users/Chris/AppData/Local/Temp/ccTUaxdK.s 			page 71


 3332 02ab 3C616E6F 		.ascii	"<anonymous enum>\000"
 3332      6E796D6F 
 3332      75732065 
 3332      6E756D3E 
 3332      00
 3333              	.LASF55:
 3334 02bc 616C6C6F 		.ascii	"allowSmallerBaudRate\000"
 3334      77536D61 
 3334      6C6C6572 
 3334      42617564 
 3334      52617465 
 3335              	.LASF24:
 3336 02d1 53706172 		.ascii	"Spare2\000"
 3336      653200
 3337              	.LASF40:
 3338 02d8 75617274 		.ascii	"uart\000"
 3338      00
 3339              	.LASF36:
 3340 02dd 52785461 		.ascii	"RxTail\000"
 3340      696C00
 3341              	.LASF2:
 3342 02e4 756E7369 		.ascii	"unsigned char\000"
 3342      676E6564 
 3342      20636861 
 3342      7200
 3343              	.LASF75:
 3344 02f2 5F5A3130 		.ascii	"_Z10SerialReadh\000"
 3344      53657269 
 3344      616C5265 
 3344      61646800 
 3345              	.LASF3:
 3346 0302 73686F72 		.ascii	"short int\000"
 3346      7420696E 
 3346      7400
 3347              	.LASF85:
 3348 030c 70636C6B 		.ascii	"pclk\000"
 3348      00
 3349              	.LASF32:
 3350 0311 496E744E 		.ascii	"IntNumber\000"
 3350      756D6265 
 3350      7200
 3351              	.LASF86:
 3352 031b 70636C6B 		.ascii	"pclkCode\000"
 3352      436F6465 
 3352      00
 3353              	.LASF54:
 3354 0324 62617564 		.ascii	"baudRate\000"
 3354      52617465 
 3354      00
 3355              	.LASF96:
 3356 032d 5F5A3953 		.ascii	"_Z9SerialISRh\000"
 3356      65726961 
 3356      6C495352 
 3356      6800
 3357              	.LASF30:
 3358 033b 52784D61 		.ascii	"RxMask\000"
 3358      736B00
ARM GAS  /cygdrive/c/Users/Chris/AppData/Local/Temp/ccTUaxdK.s 			page 72


 3359              	.LASF49:
 3360 0342 53657269 		.ascii	"Serial3ISR\000"
 3360      616C3349 
 3360      535200
 3361              	.LASF42:
 3362 034d 68656164 		.ascii	"head\000"
 3362      00
 3363              	.LASF11:
 3364 0352 75696E74 		.ascii	"uint32_t\000"
 3364      33325F74 
 3364      00
 3365              	.LASF56:
 3366 035b 6D756C56 		.ascii	"mulVal\000"
 3366      616C00
 3367              	.LASF84:
 3368 0362 62617564 		.ascii	"baud\000"
 3368      00
 3369              	.LASF9:
 3370 0367 63686172 		.ascii	"char\000"
 3370      00
 3371              	.LASF41:
 3372 036c 696E6465 		.ascii	"index\000"
 3372      7800
 3373              	.LASF15:
 3374 0372 7675696E 		.ascii	"vuint64_t\000"
 3374      7436345F 
 3374      7400
 3375              	.LASF73:
 3376 037c 53657269 		.ascii	"SerialStr\000"
 3376      616C5374 
 3376      7200
 3377              	.LASF61:
 3378 0386 6F746865 		.ascii	"otherBaudRateError\000"
 3378      72426175 
 3378      64526174 
 3378      65457272 
 3378      6F7200
 3379              	.LASF25:
 3380 0399 54785365 		.ascii	"TxSelReg\000"
 3380      6C526567 
 3380      00
 3381              	.LASF50:
 3382 03a2 5F5A3130 		.ascii	"_Z10Serial2ISRv\000"
 3382      53657269 
 3382      616C3249 
 3382      53527600 
 3383              	.LASF48:
 3384 03b2 53657269 		.ascii	"Serial2ISR\000"
 3384      616C3249 
 3384      535200
 3385              	.LASF82:
 3386 03bd 53657269 		.ascii	"SerialBegin\000"
 3386      616C4265 
 3386      67696E00 
 3387              	.LASF89:
 3388 03c9 75617274 		.ascii	"uartInts\000"
 3388      496E7473 
ARM GAS  /cygdrive/c/Users/Chris/AppData/Local/Temp/ccTUaxdK.s 			page 73


 3388      00
 3389              	.LASF22:
 3390 03d2 3C616E6F 		.ascii	"<anonymous struct>\000"
 3390      6E796D6F 
 3390      75732073 
 3390      74727563 
 3390      743E00
 3391              	.LASF33:
 3392 03e5 5072696F 		.ascii	"Priority\000"
 3392      72697479 
 3392      00
 3393              	.LASF10:
 3394 03ee 75696E74 		.ascii	"uint8_t\000"
 3394      385F7400 
 3395              	.LASF74:
 3396 03f6 53657269 		.ascii	"SerialRead\000"
 3396      616C5265 
 3396      616400
 3397              	.LASF69:
 3398 0401 5F5A3135 		.ascii	"_Z15SerialAvailableh\000"
 3398      53657269 
 3398      616C4176 
 3398      61696C61 
 3398      626C6568 
 3399              	.LASF63:
 3400 0416 6E657744 		.ascii	"newDivisor\000"
 3400      69766973 
 3400      6F7200
 3401              	.LASF45:
 3402 0421 53657269 		.ascii	"Serial1ISR\000"
 3402      616C3149 
 3402      535200
 3403              	.LASF90:
 3404 042c 75617274 		.ascii	"uartPins\000"
 3404      50696E73 
 3404      00
 3405              	.LASF27:
 3406 0435 54784D61 		.ascii	"TxMask\000"
 3406      736B00
 3407              	.LASF37:
 3408 043c 53746174 		.ascii	"Status\000"
 3408      757300
 3409              	.LASF70:
 3410 0443 53657269 		.ascii	"SerialWrite\000"
 3410      616C5772 
 3410      69746500 
 3411              	.LASF87:
 3412 044f 46646976 		.ascii	"Fdiv\000"
 3412      00
 3413              	.LASF13:
 3414 0454 7675696E 		.ascii	"vuint16_t\000"
 3414      7431365F 
 3414      7400
 3415              	.LASF67:
 3416 045e 53657269 		.ascii	"SerialAvailable\000"
 3416      616C4176 
 3416      61696C61 
ARM GAS  /cygdrive/c/Users/Chris/AppData/Local/Temp/ccTUaxdK.s 			page 74


 3416      626C6500 
 3417              	.LASF79:
 3418 046e 5F5A3131 		.ascii	"_Z11SerialFlushh\000"
 3418      53657269 
 3418      616C466C 
 3418      75736868 
 3418      00
 3419              		.ident	"GCC: (AHAX Arm-Linux 2008q3-66) 4.3.2"
ARM GAS  /cygdrive/c/Users/Chris/AppData/Local/Temp/ccTUaxdK.s 			page 75


DEFINED SYMBOLS
                            *ABS*:00000000 Serial.cpp
/cygdrive/c/Users/Chris/AppData/Local/Temp/ccTUaxdK.s:24     .text._Z9SerialISRh:00000000 _Z9SerialISRh
/cygdrive/c/Users/Chris/AppData/Local/Temp/ccTUaxdK.s:33     .text._Z9SerialISRh:00000000 $a
/cygdrive/c/Users/Chris/AppData/Local/Temp/ccTUaxdK.s:133    .text._Z9SerialISRh:000000d0 $d
/cygdrive/c/Users/Chris/AppData/Local/Temp/ccTUaxdK.s:141    .text._Z10Serial0ISRv:00000000 _Z10Serial0ISRv
/cygdrive/c/Users/Chris/AppData/Local/Temp/ccTUaxdK.s:150    .text._Z10Serial0ISRv:00000000 $a
/cygdrive/c/Users/Chris/AppData/Local/Temp/ccTUaxdK.s:175    .text._Z10Serial1ISRv:00000000 _Z10Serial1ISRv
/cygdrive/c/Users/Chris/AppData/Local/Temp/ccTUaxdK.s:184    .text._Z10Serial1ISRv:00000000 $a
/cygdrive/c/Users/Chris/AppData/Local/Temp/ccTUaxdK.s:209    .text._Z10Serial2ISRv:00000000 _Z10Serial2ISRv
/cygdrive/c/Users/Chris/AppData/Local/Temp/ccTUaxdK.s:218    .text._Z10Serial2ISRv:00000000 $a
/cygdrive/c/Users/Chris/AppData/Local/Temp/ccTUaxdK.s:243    .text._Z10Serial3ISRv:00000000 _Z10Serial3ISRv
/cygdrive/c/Users/Chris/AppData/Local/Temp/ccTUaxdK.s:252    .text._Z10Serial3ISRv:00000000 $a
/cygdrive/c/Users/Chris/AppData/Local/Temp/ccTUaxdK.s:278    .text._Z22findDivisorAndPrescalemmbRmS_:00000000 _Z22findDivisorAndPrescalemmbRmS_
/cygdrive/c/Users/Chris/AppData/Local/Temp/ccTUaxdK.s:285    .text._Z22findDivisorAndPrescalemmbRmS_:00000000 $a
/cygdrive/c/Users/Chris/AppData/Local/Temp/ccTUaxdK.s:477    .text._Z15SerialAvailableh:00000000 _Z15SerialAvailableh
/cygdrive/c/Users/Chris/AppData/Local/Temp/ccTUaxdK.s:486    .text._Z15SerialAvailableh:00000000 $a
/cygdrive/c/Users/Chris/AppData/Local/Temp/ccTUaxdK.s:499    .text._Z15SerialAvailableh:00000020 $d
/cygdrive/c/Users/Chris/AppData/Local/Temp/ccTUaxdK.s:506    .text._Z11SerialWritehi:00000000 _Z11SerialWritehi
/cygdrive/c/Users/Chris/AppData/Local/Temp/ccTUaxdK.s:515    .text._Z11SerialWritehi:00000000 $a
/cygdrive/c/Users/Chris/AppData/Local/Temp/ccTUaxdK.s:531    .text._Z11SerialWritehi:00000024 $d
/cygdrive/c/Users/Chris/AppData/Local/Temp/ccTUaxdK.s:538    .text._Z9SerialStrhPc:00000000 _Z9SerialStrhPc
/cygdrive/c/Users/Chris/AppData/Local/Temp/ccTUaxdK.s:545    .text._Z9SerialStrhPc:00000000 $a
/cygdrive/c/Users/Chris/AppData/Local/Temp/ccTUaxdK.s:575    .text._Z10SerialReadh:00000000 _Z10SerialReadh
/cygdrive/c/Users/Chris/AppData/Local/Temp/ccTUaxdK.s:585    .text._Z10SerialReadh:00000000 $a
/cygdrive/c/Users/Chris/AppData/Local/Temp/ccTUaxdK.s:615    .text._Z10SerialReadh:00000044 $d
/cygdrive/c/Users/Chris/AppData/Local/Temp/ccTUaxdK.s:622    .text._Z11SerialFlushh:00000000 _Z11SerialFlushh
/cygdrive/c/Users/Chris/AppData/Local/Temp/ccTUaxdK.s:631    .text._Z11SerialFlushh:00000000 $a
/cygdrive/c/Users/Chris/AppData/Local/Temp/ccTUaxdK.s:641    .text._Z11SerialFlushh:00000018 $d
/cygdrive/c/Users/Chris/AppData/Local/Temp/ccTUaxdK.s:648    .text._Z14SerialBusyReadh:00000000 _Z14SerialBusyReadh
/cygdrive/c/Users/Chris/AppData/Local/Temp/ccTUaxdK.s:657    .text._Z14SerialBusyReadh:00000000 $a
/cygdrive/c/Users/Chris/AppData/Local/Temp/ccTUaxdK.s:671    .text._Z14SerialBusyReadh:0000001c $d
/cygdrive/c/Users/Chris/AppData/Local/Temp/ccTUaxdK.s:678    .text._Z11SerialBeginhm:00000000 _Z11SerialBeginhm
/cygdrive/c/Users/Chris/AppData/Local/Temp/ccTUaxdK.s:685    .text._Z11SerialBeginhm:00000000 $a
/cygdrive/c/Users/Chris/AppData/Local/Temp/ccTUaxdK.s:819    .text._Z11SerialBeginhm:00000140 $d
/cygdrive/c/Users/Chris/AppData/Local/Temp/ccTUaxdK.s:879    .bss.uartData:00000000 uartData
/cygdrive/c/Users/Chris/AppData/Local/Temp/ccTUaxdK.s:886    .data.uartInts:00000000 uartInts
/cygdrive/c/Users/Chris/AppData/Local/Temp/ccTUaxdK.s:839    .data.uartPins:00000000 uartPins
/cygdrive/c/Users/Chris/AppData/Local/Temp/ccTUaxdK.s:869    .data.uartReg:00000000 uartReg
/cygdrive/c/Users/Chris/AppData/Local/Temp/ccTUaxdK.s:840    .data.uartPins:00000000 $d
/cygdrive/c/Users/Chris/AppData/Local/Temp/ccTUaxdK.s:870    .data.uartReg:00000000 $d
/cygdrive/c/Users/Chris/AppData/Local/Temp/ccTUaxdK.s:887    .data.uartInts:00000000 $d
/cygdrive/c/Users/Chris/AppData/Local/Temp/ccTUaxdK.s:1101   .debug_loc:00000000 $d

UNDEFINED SYMBOLS
__aeabi_uidiv
_Z11install_irqmPvm
