ARM GAS  /cygdrive/c/Users/Chris/AppData/Local/Temp/cc2iY4e6.s 			page 1


   1              		.cpu arm7tdmi
   2              		.fpu softvfp
   3              		.eabi_attribute 20, 1
   4              		.eabi_attribute 21, 1
   5              		.eabi_attribute 23, 3
   6              		.eabi_attribute 24, 1
   7              		.eabi_attribute 25, 1
   8              		.eabi_attribute 26, 1
   9              		.eabi_attribute 30, 4
  10              		.eabi_attribute 18, 4
  11              		.file	"sfboard_tests.cpp"
  12              		.section	.debug_abbrev,"",%progbits
  13              	.Ldebug_abbrev0:
  14              		.section	.debug_info,"",%progbits
  15              	.Ldebug_info0:
  16              		.section	.debug_line,"",%progbits
  17              	.Ldebug_line0:
  18 0000 28010000 		.text
  18      0200A400 
  18      00000201 
  18      FB0E0D00 
  18      01010101 
  19              	.Ltext0:
  20              		.section	.text._Z8spinLEDsj,"ax",%progbits
  21              		.align	2
  22              		.global	_Z8spinLEDsj
  23              		.type	_Z8spinLEDsj, %function
  24              	_Z8spinLEDsj:
  25              	.LFB5:
  26              		.file 1 "sfboard_tests.cpp"
   1:sfboard_tests.cpp **** #include <stdint.h>
   2:sfboard_tests.cpp **** #include "wiring.h"
   3:sfboard_tests.cpp **** #include "sfboard_tests.h"
   4:sfboard_tests.cpp **** 
   5:sfboard_tests.cpp **** //****************************
   6:sfboard_tests.cpp **** //* Turns on all LEDs
   7:sfboard_tests.cpp **** void turnOnAllLEDs() {
   8:sfboard_tests.cpp **** 
   9:sfboard_tests.cpp ****    for (int l=0; l<7; l++) {
  10:sfboard_tests.cpp ****       pinMode(l+32, OUTPUT);
  11:sfboard_tests.cpp ****       digitalWrite(l+32, LOW);
  12:sfboard_tests.cpp ****    }
  13:sfboard_tests.cpp **** 
  14:sfboard_tests.cpp **** }
  15:sfboard_tests.cpp **** 
  16:sfboard_tests.cpp **** //***************************************
  17:sfboard_tests.cpp **** //* Toggles all the pins on the board.
  18:sfboard_tests.cpp **** //* Each pin is toggled a different number of times
  19:sfboard_tests.cpp **** //* See Pin mapping
  20:sfboard_tests.cpp **** void wiggleAllPins() {
  21:sfboard_tests.cpp **** uint8_t pin;
  22:sfboard_tests.cpp **** 
  23:sfboard_tests.cpp ****    /* All as output */
  24:sfboard_tests.cpp ****    for (int x=0; x<kPinCount; x++) {
  25:sfboard_tests.cpp ****       pinMode(x, OUTPUT);
  26:sfboard_tests.cpp ****    }
  27:sfboard_tests.cpp **** 
ARM GAS  /cygdrive/c/Users/Chris/AppData/Local/Temp/cc2iY4e6.s 			page 2


  28:sfboard_tests.cpp ****    /* Pin Toggling */
  29:sfboard_tests.cpp ****    for (pin=0; pin < kPinCount; pin++) {
  30:sfboard_tests.cpp ****       for (int x=0; x<pin+1; x++) {
  31:sfboard_tests.cpp ****          digitalWrite(pin, LOW);
  32:sfboard_tests.cpp ****          digitalWrite(pin, HIGH);
  33:sfboard_tests.cpp ****          digitalWrite(pin, LOW);
  34:sfboard_tests.cpp ****       }
  35:sfboard_tests.cpp ****    }
  36:sfboard_tests.cpp **** }
  37:sfboard_tests.cpp **** 
  38:sfboard_tests.cpp **** //****************************************
  39:sfboard_tests.cpp **** //* Toggles the Outbound power 
  40:sfboard_tests.cpp **** //* on all four faces
  41:sfboard_tests.cpp **** void toggleOutboundPower() {
  42:sfboard_tests.cpp **** volatile long wait;
  43:sfboard_tests.cpp **** 
  44:sfboard_tests.cpp ****    pinMode(7, OUTPUT);
  45:sfboard_tests.cpp ****    pinMode(15, OUTPUT);
  46:sfboard_tests.cpp ****    pinMode(23, OUTPUT);
  47:sfboard_tests.cpp ****    pinMode(31, OUTPUT);
  48:sfboard_tests.cpp ****          
  49:sfboard_tests.cpp ****    digitalWrite(7, LOW);
  50:sfboard_tests.cpp ****    digitalWrite(15, LOW);
  51:sfboard_tests.cpp ****    digitalWrite(23, LOW);
  52:sfboard_tests.cpp ****    digitalWrite(31, LOW);
  53:sfboard_tests.cpp ****    
  54:sfboard_tests.cpp ****    for (wait=0;wait<600000; wait++) {
  55:sfboard_tests.cpp ****      ;
  56:sfboard_tests.cpp ****    }
  57:sfboard_tests.cpp ****    
  58:sfboard_tests.cpp ****     digitalWrite(7, HIGH);
  59:sfboard_tests.cpp ****     digitalWrite(15, HIGH);
  60:sfboard_tests.cpp ****     digitalWrite(23, HIGH);
  61:sfboard_tests.cpp ****     digitalWrite(31, HIGH);
  62:sfboard_tests.cpp ****    
  63:sfboard_tests.cpp ****    for (wait=0;wait<600000; wait++) {
  64:sfboard_tests.cpp ****      ;
  65:sfboard_tests.cpp ****    }
  66:sfboard_tests.cpp **** }
  67:sfboard_tests.cpp **** 
  68:sfboard_tests.cpp **** 
  69:sfboard_tests.cpp **** //**********************************************
  70:sfboard_tests.cpp **** //* Lights up the outside LEDs in 
  71:sfboard_tests.cpp **** //* a rotational pattern.
  72:sfboard_tests.cpp **** //*
  73:sfboard_tests.cpp **** //* spinCount = the number of times to spin 
  74:sfboard_tests.cpp **** void spinLEDs(unsigned int spinCount) {
  27              		.loc 1 74 0
  28              		@ Function supports interworking.
  29              		@ args = 0, pretend = 0, frame = 8
  30              		@ frame_needed = 0, uses_anonymous_args = 0
  31              	.LVL0:
  32 0000 37402DE9 		stmfd	sp!, {r0, r1, r2, r4, r5, lr}
  33              	.LCFI0:
  34              	.LVL1:
  35              		.loc 1 74 0
  36 0004 0040A0E1 		mov	r4, r0
ARM GAS  /cygdrive/c/Users/Chris/AppData/Local/Temp/cc2iY4e6.s 			page 3


  37              	.LVL2:
  38              	.LBB2:
  75:sfboard_tests.cpp **** 
  76:sfboard_tests.cpp ****    unsigned int face=0;
  77:sfboard_tests.cpp ****    volatile unsigned int wait;
  78:sfboard_tests.cpp **** 
  79:sfboard_tests.cpp ****    /* Turn off the RGB LEDs */
  80:sfboard_tests.cpp ****    digitalWrite(35, HIGH);
  39              		.loc 1 80 0
  40 0008 0110A0E3 		mov	r1, #1
  41 000c 2300A0E3 		mov	r0, #35
  42              	.LVL3:
  43 0010 FEFFFFEB 		bl	_Z12digitalWritehh
  81:sfboard_tests.cpp ****    digitalWrite(36, HIGH);
  44              		.loc 1 81 0
  45 0014 2400A0E3 		mov	r0, #36
  46 0018 0110A0E3 		mov	r1, #1
  47 001c FEFFFFEB 		bl	_Z12digitalWritehh
  82:sfboard_tests.cpp ****    digitalWrite(37, HIGH);
  48              		.loc 1 82 0
  49 0020 2500A0E3 		mov	r0, #37
  50 0024 0110A0E3 		mov	r1, #1
  51 0028 FEFFFFEB 		bl	_Z12digitalWritehh
  83:sfboard_tests.cpp ****    digitalWrite(38, HIGH);
  52              		.loc 1 83 0
  53 002c 2600A0E3 		mov	r0, #38
  54 0030 0110A0E3 		mov	r1, #1
  84:sfboard_tests.cpp ****    
  85:sfboard_tests.cpp ****    spinCount*=4;
  55              		.loc 1 85 0
  56 0034 0451A0E1 		mov	r5, r4, asl #2
  57              	.LVL4:
  58              		.loc 1 83 0
  59 0038 FEFFFFEB 		bl	_Z12digitalWritehh
  60              		.loc 1 85 0
  61 003c 0040A0E3 		mov	r4, #0
  62              	.LVL5:
  63 0040 3A0000EA 		b	.L2
  64              	.LVL6:
  65              	.L12:
  86:sfboard_tests.cpp ****    
  87:sfboard_tests.cpp ****    /* Spin! */
  88:sfboard_tests.cpp ****    while (spinCount--) {
  89:sfboard_tests.cpp **** 
  90:sfboard_tests.cpp ****       /* Custom tuned for minimal epilepsy ;-) */
  91:sfboard_tests.cpp ****       
  92:sfboard_tests.cpp ****       /* Change the light pattern */
  93:sfboard_tests.cpp ****       switch (face) {
  66              		.loc 1 93 0
  67 0044 030054E3 		cmp	r4, #3
  68 0048 04F19F97 		ldrls	pc, [pc, r4, asl #2]
  69 004c 2A0000EA 		b	.L3
  70              	.L8:
  71 0050 60000000 		.word	.L4
  72 0054 84000000 		.word	.L5
  73 0058 9C000000 		.word	.L6
  74 005c CC000000 		.word	.L7
ARM GAS  /cygdrive/c/Users/Chris/AppData/Local/Temp/cc2iY4e6.s 			page 4


  75              	.L4:
  94:sfboard_tests.cpp **** 
  95:sfboard_tests.cpp ****       case 0:
  96:sfboard_tests.cpp ****          digitalWrite(35, HIGH);
  76              		.loc 1 96 0
  77 0060 2300A0E3 		mov	r0, #35
  78 0064 0110A0E3 		mov	r1, #1
  79 0068 FEFFFFEB 		bl	_Z12digitalWritehh
  97:sfboard_tests.cpp ****          digitalWrite(36, HIGH);
  80              		.loc 1 97 0
  81 006c 2400A0E3 		mov	r0, #36
  82 0070 0110A0E3 		mov	r1, #1
  83 0074 FEFFFFEB 		bl	_Z12digitalWritehh
  98:sfboard_tests.cpp ****          digitalWrite(37, LOW);
  84              		.loc 1 98 0
  85 0078 2500A0E3 		mov	r0, #37
  86 007c 0010A0E3 		mov	r1, #0
  87 0080 190000EA 		b	.L14
  88              	.L5:
  99:sfboard_tests.cpp ****          digitalWrite(38, HIGH);
 100:sfboard_tests.cpp ****          break;
 101:sfboard_tests.cpp **** 
 102:sfboard_tests.cpp ****       case 1:
 103:sfboard_tests.cpp ****          digitalWrite(35, HIGH);
  89              		.loc 1 103 0
  90 0084 2300A0E3 		mov	r0, #35
  91 0088 0110A0E3 		mov	r1, #1
  92 008c FEFFFFEB 		bl	_Z12digitalWritehh
 104:sfboard_tests.cpp ****          digitalWrite(36, LOW);
  93              		.loc 1 104 0
  94 0090 2400A0E3 		mov	r0, #36
  95 0094 0010A0E3 		mov	r1, #0
  96 0098 100000EA 		b	.L17
  97              	.L6:
 105:sfboard_tests.cpp ****          digitalWrite(37, HIGH);
 106:sfboard_tests.cpp ****          digitalWrite(38, HIGH);
 107:sfboard_tests.cpp ****          break;
 108:sfboard_tests.cpp **** 
 109:sfboard_tests.cpp ****       case 2:
 110:sfboard_tests.cpp ****          digitalWrite(35, HIGH);
  98              		.loc 1 110 0
  99 009c 2300A0E3 		mov	r0, #35
 100 00a0 0110A0E3 		mov	r1, #1
 101 00a4 FEFFFFEB 		bl	_Z12digitalWritehh
 111:sfboard_tests.cpp ****          digitalWrite(36, HIGH);
 102              		.loc 1 111 0
 103 00a8 2400A0E3 		mov	r0, #36
 104 00ac 0110A0E3 		mov	r1, #1
 105 00b0 FEFFFFEB 		bl	_Z12digitalWritehh
 112:sfboard_tests.cpp ****          digitalWrite(37, HIGH);
 106              		.loc 1 112 0
 107 00b4 2500A0E3 		mov	r0, #37
 108 00b8 0110A0E3 		mov	r1, #1
 109 00bc FEFFFFEB 		bl	_Z12digitalWritehh
 113:sfboard_tests.cpp ****          digitalWrite(38, LOW); 
 110              		.loc 1 113 0
 111 00c0 2600A0E3 		mov	r0, #38
ARM GAS  /cygdrive/c/Users/Chris/AppData/Local/Temp/cc2iY4e6.s 			page 5


 112 00c4 0010A0E3 		mov	r1, #0
 113 00c8 0A0000EA 		b	.L15
 114              	.L7:
 114:sfboard_tests.cpp ****          break;
 115:sfboard_tests.cpp **** 
 116:sfboard_tests.cpp ****       case 3:
 117:sfboard_tests.cpp ****          digitalWrite(35, LOW);
 115              		.loc 1 117 0
 116 00cc 2300A0E3 		mov	r0, #35
 117 00d0 0010A0E3 		mov	r1, #0
 118 00d4 FEFFFFEB 		bl	_Z12digitalWritehh
 118:sfboard_tests.cpp ****          digitalWrite(36, HIGH);
 119              		.loc 1 118 0
 120 00d8 2400A0E3 		mov	r0, #36
 121 00dc 0110A0E3 		mov	r1, #1
 122              	.L17:
 123 00e0 FEFFFFEB 		bl	_Z12digitalWritehh
 119:sfboard_tests.cpp ****          digitalWrite(37, HIGH);
 124              		.loc 1 119 0
 125 00e4 2500A0E3 		mov	r0, #37
 126 00e8 0110A0E3 		mov	r1, #1
 127              	.L14:
 128 00ec FEFFFFEB 		bl	_Z12digitalWritehh
 120:sfboard_tests.cpp ****          digitalWrite(38, HIGH);
 129              		.loc 1 120 0
 130 00f0 2600A0E3 		mov	r0, #38
 131 00f4 0110A0E3 		mov	r1, #1
 132              	.L15:
 133 00f8 FEFFFFEB 		bl	_Z12digitalWritehh
 134              	.L3:
 121:sfboard_tests.cpp ****          break;
 122:sfboard_tests.cpp ****       }
 123:sfboard_tests.cpp **** 
 124:sfboard_tests.cpp ****       for (wait=0;wait<600000; wait++) {
 135              		.loc 1 124 0
 136 00fc 0030A0E3 		mov	r3, #0
 137 0100 010000EA 		b	.L16
 138              	.L10:
 139 0104 04309DE5 		ldr	r3, [sp, #4]
 140 0108 013083E2 		add	r3, r3, #1
 141              	.LVL7:
 142              	.L16:
 143 010c 04308DE5 		str	r3, [sp, #4]
 144 0110 04209DE5 		ldr	r2, [sp, #4]
 145 0114 24309FE5 		ldr	r3, .L18
 146              	.LVL8:
 147 0118 030052E1 		cmp	r2, r3
 148 011c F8FFFF9A 		bls	.L10
 125:sfboard_tests.cpp ****          ;
 126:sfboard_tests.cpp ****       }
 127:sfboard_tests.cpp **** 
 128:sfboard_tests.cpp ****       /* Move to the next led */
 129:sfboard_tests.cpp ****       face++;
 149              		.loc 1 129 0
 150 0120 014084E2 		add	r4, r4, #1
 130:sfboard_tests.cpp ****       if (face>=4) {
 151              		.loc 1 130 0
ARM GAS  /cygdrive/c/Users/Chris/AppData/Local/Temp/cc2iY4e6.s 			page 6


 152 0124 030054E3 		cmp	r4, #3
 153 0128 0040A083 		movhi	r4, #0
 154 012c 015045E2 		sub	r5, r5, #1
 155              	.L2:
 156              		.loc 1 88 0
 157 0130 000055E3 		cmp	r5, #0
 158 0134 C2FFFF1A 		bne	.L12
 159              	.LBE2:
 131:sfboard_tests.cpp ****          face=0;
 132:sfboard_tests.cpp ****       }
 133:sfboard_tests.cpp ****    }  
 134:sfboard_tests.cpp **** }...
 160              		.loc 1 134 0
 161 0138 3E40BDE8 		ldmfd	sp!, {r1, r2, r3, r4, r5, lr}
 162 013c 1EFF2FE1 		bx	lr
 163              	.L19:
 164              		.align	2
 165              	.L18:
 166 0140 BF270900 		.word	599999
 167              	.LFE5:
 168              		.size	_Z8spinLEDsj, .-_Z8spinLEDsj
 169              		.section	.text._Z19toggleOutboundPowerv,"ax",%progbits
 170              		.align	2
 171              		.global	_Z19toggleOutboundPowerv
 172              		.type	_Z19toggleOutboundPowerv, %function
 173              	_Z19toggleOutboundPowerv:
 174              	.LFB4:
 175              		.loc 1 41 0
 176              		@ Function supports interworking.
 177              		@ args = 0, pretend = 0, frame = 8
 178              		@ frame_needed = 0, uses_anonymous_args = 0
 179 0000 07402DE9 		stmfd	sp!, {r0, r1, r2, lr}
 180              	.LCFI1:
 181              	.LBB3:
 182              		.loc 1 44 0
 183 0004 0700A0E3 		mov	r0, #7
 184 0008 0110A0E3 		mov	r1, #1
 185 000c FEFFFFEB 		bl	_Z7pinModehh
 186              		.loc 1 45 0
 187 0010 0F00A0E3 		mov	r0, #15
 188 0014 0110A0E3 		mov	r1, #1
 189 0018 FEFFFFEB 		bl	_Z7pinModehh
 190              		.loc 1 46 0
 191 001c 1700A0E3 		mov	r0, #23
 192 0020 0110A0E3 		mov	r1, #1
 193 0024 FEFFFFEB 		bl	_Z7pinModehh
 194              		.loc 1 47 0
 195 0028 1F00A0E3 		mov	r0, #31
 196 002c 0110A0E3 		mov	r1, #1
 197 0030 FEFFFFEB 		bl	_Z7pinModehh
 198              		.loc 1 49 0
 199 0034 0700A0E3 		mov	r0, #7
 200 0038 0010A0E3 		mov	r1, #0
 201 003c FEFFFFEB 		bl	_Z12digitalWritehh
 202              		.loc 1 50 0
 203 0040 0F00A0E3 		mov	r0, #15
 204 0044 0010A0E3 		mov	r1, #0
ARM GAS  /cygdrive/c/Users/Chris/AppData/Local/Temp/cc2iY4e6.s 			page 7


 205 0048 FEFFFFEB 		bl	_Z12digitalWritehh
 206              		.loc 1 51 0
 207 004c 1700A0E3 		mov	r0, #23
 208 0050 0010A0E3 		mov	r1, #0
 209 0054 FEFFFFEB 		bl	_Z12digitalWritehh
 210              		.loc 1 52 0
 211 0058 1F00A0E3 		mov	r0, #31
 212 005c 0010A0E3 		mov	r1, #0
 213 0060 FEFFFFEB 		bl	_Z12digitalWritehh
 214              		.loc 1 54 0
 215 0064 0030A0E3 		mov	r3, #0
 216 0068 010000EA 		b	.L26
 217              	.LVL9:
 218              	.L22:
 219 006c 04309DE5 		ldr	r3, [sp, #4]
 220 0070 013083E2 		add	r3, r3, #1
 221              	.LVL10:
 222              	.L26:
 223 0074 04308DE5 		str	r3, [sp, #4]
 224 0078 04209DE5 		ldr	r2, [sp, #4]
 225 007c 60309FE5 		ldr	r3, .L28
 226              	.LVL11:
 227 0080 030052E1 		cmp	r2, r3
 228 0084 F8FFFFDA 		ble	.L22
 229              		.loc 1 58 0
 230 0088 0700A0E3 		mov	r0, #7
 231 008c 0110A0E3 		mov	r1, #1
 232 0090 FEFFFFEB 		bl	_Z12digitalWritehh
 233              		.loc 1 59 0
 234 0094 0F00A0E3 		mov	r0, #15
 235 0098 0110A0E3 		mov	r1, #1
 236 009c FEFFFFEB 		bl	_Z12digitalWritehh
 237              		.loc 1 60 0
 238 00a0 1700A0E3 		mov	r0, #23
 239 00a4 0110A0E3 		mov	r1, #1
 240 00a8 FEFFFFEB 		bl	_Z12digitalWritehh
 241              		.loc 1 61 0
 242 00ac 1F00A0E3 		mov	r0, #31
 243 00b0 0110A0E3 		mov	r1, #1
 244 00b4 FEFFFFEB 		bl	_Z12digitalWritehh
 245              		.loc 1 63 0
 246 00b8 0030A0E3 		mov	r3, #0
 247 00bc 010000EA 		b	.L27
 248              	.L24:
 249 00c0 04309DE5 		ldr	r3, [sp, #4]
 250 00c4 013083E2 		add	r3, r3, #1
 251              	.LVL12:
 252              	.L27:
 253 00c8 04308DE5 		str	r3, [sp, #4]
 254 00cc 04209DE5 		ldr	r2, [sp, #4]
 255 00d0 0C309FE5 		ldr	r3, .L28
 256              	.LVL13:
 257 00d4 030052E1 		cmp	r2, r3
 258 00d8 F8FFFFDA 		ble	.L24
 259              	.LBE3:
 260              		.loc 1 66 0
 261 00dc 0E40BDE8 		ldmfd	sp!, {r1, r2, r3, lr}
ARM GAS  /cygdrive/c/Users/Chris/AppData/Local/Temp/cc2iY4e6.s 			page 8


 262 00e0 1EFF2FE1 		bx	lr
 263              	.L29:
 264              		.align	2
 265              	.L28:
 266 00e4 BF270900 		.word	599999
 267              	.LFE4:
 268              		.size	_Z19toggleOutboundPowerv, .-_Z19toggleOutboundPowerv
 269              		.section	.text._Z13wiggleAllPinsv,"ax",%progbits
 270              		.align	2
 271              		.global	_Z13wiggleAllPinsv
 272              		.type	_Z13wiggleAllPinsv, %function
 273              	_Z13wiggleAllPinsv:
 274              	.LFB3:
 275              		.loc 1 20 0
 276              		@ Function supports interworking.
 277              		@ args = 0, pretend = 0, frame = 0
 278              		@ frame_needed = 0, uses_anonymous_args = 0
 279 0000 70402DE9 		stmfd	sp!, {r4, r5, r6, lr}
 280              	.LCFI2:
 281              		.loc 1 20 0
 282 0004 0040A0E3 		mov	r4, #0
 283              	.LVL14:
 284              	.L31:
 285              	.LBB4:
 286              	.LBB5:
 287              		.loc 1 25 0
 288 0008 FF0004E2 		and	r0, r4, #255
 289 000c 0110A0E3 		mov	r1, #1
 290              		.loc 1 24 0
 291 0010 014084E2 		add	r4, r4, #1
 292              		.loc 1 25 0
 293 0014 FEFFFFEB 		bl	_Z7pinModehh
 294              		.loc 1 24 0
 295 0018 2B0054E3 		cmp	r4, #43
 296 001c F9FFFF1A 		bne	.L31
 297 0020 0040A0E3 		mov	r4, #0
 298              	.LVL15:
 299 0024 0E0000EA 		b	.L32
 300              	.LVL16:
 301              	.L33:
 302              	.LBE5:
 303              	.LBB6:
 304              		.loc 1 31 0
 305 0028 FEFFFFEB 		bl	_Z12digitalWritehh
 306              		.loc 1 32 0
 307 002c 0600A0E1 		mov	r0, r6
 308 0030 0110A0E3 		mov	r1, #1
 309 0034 FEFFFFEB 		bl	_Z12digitalWritehh
 310              		.loc 1 33 0
 311 0038 0600A0E1 		mov	r0, r6
 312 003c 0010A0E3 		mov	r1, #0
 313 0040 FEFFFFEB 		bl	_Z12digitalWritehh
 314              	.L35:
 315              		.loc 1 30 0
 316 0044 050054E1 		cmp	r4, r5
 317              		.loc 1 31 0
 318 0048 0010A0E3 		mov	r1, #0
ARM GAS  /cygdrive/c/Users/Chris/AppData/Local/Temp/cc2iY4e6.s 			page 9


 319 004c 0600A0E1 		mov	r0, r6
 320              		.loc 1 30 0
 321 0050 015085E2 		add	r5, r5, #1
 322 0054 F3FFFFAA 		bge	.L33
 323 0058 014084E2 		add	r4, r4, #1
 324              	.LBE6:
 325              		.loc 1 29 0
 326 005c 2B0054E3 		cmp	r4, #43
 327 0060 0200000A 		beq	.L36
 328              	.L32:
 329 0064 FF6004E2 		and	r6, r4, #255
 330 0068 0050A0E3 		mov	r5, #0
 331 006c F4FFFFEA 		b	.L35
 332              	.L36:
 333              	.LBE4:
 334              		.loc 1 36 0
 335 0070 7040BDE8 		ldmfd	sp!, {r4, r5, r6, lr}
 336 0074 1EFF2FE1 		bx	lr
 337              	.LFE3:
 338              		.size	_Z13wiggleAllPinsv, .-_Z13wiggleAllPinsv
 339              		.section	.text._Z13turnOnAllLEDsv,"ax",%progbits
 340              		.align	2
 341              		.global	_Z13turnOnAllLEDsv
 342              		.type	_Z13turnOnAllLEDsv, %function
 343              	_Z13turnOnAllLEDsv:
 344              	.LFB2:
 345              		.loc 1 7 0
 346              		@ Function supports interworking.
 347              		@ args = 0, pretend = 0, frame = 0
 348              		@ frame_needed = 0, uses_anonymous_args = 0
 349 0000 10402DE9 		stmfd	sp!, {r4, lr}
 350              	.LCFI3:
 351              		.loc 1 7 0
 352 0004 2040A0E3 		mov	r4, #32
 353              	.L38:
 354              	.LBB7:
 355              		.loc 1 10 0
 356 0008 0400A0E1 		mov	r0, r4
 357 000c 0110A0E3 		mov	r1, #1
 358 0010 FEFFFFEB 		bl	_Z7pinModehh
 359              		.loc 1 11 0
 360 0014 0400A0E1 		mov	r0, r4
 361 0018 0010A0E3 		mov	r1, #0
 362 001c FEFFFFEB 		bl	_Z12digitalWritehh
 363 0020 013084E2 		add	r3, r4, #1
 364 0024 FF4003E2 		and	r4, r3, #255
 365              		.loc 1 9 0
 366 0028 270054E3 		cmp	r4, #39
 367 002c F5FFFF1A 		bne	.L38
 368              	.LBE7:
 369              		.loc 1 14 0
 370 0030 1040BDE8 		ldmfd	sp!, {r4, lr}
 371 0034 1EFF2FE1 		bx	lr
 372              	.LFE2:
 373              		.size	_Z13turnOnAllLEDsv, .-_Z13turnOnAllLEDsv
 374              		.section	.debug_frame,"",%progbits
 375              	.Lframe0:
ARM GAS  /cygdrive/c/Users/Chris/AppData/Local/Temp/cc2iY4e6.s 			page 10


 376 0000 0C000000 		.4byte	.LECIE0-.LSCIE0
 377              	.LSCIE0:
 378 0004 FFFFFFFF 		.4byte	0xffffffff
 379 0008 01       		.byte	0x1
 380 0009 00       		.ascii	"\000"
 381 000a 01       		.uleb128 0x1
 382 000b 7C       		.sleb128 -4
 383 000c 0E       		.byte	0xe
 384 000d 0C       		.byte	0xc
 385 000e 0D       		.uleb128 0xd
 386 000f 00       		.uleb128 0x0
 387              		.align	2
 388              	.LECIE0:
 389              	.LSFDE0:
 390 0010 1C000000 		.4byte	.LEFDE0-.LASFDE0
 391              	.LASFDE0:
 392 0014 00000000 		.4byte	.Lframe0
 393 0018 00000000 		.4byte	.LFB5
 394 001c 44010000 		.4byte	.LFE5-.LFB5
 395 0020 44       		.byte	0x4
 396              		.4byte	.LCFI0-.LFB5
 397 0021 0E       		.byte	0xe
 398 0022 18       		.uleb128 0x18
 399 0023 8E       		.byte	0x8e
 400 0024 01       		.uleb128 0x1
 401 0025 85       		.byte	0x85
 402 0026 02       		.uleb128 0x2
 403 0027 84       		.byte	0x84
 404 0028 03       		.uleb128 0x3
 405 0029 82       		.byte	0x82
 406 002a 04       		.uleb128 0x4
 407 002b 81       		.byte	0x81
 408 002c 05       		.uleb128 0x5
 409 002d 80       		.byte	0x80
 410 002e 06       		.uleb128 0x6
 411 002f 00       		.align	2
 412              	.LEFDE0:
 413              	.LSFDE2:
 414 0030 18000000 		.4byte	.LEFDE2-.LASFDE2
 415              	.LASFDE2:
 416 0034 00000000 		.4byte	.Lframe0
 417 0038 00000000 		.4byte	.LFB4
 418 003c E8000000 		.4byte	.LFE4-.LFB4
 419 0040 44       		.byte	0x4
 420              		.4byte	.LCFI1-.LFB4
 421 0041 0E       		.byte	0xe
 422 0042 10       		.uleb128 0x10
 423 0043 8E       		.byte	0x8e
 424 0044 01       		.uleb128 0x1
 425 0045 82       		.byte	0x82
 426 0046 02       		.uleb128 0x2
 427 0047 81       		.byte	0x81
 428 0048 03       		.uleb128 0x3
 429 0049 80       		.byte	0x80
 430 004a 04       		.uleb128 0x4
 431 004b 00       		.align	2
 432              	.LEFDE2:
ARM GAS  /cygdrive/c/Users/Chris/AppData/Local/Temp/cc2iY4e6.s 			page 11


 433              	.LSFDE4:
 434 004c 18000000 		.4byte	.LEFDE4-.LASFDE4
 435              	.LASFDE4:
 436 0050 00000000 		.4byte	.Lframe0
 437 0054 00000000 		.4byte	.LFB3
 438 0058 78000000 		.4byte	.LFE3-.LFB3
 439 005c 44       		.byte	0x4
 440              		.4byte	.LCFI2-.LFB3
 441 005d 0E       		.byte	0xe
 442 005e 10       		.uleb128 0x10
 443 005f 8E       		.byte	0x8e
 444 0060 01       		.uleb128 0x1
 445 0061 86       		.byte	0x86
 446 0062 02       		.uleb128 0x2
 447 0063 85       		.byte	0x85
 448 0064 03       		.uleb128 0x3
 449 0065 84       		.byte	0x84
 450 0066 04       		.uleb128 0x4
 451 0067 00       		.align	2
 452              	.LEFDE4:
 453              	.LSFDE6:
 454 0068 14000000 		.4byte	.LEFDE6-.LASFDE6
 455              	.LASFDE6:
 456 006c 00000000 		.4byte	.Lframe0
 457 0070 00000000 		.4byte	.LFB2
 458 0074 38000000 		.4byte	.LFE2-.LFB2
 459 0078 44       		.byte	0x4
 460              		.4byte	.LCFI3-.LFB2
 461 0079 0E       		.byte	0xe
 462 007a 08       		.uleb128 0x8
 463 007b 8E       		.byte	0x8e
 464 007c 01       		.uleb128 0x1
 465 007d 84       		.byte	0x84
 466 007e 02       		.uleb128 0x2
 467 007f 00       		.align	2
 468              	.LEFDE6:
 469              		.text
 470              	.Letext0:
 471              		.section	.debug_loc,"",%progbits
 472              	.Ldebug_loc0:
 473              	.LLST0:
 474 0000 00000000 		.4byte	.LFB5
 475 0004 04000000 		.4byte	.LCFI0
 476 0008 0100     		.2byte	0x1
 477 000a 5D       		.byte	0x5d
 478 000b 04000000 		.4byte	.LCFI0
 479 000f 44010000 		.4byte	.LFE5
 480 0013 0200     		.2byte	0x2
 481 0015 7D       		.byte	0x7d
 482 0016 18       		.sleb128 24
 483 0017 00000000 		.4byte	0x0
 484 001b 00000000 		.4byte	0x0
 485              	.LLST1:
 486 001f 00000000 		.4byte	.LVL0
 487 0023 04000000 		.4byte	.LVL1
 488 0027 0100     		.2byte	0x1
 489 0029 50       		.byte	0x50
ARM GAS  /cygdrive/c/Users/Chris/AppData/Local/Temp/cc2iY4e6.s 			page 12


 490 002a 08000000 		.4byte	.LVL2
 491 002e 10000000 		.4byte	.LVL3
 492 0032 0100     		.2byte	0x1
 493 0034 50       		.byte	0x50
 494 0035 10000000 		.4byte	.LVL3
 495 0039 38000000 		.4byte	.LVL4
 496 003d 0100     		.2byte	0x1
 497 003f 54       		.byte	0x54
 498 0040 38000000 		.4byte	.LVL4
 499 0044 44010000 		.4byte	.LFE5
 500 0048 0100     		.2byte	0x1
 501 004a 55       		.byte	0x55
 502 004b 00000000 		.4byte	0x0
 503 004f 00000000 		.4byte	0x0
 504              	.LLST2:
 505 0053 44000000 		.4byte	.LVL6
 506 0057 0C010000 		.4byte	.LVL7
 507 005b 0200     		.2byte	0x2
 508 005d 91       		.byte	0x91
 509 005e 7C       		.sleb128 -4
 510 005f 0C010000 		.4byte	.LVL7
 511 0063 18010000 		.4byte	.LVL8
 512 0067 0100     		.2byte	0x1
 513 0069 53       		.byte	0x53
 514 006a 18010000 		.4byte	.LVL8
 515 006e 44010000 		.4byte	.LFE5
 516 0072 0200     		.2byte	0x2
 517 0074 91       		.byte	0x91
 518 0075 7C       		.sleb128 -4
 519 0076 00000000 		.4byte	0x0
 520 007a 00000000 		.4byte	0x0
 521              	.LLST3:
 522 007e 00000000 		.4byte	.LFB4
 523 0082 04000000 		.4byte	.LCFI1
 524 0086 0100     		.2byte	0x1
 525 0088 5D       		.byte	0x5d
 526 0089 04000000 		.4byte	.LCFI1
 527 008d E8000000 		.4byte	.LFE4
 528 0091 0200     		.2byte	0x2
 529 0093 7D       		.byte	0x7d
 530 0094 10       		.sleb128 16
 531 0095 00000000 		.4byte	0x0
 532 0099 00000000 		.4byte	0x0
 533              	.LLST4:
 534 009d 6C000000 		.4byte	.LVL9
 535 00a1 74000000 		.4byte	.LVL10
 536 00a5 0200     		.2byte	0x2
 537 00a7 91       		.byte	0x91
 538 00a8 7C       		.sleb128 -4
 539 00a9 74000000 		.4byte	.LVL10
 540 00ad 80000000 		.4byte	.LVL11
 541 00b1 0100     		.2byte	0x1
 542 00b3 53       		.byte	0x53
 543 00b4 80000000 		.4byte	.LVL11
 544 00b8 C8000000 		.4byte	.LVL12
 545 00bc 0200     		.2byte	0x2
 546 00be 91       		.byte	0x91
ARM GAS  /cygdrive/c/Users/Chris/AppData/Local/Temp/cc2iY4e6.s 			page 13


 547 00bf 7C       		.sleb128 -4
 548 00c0 C8000000 		.4byte	.LVL12
 549 00c4 D4000000 		.4byte	.LVL13
 550 00c8 0100     		.2byte	0x1
 551 00ca 53       		.byte	0x53
 552 00cb D4000000 		.4byte	.LVL13
 553 00cf E8000000 		.4byte	.LFE4
 554 00d3 0200     		.2byte	0x2
 555 00d5 91       		.byte	0x91
 556 00d6 7C       		.sleb128 -4
 557 00d7 00000000 		.4byte	0x0
 558 00db 00000000 		.4byte	0x0
 559              	.LLST5:
 560 00df 00000000 		.4byte	.LFB3
 561 00e3 04000000 		.4byte	.LCFI2
 562 00e7 0100     		.2byte	0x1
 563 00e9 5D       		.byte	0x5d
 564 00ea 04000000 		.4byte	.LCFI2
 565 00ee 78000000 		.4byte	.LFE3
 566 00f2 0200     		.2byte	0x2
 567 00f4 7D       		.byte	0x7d
 568 00f5 10       		.sleb128 16
 569 00f6 00000000 		.4byte	0x0
 570 00fa 00000000 		.4byte	0x0
 571              	.LLST6:
 572 00fe 08000000 		.4byte	.LVL14
 573 0102 24000000 		.4byte	.LVL15
 574 0106 0100     		.2byte	0x1
 575 0108 54       		.byte	0x54
 576 0109 00000000 		.4byte	0x0
 577 010d 00000000 		.4byte	0x0
 578              	.LLST7:
 579 0111 00000000 		.4byte	.LFB2
 580 0115 04000000 		.4byte	.LCFI3
 581 0119 0100     		.2byte	0x1
 582 011b 5D       		.byte	0x5d
 583 011c 04000000 		.4byte	.LCFI3
 584 0120 38000000 		.4byte	.LFE2
 585 0124 0200     		.2byte	0x2
 586 0126 7D       		.byte	0x7d
 587 0127 08       		.sleb128 8
 588 0128 00000000 		.4byte	0x0
 589 012c 00000000 		.4byte	0x0
 590              		.file 2 "/cygdrive/f/ARM2008q3-66-GPL/build/install/Bin/../lib/gcc/arm-none-eabi/4.3.2/../../../..
 591              		.section	.debug_info
 592 0000 71010000 		.4byte	0x171
 593 0004 0200     		.2byte	0x2
 594 0006 00000000 		.4byte	.Ldebug_abbrev0
 595 000a 04       		.byte	0x4
 596 000b 01       		.uleb128 0x1
 597 000c 20000000 		.4byte	.LASF17
 598 0010 04       		.byte	0x4
 599 0011 0E000000 		.4byte	.LASF18
 600 0015 04010000 		.4byte	.LASF19
 601 0019 00000000 		.4byte	0x0
 602 001d 00000000 		.4byte	0x0
 603 0021 00000000 		.4byte	.Ldebug_ranges0+0x0
ARM GAS  /cygdrive/c/Users/Chris/AppData/Local/Temp/cc2iY4e6.s 			page 14


 604 0025 00000000 		.4byte	.Ldebug_line0
 605 0029 02       		.uleb128 0x2
 606 002a 01       		.byte	0x1
 607 002b 06       		.byte	0x6
 608 002c 40010000 		.4byte	.LASF0
 609 0030 03       		.uleb128 0x3
 610 0031 BE000000 		.4byte	.LASF20
 611 0035 02       		.byte	0x2
 612 0036 2E       		.byte	0x2e
 613 0037 3B000000 		.4byte	0x3b
 614 003b 02       		.uleb128 0x2
 615 003c 01       		.byte	0x1
 616 003d 08       		.byte	0x8
 617 003e 33000000 		.4byte	.LASF1
 618 0042 02       		.uleb128 0x2
 619 0043 02       		.byte	0x2
 620 0044 05       		.byte	0x5
 621 0045 FA000000 		.4byte	.LASF2
 622 0049 02       		.uleb128 0x2
 623 004a 02       		.byte	0x2
 624 004b 07       		.byte	0x7
 625 004c 53000000 		.4byte	.LASF3
 626 0050 02       		.uleb128 0x2
 627 0051 04       		.byte	0x4
 628 0052 05       		.byte	0x5
 629 0053 37010000 		.4byte	.LASF4
 630 0057 02       		.uleb128 0x2
 631 0058 04       		.byte	0x4
 632 0059 07       		.byte	0x7
 633 005a 41000000 		.4byte	.LASF5
 634 005e 02       		.uleb128 0x2
 635 005f 08       		.byte	0x8
 636 0060 05       		.byte	0x5
 637 0061 E7000000 		.4byte	.LASF6
 638 0065 02       		.uleb128 0x2
 639 0066 08       		.byte	0x8
 640 0067 07       		.byte	0x7
 641 0068 A7000000 		.4byte	.LASF7
 642 006c 04       		.uleb128 0x4
 643 006d 04       		.byte	0x4
 644 006e 05       		.byte	0x5
 645 006f 696E7400 		.ascii	"int\000"
 646 0073 02       		.uleb128 0x2
 647 0074 04       		.byte	0x4
 648 0075 07       		.byte	0x7
 649 0076 9A000000 		.4byte	.LASF8
 650 007a 05       		.uleb128 0x5
 651 007b 01       		.byte	0x1
 652 007c 87000000 		.4byte	.LASF11
 653 0080 01       		.byte	0x1
 654 0081 4A       		.byte	0x4a
 655 0082 66000000 		.4byte	.LASF13
 656 0086 00000000 		.4byte	.LFB5
 657 008a 44010000 		.4byte	.LFE5
 658 008e 00000000 		.4byte	.LLST0
 659 0092 C2000000 		.4byte	0xc2
 660 0096 06       		.uleb128 0x6
ARM GAS  /cygdrive/c/Users/Chris/AppData/Local/Temp/cc2iY4e6.s 			page 15


 661 0097 90000000 		.4byte	.LASF21
 662 009b 01       		.byte	0x1
 663 009c 4A       		.byte	0x4a
 664 009d 73000000 		.4byte	0x73
 665 00a1 1F000000 		.4byte	.LLST1
 666 00a5 07       		.uleb128 0x7
 667 00a6 F5000000 		.4byte	.LASF9
 668 00aa 01       		.byte	0x1
 669 00ab 4C       		.byte	0x4c
 670 00ac 73000000 		.4byte	0x73
 671 00b0 01       		.byte	0x1
 672 00b1 54       		.byte	0x54
 673 00b2 08       		.uleb128 0x8
 674 00b3 2E000000 		.4byte	.LASF10
 675 00b7 01       		.byte	0x1
 676 00b8 4D       		.byte	0x4d
 677 00b9 C2000000 		.4byte	0xc2
 678 00bd 53000000 		.4byte	.LLST2
 679 00c1 00       		.byte	0x0
 680 00c2 09       		.uleb128 0x9
 681 00c3 73000000 		.4byte	0x73
 682 00c7 05       		.uleb128 0x5
 683 00c8 01       		.byte	0x1
 684 00c9 73000000 		.4byte	.LASF12
 685 00cd 01       		.byte	0x1
 686 00ce 29       		.byte	0x29
 687 00cf 4C010000 		.4byte	.LASF14
 688 00d3 00000000 		.4byte	.LFB4
 689 00d7 E8000000 		.4byte	.LFE4
 690 00db 7E000000 		.4byte	.LLST3
 691 00df F3000000 		.4byte	0xf3
 692 00e3 08       		.uleb128 0x8
 693 00e4 2E000000 		.4byte	.LASF10
 694 00e8 01       		.byte	0x1
 695 00e9 2A       		.byte	0x2a
 696 00ea F3000000 		.4byte	0xf3
 697 00ee 9D000000 		.4byte	.LLST4
 698 00f2 00       		.byte	0x0
 699 00f3 09       		.uleb128 0x9
 700 00f4 50000000 		.4byte	0x50
 701 00f8 05       		.uleb128 0x5
 702 00f9 01       		.byte	0x1
 703 00fa 00000000 		.4byte	.LASF15
 704 00fe 01       		.byte	0x1
 705 00ff 14       		.byte	0x14
 706 0100 65010000 		.4byte	.LASF16
 707 0104 00000000 		.4byte	.LFB3
 708 0108 78000000 		.4byte	.LFE3
 709 010c DF000000 		.4byte	.LLST5
 710 0110 52010000 		.4byte	0x152
 711 0114 0A       		.uleb128 0xa
 712 0115 70696E00 		.ascii	"pin\000"
 713 0119 01       		.byte	0x1
 714 011a 15       		.byte	0x15
 715 011b 30000000 		.4byte	0x30
 716 011f 01       		.byte	0x1
 717 0120 56       		.byte	0x56
ARM GAS  /cygdrive/c/Users/Chris/AppData/Local/Temp/cc2iY4e6.s 			page 16


 718 0121 0B       		.uleb128 0xb
 719 0122 08000000 		.4byte	.LBB5
 720 0126 28000000 		.4byte	.LBE5
 721 012a 3C010000 		.4byte	0x13c
 722 012e 0C       		.uleb128 0xc
 723 012f 7800     		.ascii	"x\000"
 724 0131 01       		.byte	0x1
 725 0132 18       		.byte	0x18
 726 0133 6C000000 		.4byte	0x6c
 727 0137 FE000000 		.4byte	.LLST6
 728 013b 00       		.byte	0x0
 729 013c 0D       		.uleb128 0xd
 730 013d 28000000 		.4byte	.LBB6
 731 0141 5C000000 		.4byte	.LBE6
 732 0145 0A       		.uleb128 0xa
 733 0146 7800     		.ascii	"x\000"
 734 0148 01       		.byte	0x1
 735 0149 1E       		.byte	0x1e
 736 014a 6C000000 		.4byte	0x6c
 737 014e 01       		.byte	0x1
 738 014f 55       		.byte	0x55
 739 0150 00       		.byte	0x0
 740 0151 00       		.byte	0x0
 741 0152 0E       		.uleb128 0xe
 742 0153 01       		.byte	0x1
 743 0154 D9000000 		.4byte	.LASF22
 744 0158 01       		.byte	0x1
 745 0159 07       		.byte	0x7
 746 015a C6000000 		.4byte	.LASF23
 747 015e 00000000 		.4byte	.LFB2
 748 0162 38000000 		.4byte	.LFE2
 749 0166 11010000 		.4byte	.LLST7
 750 016a 0F       		.uleb128 0xf
 751 016b 6C00     		.ascii	"l\000"
 752 016d 01       		.byte	0x1
 753 016e 09       		.byte	0x9
 754 016f 6C000000 		.4byte	0x6c
 755 0173 00       		.byte	0x0
 756 0174 00       		.byte	0x0
 757              		.section	.debug_abbrev
 758 0000 01       		.uleb128 0x1
 759 0001 11       		.uleb128 0x11
 760 0002 01       		.byte	0x1
 761 0003 25       		.uleb128 0x25
 762 0004 0E       		.uleb128 0xe
 763 0005 13       		.uleb128 0x13
 764 0006 0B       		.uleb128 0xb
 765 0007 03       		.uleb128 0x3
 766 0008 0E       		.uleb128 0xe
 767 0009 1B       		.uleb128 0x1b
 768 000a 0E       		.uleb128 0xe
 769 000b 11       		.uleb128 0x11
 770 000c 01       		.uleb128 0x1
 771 000d 52       		.uleb128 0x52
 772 000e 01       		.uleb128 0x1
 773 000f 55       		.uleb128 0x55
 774 0010 06       		.uleb128 0x6
ARM GAS  /cygdrive/c/Users/Chris/AppData/Local/Temp/cc2iY4e6.s 			page 17


 775 0011 10       		.uleb128 0x10
 776 0012 06       		.uleb128 0x6
 777 0013 00       		.byte	0x0
 778 0014 00       		.byte	0x0
 779 0015 02       		.uleb128 0x2
 780 0016 24       		.uleb128 0x24
 781 0017 00       		.byte	0x0
 782 0018 0B       		.uleb128 0xb
 783 0019 0B       		.uleb128 0xb
 784 001a 3E       		.uleb128 0x3e
 785 001b 0B       		.uleb128 0xb
 786 001c 03       		.uleb128 0x3
 787 001d 0E       		.uleb128 0xe
 788 001e 00       		.byte	0x0
 789 001f 00       		.byte	0x0
 790 0020 03       		.uleb128 0x3
 791 0021 16       		.uleb128 0x16
 792 0022 00       		.byte	0x0
 793 0023 03       		.uleb128 0x3
 794 0024 0E       		.uleb128 0xe
 795 0025 3A       		.uleb128 0x3a
 796 0026 0B       		.uleb128 0xb
 797 0027 3B       		.uleb128 0x3b
 798 0028 0B       		.uleb128 0xb
 799 0029 49       		.uleb128 0x49
 800 002a 13       		.uleb128 0x13
 801 002b 00       		.byte	0x0
 802 002c 00       		.byte	0x0
 803 002d 04       		.uleb128 0x4
 804 002e 24       		.uleb128 0x24
 805 002f 00       		.byte	0x0
 806 0030 0B       		.uleb128 0xb
 807 0031 0B       		.uleb128 0xb
 808 0032 3E       		.uleb128 0x3e
 809 0033 0B       		.uleb128 0xb
 810 0034 03       		.uleb128 0x3
 811 0035 08       		.uleb128 0x8
 812 0036 00       		.byte	0x0
 813 0037 00       		.byte	0x0
 814 0038 05       		.uleb128 0x5
 815 0039 2E       		.uleb128 0x2e
 816 003a 01       		.byte	0x1
 817 003b 3F       		.uleb128 0x3f
 818 003c 0C       		.uleb128 0xc
 819 003d 03       		.uleb128 0x3
 820 003e 0E       		.uleb128 0xe
 821 003f 3A       		.uleb128 0x3a
 822 0040 0B       		.uleb128 0xb
 823 0041 3B       		.uleb128 0x3b
 824 0042 0B       		.uleb128 0xb
 825 0043 8740     		.uleb128 0x2007
 826 0045 0E       		.uleb128 0xe
 827 0046 11       		.uleb128 0x11
 828 0047 01       		.uleb128 0x1
 829 0048 12       		.uleb128 0x12
 830 0049 01       		.uleb128 0x1
 831 004a 40       		.uleb128 0x40
ARM GAS  /cygdrive/c/Users/Chris/AppData/Local/Temp/cc2iY4e6.s 			page 18


 832 004b 06       		.uleb128 0x6
 833 004c 01       		.uleb128 0x1
 834 004d 13       		.uleb128 0x13
 835 004e 00       		.byte	0x0
 836 004f 00       		.byte	0x0
 837 0050 06       		.uleb128 0x6
 838 0051 05       		.uleb128 0x5
 839 0052 00       		.byte	0x0
 840 0053 03       		.uleb128 0x3
 841 0054 0E       		.uleb128 0xe
 842 0055 3A       		.uleb128 0x3a
 843 0056 0B       		.uleb128 0xb
 844 0057 3B       		.uleb128 0x3b
 845 0058 0B       		.uleb128 0xb
 846 0059 49       		.uleb128 0x49
 847 005a 13       		.uleb128 0x13
 848 005b 02       		.uleb128 0x2
 849 005c 06       		.uleb128 0x6
 850 005d 00       		.byte	0x0
 851 005e 00       		.byte	0x0
 852 005f 07       		.uleb128 0x7
 853 0060 34       		.uleb128 0x34
 854 0061 00       		.byte	0x0
 855 0062 03       		.uleb128 0x3
 856 0063 0E       		.uleb128 0xe
 857 0064 3A       		.uleb128 0x3a
 858 0065 0B       		.uleb128 0xb
 859 0066 3B       		.uleb128 0x3b
 860 0067 0B       		.uleb128 0xb
 861 0068 49       		.uleb128 0x49
 862 0069 13       		.uleb128 0x13
 863 006a 02       		.uleb128 0x2
 864 006b 0A       		.uleb128 0xa
 865 006c 00       		.byte	0x0
 866 006d 00       		.byte	0x0
 867 006e 08       		.uleb128 0x8
 868 006f 34       		.uleb128 0x34
 869 0070 00       		.byte	0x0
 870 0071 03       		.uleb128 0x3
 871 0072 0E       		.uleb128 0xe
 872 0073 3A       		.uleb128 0x3a
 873 0074 0B       		.uleb128 0xb
 874 0075 3B       		.uleb128 0x3b
 875 0076 0B       		.uleb128 0xb
 876 0077 49       		.uleb128 0x49
 877 0078 13       		.uleb128 0x13
 878 0079 02       		.uleb128 0x2
 879 007a 06       		.uleb128 0x6
 880 007b 00       		.byte	0x0
 881 007c 00       		.byte	0x0
 882 007d 09       		.uleb128 0x9
 883 007e 35       		.uleb128 0x35
 884 007f 00       		.byte	0x0
 885 0080 49       		.uleb128 0x49
 886 0081 13       		.uleb128 0x13
 887 0082 00       		.byte	0x0
 888 0083 00       		.byte	0x0
ARM GAS  /cygdrive/c/Users/Chris/AppData/Local/Temp/cc2iY4e6.s 			page 19


 889 0084 0A       		.uleb128 0xa
 890 0085 34       		.uleb128 0x34
 891 0086 00       		.byte	0x0
 892 0087 03       		.uleb128 0x3
 893 0088 08       		.uleb128 0x8
 894 0089 3A       		.uleb128 0x3a
 895 008a 0B       		.uleb128 0xb
 896 008b 3B       		.uleb128 0x3b
 897 008c 0B       		.uleb128 0xb
 898 008d 49       		.uleb128 0x49
 899 008e 13       		.uleb128 0x13
 900 008f 02       		.uleb128 0x2
 901 0090 0A       		.uleb128 0xa
 902 0091 00       		.byte	0x0
 903 0092 00       		.byte	0x0
 904 0093 0B       		.uleb128 0xb
 905 0094 0B       		.uleb128 0xb
 906 0095 01       		.byte	0x1
 907 0096 11       		.uleb128 0x11
 908 0097 01       		.uleb128 0x1
 909 0098 12       		.uleb128 0x12
 910 0099 01       		.uleb128 0x1
 911 009a 01       		.uleb128 0x1
 912 009b 13       		.uleb128 0x13
 913 009c 00       		.byte	0x0
 914 009d 00       		.byte	0x0
 915 009e 0C       		.uleb128 0xc
 916 009f 34       		.uleb128 0x34
 917 00a0 00       		.byte	0x0
 918 00a1 03       		.uleb128 0x3
 919 00a2 08       		.uleb128 0x8
 920 00a3 3A       		.uleb128 0x3a
 921 00a4 0B       		.uleb128 0xb
 922 00a5 3B       		.uleb128 0x3b
 923 00a6 0B       		.uleb128 0xb
 924 00a7 49       		.uleb128 0x49
 925 00a8 13       		.uleb128 0x13
 926 00a9 02       		.uleb128 0x2
 927 00aa 06       		.uleb128 0x6
 928 00ab 00       		.byte	0x0
 929 00ac 00       		.byte	0x0
 930 00ad 0D       		.uleb128 0xd
 931 00ae 0B       		.uleb128 0xb
 932 00af 01       		.byte	0x1
 933 00b0 11       		.uleb128 0x11
 934 00b1 01       		.uleb128 0x1
 935 00b2 12       		.uleb128 0x12
 936 00b3 01       		.uleb128 0x1
 937 00b4 00       		.byte	0x0
 938 00b5 00       		.byte	0x0
 939 00b6 0E       		.uleb128 0xe
 940 00b7 2E       		.uleb128 0x2e
 941 00b8 01       		.byte	0x1
 942 00b9 3F       		.uleb128 0x3f
 943 00ba 0C       		.uleb128 0xc
 944 00bb 03       		.uleb128 0x3
 945 00bc 0E       		.uleb128 0xe
ARM GAS  /cygdrive/c/Users/Chris/AppData/Local/Temp/cc2iY4e6.s 			page 20


 946 00bd 3A       		.uleb128 0x3a
 947 00be 0B       		.uleb128 0xb
 948 00bf 3B       		.uleb128 0x3b
 949 00c0 0B       		.uleb128 0xb
 950 00c1 8740     		.uleb128 0x2007
 951 00c3 0E       		.uleb128 0xe
 952 00c4 11       		.uleb128 0x11
 953 00c5 01       		.uleb128 0x1
 954 00c6 12       		.uleb128 0x12
 955 00c7 01       		.uleb128 0x1
 956 00c8 40       		.uleb128 0x40
 957 00c9 06       		.uleb128 0x6
 958 00ca 00       		.byte	0x0
 959 00cb 00       		.byte	0x0
 960 00cc 0F       		.uleb128 0xf
 961 00cd 34       		.uleb128 0x34
 962 00ce 00       		.byte	0x0
 963 00cf 03       		.uleb128 0x3
 964 00d0 08       		.uleb128 0x8
 965 00d1 3A       		.uleb128 0x3a
 966 00d2 0B       		.uleb128 0xb
 967 00d3 3B       		.uleb128 0x3b
 968 00d4 0B       		.uleb128 0xb
 969 00d5 49       		.uleb128 0x49
 970 00d6 13       		.uleb128 0x13
 971 00d7 00       		.byte	0x0
 972 00d8 00       		.byte	0x0
 973 00d9 00       		.byte	0x0
 974              		.section	.debug_pubnames,"",%progbits
 975 0000 57000000 		.4byte	0x57
 976 0004 0200     		.2byte	0x2
 977 0006 00000000 		.4byte	.Ldebug_info0
 978 000a 75010000 		.4byte	0x175
 979 000e 7A000000 		.4byte	0x7a
 980 0012 7370696E 		.ascii	"spinLEDs\000"
 980      4C454473 
 980      00
 981 001b C7000000 		.4byte	0xc7
 982 001f 746F6767 		.ascii	"toggleOutboundPower\000"
 982      6C654F75 
 982      74626F75 
 982      6E64506F 
 982      77657200 
 983 0033 F8000000 		.4byte	0xf8
 984 0037 77696767 		.ascii	"wiggleAllPins\000"
 984      6C65416C 
 984      6C50696E 
 984      7300
 985 0045 52010000 		.4byte	0x152
 986 0049 7475726E 		.ascii	"turnOnAllLEDs\000"
 986      4F6E416C 
 986      6C4C4544 
 986      7300
 987 0057 00000000 		.4byte	0x0
 988              		.section	.debug_aranges,"",%progbits
 989 0000 34000000 		.4byte	0x34
 990 0004 0200     		.2byte	0x2
ARM GAS  /cygdrive/c/Users/Chris/AppData/Local/Temp/cc2iY4e6.s 			page 21


 991 0006 00000000 		.4byte	.Ldebug_info0
 992 000a 04       		.byte	0x4
 993 000b 00       		.byte	0x0
 994 000c 0000     		.2byte	0x0
 995 000e 0000     		.2byte	0x0
 996 0010 00000000 		.4byte	.LFB5
 997 0014 44010000 		.4byte	.LFE5-.LFB5
 998 0018 00000000 		.4byte	.LFB4
 999 001c E8000000 		.4byte	.LFE4-.LFB4
 1000 0020 00000000 		.4byte	.LFB3
 1001 0024 78000000 		.4byte	.LFE3-.LFB3
 1002 0028 00000000 		.4byte	.LFB2
 1003 002c 38000000 		.4byte	.LFE2-.LFB2
 1004 0030 00000000 		.4byte	0x0
 1005 0034 00000000 		.4byte	0x0
 1006              		.section	.debug_ranges,"",%progbits
 1007              	.Ldebug_ranges0:
 1008 0000 00000000 		.4byte	.Ltext0
 1009 0004 00000000 		.4byte	.Letext0
 1010 0008 00000000 		.4byte	.LFB5
 1011 000c 44010000 		.4byte	.LFE5
 1012 0010 00000000 		.4byte	.LFB4
 1013 0014 E8000000 		.4byte	.LFE4
 1014 0018 00000000 		.4byte	.LFB3
 1015 001c 78000000 		.4byte	.LFE3
 1016 0020 00000000 		.4byte	.LFB2
 1017 0024 38000000 		.4byte	.LFE2
 1018 0028 00000000 		.4byte	0x0
 1019 002c 00000000 		.4byte	0x0
 1020              		.section	.debug_str,"MS",%progbits,1
 1021              	.LASF15:
 1022 0000 77696767 		.ascii	"wiggleAllPins\000"
 1022      6C65416C 
 1022      6C50696E 
 1022      7300
 1023              	.LASF18:
 1024 000e 7366626F 		.ascii	"sfboard_tests.cpp\000"
 1024      6172645F 
 1024      74657374 
 1024      732E6370 
 1024      7000
 1025              	.LASF17:
 1026 0020 474E5520 		.ascii	"GNU C++ 4.3.2\000"
 1026      432B2B20 
 1026      342E332E 
 1026      3200
 1027              	.LASF10:
 1028 002e 77616974 		.ascii	"wait\000"
 1028      00
 1029              	.LASF1:
 1030 0033 756E7369 		.ascii	"unsigned char\000"
 1030      676E6564 
 1030      20636861 
 1030      7200
 1031              	.LASF5:
 1032 0041 6C6F6E67 		.ascii	"long unsigned int\000"
 1032      20756E73 
ARM GAS  /cygdrive/c/Users/Chris/AppData/Local/Temp/cc2iY4e6.s 			page 22


 1032      69676E65 
 1032      6420696E 
 1032      7400
 1033              	.LASF3:
 1034 0053 73686F72 		.ascii	"short unsigned int\000"
 1034      7420756E 
 1034      7369676E 
 1034      65642069 
 1034      6E7400
 1035              	.LASF13:
 1036 0066 5F5A3873 		.ascii	"_Z8spinLEDsj\000"
 1036      70696E4C 
 1036      4544736A 
 1036      00
 1037              	.LASF12:
 1038 0073 746F6767 		.ascii	"toggleOutboundPower\000"
 1038      6C654F75 
 1038      74626F75 
 1038      6E64506F 
 1038      77657200 
 1039              	.LASF11:
 1040 0087 7370696E 		.ascii	"spinLEDs\000"
 1040      4C454473 
 1040      00
 1041              	.LASF21:
 1042 0090 7370696E 		.ascii	"spinCount\000"
 1042      436F756E 
 1042      7400
 1043              	.LASF8:
 1044 009a 756E7369 		.ascii	"unsigned int\000"
 1044      676E6564 
 1044      20696E74 
 1044      00
 1045              	.LASF7:
 1046 00a7 6C6F6E67 		.ascii	"long long unsigned int\000"
 1046      206C6F6E 
 1046      6720756E 
 1046      7369676E 
 1046      65642069 
 1047              	.LASF20:
 1048 00be 75696E74 		.ascii	"uint8_t\000"
 1048      385F7400 
 1049              	.LASF23:
 1050 00c6 5F5A3133 		.ascii	"_Z13turnOnAllLEDsv\000"
 1050      7475726E 
 1050      4F6E416C 
 1050      6C4C4544 
 1050      737600
 1051              	.LASF22:
 1052 00d9 7475726E 		.ascii	"turnOnAllLEDs\000"
 1052      4F6E416C 
 1052      6C4C4544 
 1052      7300
 1053              	.LASF6:
 1054 00e7 6C6F6E67 		.ascii	"long long int\000"
 1054      206C6F6E 
 1054      6720696E 
ARM GAS  /cygdrive/c/Users/Chris/AppData/Local/Temp/cc2iY4e6.s 			page 23


 1054      7400
 1055              	.LASF9:
 1056 00f5 66616365 		.ascii	"face\000"
 1056      00
 1057              	.LASF2:
 1058 00fa 73686F72 		.ascii	"short int\000"
 1058      7420696E 
 1058      7400
 1059              	.LASF19:
 1060 0104 2F637967 		.ascii	"/cygdrive/c/Users/Chris/Desktop/sfboot-test/sfboot\000"
 1060      64726976 
 1060      652F632F 
 1060      55736572 
 1060      732F4368 
 1061              	.LASF4:
 1062 0137 6C6F6E67 		.ascii	"long int\000"
 1062      20696E74 
 1062      00
 1063              	.LASF0:
 1064 0140 7369676E 		.ascii	"signed char\000"
 1064      65642063 
 1064      68617200 
 1065              	.LASF14:
 1066 014c 5F5A3139 		.ascii	"_Z19toggleOutboundPowerv\000"
 1066      746F6767 
 1066      6C654F75 
 1066      74626F75 
 1066      6E64506F 
 1067              	.LASF16:
 1068 0165 5F5A3133 		.ascii	"_Z13wiggleAllPinsv\000"
 1068      77696767 
 1068      6C65416C 
 1068      6C50696E 
 1068      737600
 1069              		.ident	"GCC: (AHAX Arm-Linux 2008q3-66) 4.3.2"
ARM GAS  /cygdrive/c/Users/Chris/AppData/Local/Temp/cc2iY4e6.s 			page 24


DEFINED SYMBOLS
                            *ABS*:00000000 sfboard_tests.cpp
/cygdrive/c/Users/Chris/AppData/Local/Temp/cc2iY4e6.s:24     .text._Z8spinLEDsj:00000000 _Z8spinLEDsj
/cygdrive/c/Users/Chris/AppData/Local/Temp/cc2iY4e6.s:32     .text._Z8spinLEDsj:00000000 $a
/cygdrive/c/Users/Chris/AppData/Local/Temp/cc2iY4e6.s:71     .text._Z8spinLEDsj:00000050 $d
/cygdrive/c/Users/Chris/AppData/Local/Temp/cc2iY4e6.s:77     .text._Z8spinLEDsj:00000060 $a
/cygdrive/c/Users/Chris/AppData/Local/Temp/cc2iY4e6.s:166    .text._Z8spinLEDsj:00000140 $d
/cygdrive/c/Users/Chris/AppData/Local/Temp/cc2iY4e6.s:173    .text._Z19toggleOutboundPowerv:00000000 _Z19toggleOutboundPowerv
/cygdrive/c/Users/Chris/AppData/Local/Temp/cc2iY4e6.s:179    .text._Z19toggleOutboundPowerv:00000000 $a
/cygdrive/c/Users/Chris/AppData/Local/Temp/cc2iY4e6.s:266    .text._Z19toggleOutboundPowerv:000000e4 $d
/cygdrive/c/Users/Chris/AppData/Local/Temp/cc2iY4e6.s:273    .text._Z13wiggleAllPinsv:00000000 _Z13wiggleAllPinsv
/cygdrive/c/Users/Chris/AppData/Local/Temp/cc2iY4e6.s:279    .text._Z13wiggleAllPinsv:00000000 $a
/cygdrive/c/Users/Chris/AppData/Local/Temp/cc2iY4e6.s:343    .text._Z13turnOnAllLEDsv:00000000 _Z13turnOnAllLEDsv
/cygdrive/c/Users/Chris/AppData/Local/Temp/cc2iY4e6.s:349    .text._Z13turnOnAllLEDsv:00000000 $a
/cygdrive/c/Users/Chris/AppData/Local/Temp/cc2iY4e6.s:376    .debug_frame:00000000 $d
/cygdrive/c/Users/Chris/AppData/Local/Temp/cc2iY4e6.s:474    .debug_loc:00000000 $d

UNDEFINED SYMBOLS
_Z12digitalWritehh
_Z7pinModehh
