ARM GAS  /cygdrive/c/Users/Chris/AppData/Local/Temp/ccVChAbd.s 			page 1


   1              		.cpu arm7tdmi
   2              		.fpu softvfp
   3              		.eabi_attribute 20, 1
   4              		.eabi_attribute 21, 1
   5              		.eabi_attribute 23, 3
   6              		.eabi_attribute 24, 1
   7              		.eabi_attribute 25, 1
   8              		.eabi_attribute 26, 1
   9              		.eabi_attribute 30, 4
  10              		.eabi_attribute 18, 4
  11              		.file	"sfboard_tests.cpp"
  18 0000 24010000 		.text
  18      0200A400 
  18      00000201 
  18      FB0E0D00 
  18      01010101 
  19              	.Ltext0:
  20              		.section	.text._Z8spinLEDsj,"ax",%progbits
  21              		.align	2
  22              		.global	_Z8spinLEDsj
  23              		.type	_Z8spinLEDsj, %function
  24              	_Z8spinLEDsj:
  25              	.LFB5:
  26              		.file 1 "sfboard_tests.cpp"
   1:sfboard_tests.cpp **** #include <stdint.h>
   2:sfboard_tests.cpp **** #include "wiring.h"
   3:sfboard_tests.cpp **** #include "sfboard_tests.h"
   4:sfboard_tests.cpp **** 
   5:sfboard_tests.cpp **** //****************************
   6:sfboard_tests.cpp **** //* Turns on all LEDs
   7:sfboard_tests.cpp **** void turnOnAllLEDs() {
   8:sfboard_tests.cpp **** 
   9:sfboard_tests.cpp ****    for (int l=0; l<7; l++) {
  10:sfboard_tests.cpp ****       pinMode(l+32, OUTPUT);
  11:sfboard_tests.cpp ****       digitalWrite(l+32, LOW);
  12:sfboard_tests.cpp ****    }
  13:sfboard_tests.cpp **** 
  14:sfboard_tests.cpp **** }
  15:sfboard_tests.cpp **** 
  16:sfboard_tests.cpp **** //***************************************
  17:sfboard_tests.cpp **** //* Toggles all the pins on the board.
  18:sfboard_tests.cpp **** //* Each pin is toggled a different number of times
  19:sfboard_tests.cpp **** //* See Pin mapping
  20:sfboard_tests.cpp **** void wiggleAllPins() {
  21:sfboard_tests.cpp **** uint8_t pin;
  22:sfboard_tests.cpp **** 
  23:sfboard_tests.cpp ****    /* All as output */
  24:sfboard_tests.cpp ****    for (int x=0; x<kPinCount; x++) {
  25:sfboard_tests.cpp ****       pinMode(x, OUTPUT);
  26:sfboard_tests.cpp ****    }
  27:sfboard_tests.cpp **** 
ARM GAS  /cygdrive/c/Users/Chris/AppData/Local/Temp/ccVChAbd.s 			page 2


  28:sfboard_tests.cpp ****    /* Pin Toggling */
  29:sfboard_tests.cpp ****    for (pin=0; pin < kPinCount; pin++) {
  30:sfboard_tests.cpp ****       for (int x=0; x<pin+1; x++) {
  31:sfboard_tests.cpp ****          digitalWrite(pin, LOW);
  32:sfboard_tests.cpp ****          digitalWrite(pin, HIGH);
  33:sfboard_tests.cpp ****          digitalWrite(pin, LOW);
  34:sfboard_tests.cpp ****       }
  35:sfboard_tests.cpp ****    }
  36:sfboard_tests.cpp **** }
  37:sfboard_tests.cpp **** 
  38:sfboard_tests.cpp **** //****************************************
  39:sfboard_tests.cpp **** //* Toggles the Outbound power 
  40:sfboard_tests.cpp **** //* on all four faces
  41:sfboard_tests.cpp **** void toggleOutboundPower() {
  42:sfboard_tests.cpp **** long wait;
  43:sfboard_tests.cpp **** 
  44:sfboard_tests.cpp ****    pinMode(7, OUTPUT);
  45:sfboard_tests.cpp ****    pinMode(15, OUTPUT);
  46:sfboard_tests.cpp ****    pinMode(23, OUTPUT);
  47:sfboard_tests.cpp ****    pinMode(31, OUTPUT);
  48:sfboard_tests.cpp ****          
  49:sfboard_tests.cpp ****    digitalWrite(7, LOW);
  50:sfboard_tests.cpp ****    digitalWrite(15, LOW);
  51:sfboard_tests.cpp ****    digitalWrite(23, LOW);
  52:sfboard_tests.cpp ****    digitalWrite(31, LOW);
  53:sfboard_tests.cpp ****    
  54:sfboard_tests.cpp ****    for (wait=0;wait<600000; wait++) {
  55:sfboard_tests.cpp ****      ;
  56:sfboard_tests.cpp ****    }
  57:sfboard_tests.cpp ****    
  58:sfboard_tests.cpp ****     digitalWrite(7, HIGH);
  59:sfboard_tests.cpp ****     digitalWrite(15, HIGH);
  60:sfboard_tests.cpp ****     digitalWrite(23, HIGH);
  61:sfboard_tests.cpp ****     digitalWrite(31, HIGH);
  62:sfboard_tests.cpp ****    
  63:sfboard_tests.cpp ****    for (wait=0;wait<600000; wait++) {
  64:sfboard_tests.cpp ****      ;
  65:sfboard_tests.cpp ****    }
  66:sfboard_tests.cpp **** }
  67:sfboard_tests.cpp **** 
  68:sfboard_tests.cpp **** 
  69:sfboard_tests.cpp **** //**********************************************
  70:sfboard_tests.cpp **** //* Lights up the outside LEDs in 
  71:sfboard_tests.cpp **** //* a rotational pattern.
  72:sfboard_tests.cpp **** //*
  73:sfboard_tests.cpp **** //* spinCount = the number of times to spin 
  74:sfboard_tests.cpp **** void spinLEDs(unsigned int spinCount) {
  27              		.loc 1 74 0
  28              		@ Function supports interworking.
  29              		@ args = 0, pretend = 0, frame = 8
  30              		@ frame_needed = 0, uses_anonymous_args = 0
  31              	.LVL0:
  32 0000 37402DE9 		stmfd	sp!, {r0, r1, r2, r4, r5, lr}
  33              	.LCFI0:
  34              	.LVL1:
  35              		.loc 1 74 0
  36 0004 0040A0E1 		mov	r4, r0
ARM GAS  /cygdrive/c/Users/Chris/AppData/Local/Temp/ccVChAbd.s 			page 3


  37              	.LVL2:
  38              	.LBB2:
  75:sfboard_tests.cpp **** 
  76:sfboard_tests.cpp ****    unsigned int face=0;
  77:sfboard_tests.cpp ****    volatile unsigned int wait;
  78:sfboard_tests.cpp **** 
  79:sfboard_tests.cpp ****    /* Turn off the RGB LEDs */
  80:sfboard_tests.cpp ****    digitalWrite(35, HIGH);
  39              		.loc 1 80 0
  40 0008 0110A0E3 		mov	r1, #1
  41 000c 2300A0E3 		mov	r0, #35
  42              	.LVL3:
  43 0010 FEFFFFEB 		bl	_Z12digitalWritehh
  81:sfboard_tests.cpp ****    digitalWrite(36, HIGH);
  44              		.loc 1 81 0
  45 0014 2400A0E3 		mov	r0, #36
  46 0018 0110A0E3 		mov	r1, #1
  47 001c FEFFFFEB 		bl	_Z12digitalWritehh
  82:sfboard_tests.cpp ****    digitalWrite(37, HIGH);
  48              		.loc 1 82 0
  49 0020 2500A0E3 		mov	r0, #37
  50 0024 0110A0E3 		mov	r1, #1
  51 0028 FEFFFFEB 		bl	_Z12digitalWritehh
  83:sfboard_tests.cpp ****    digitalWrite(38, HIGH);
  52              		.loc 1 83 0
  53 002c 2600A0E3 		mov	r0, #38
  54 0030 0110A0E3 		mov	r1, #1
  84:sfboard_tests.cpp ****    
  85:sfboard_tests.cpp ****    spinCount*=4;
  55              		.loc 1 85 0
  56 0034 0451A0E1 		mov	r5, r4, asl #2
  57              	.LVL4:
  58              		.loc 1 83 0
  59 0038 FEFFFFEB 		bl	_Z12digitalWritehh
  60              		.loc 1 85 0
  61 003c 0040A0E3 		mov	r4, #0
  62              	.LVL5:
  63 0040 3A0000EA 		b	.L2
  64              	.LVL6:
  65              	.L12:
  86:sfboard_tests.cpp ****    
  87:sfboard_tests.cpp ****    /* Spin! */
  88:sfboard_tests.cpp ****    while (spinCount--) {
  89:sfboard_tests.cpp **** 
  90:sfboard_tests.cpp ****       /* Custom tuned for minimal epilepsy ;-) */
  91:sfboard_tests.cpp ****       
  92:sfboard_tests.cpp ****       /* Change the light pattern */
  93:sfboard_tests.cpp ****       switch (face) {
  66              		.loc 1 93 0
  67 0044 030054E3 		cmp	r4, #3
  68 0048 04F19F97 		ldrls	pc, [pc, r4, asl #2]
  69 004c 2A0000EA 		b	.L3
  70              	.L8:
  71 0050 60000000 		.word	.L4
  72 0054 78000000 		.word	.L5
  73 0058 9C000000 		.word	.L6
  74 005c CC000000 		.word	.L7
ARM GAS  /cygdrive/c/Users/Chris/AppData/Local/Temp/ccVChAbd.s 			page 4


  75              	.L4:
  94:sfboard_tests.cpp **** 
  95:sfboard_tests.cpp ****       case 0:
  96:sfboard_tests.cpp ****          digitalWrite(35, LOW);
  76              		.loc 1 96 0
  77 0060 2300A0E3 		mov	r0, #35
  78 0064 0010A0E3 		mov	r1, #0
  79 0068 FEFFFFEB 		bl	_Z12digitalWritehh
  97:sfboard_tests.cpp ****          digitalWrite(36, HIGH);
  80              		.loc 1 97 0
  81 006c 2400A0E3 		mov	r0, #36
  82 0070 0110A0E3 		mov	r1, #1
  83 0074 0D0000EA 		b	.L16
  84              	.L5:
  98:sfboard_tests.cpp ****          digitalWrite(37, HIGH);
  99:sfboard_tests.cpp ****          digitalWrite(38, HIGH);
 100:sfboard_tests.cpp ****          break;
 101:sfboard_tests.cpp **** 
 102:sfboard_tests.cpp ****       case 1:
 103:sfboard_tests.cpp ****          digitalWrite(35, HIGH);
  85              		.loc 1 103 0
  86 0078 2300A0E3 		mov	r0, #35
  87 007c 0110A0E3 		mov	r1, #1
  88 0080 FEFFFFEB 		bl	_Z12digitalWritehh
 104:sfboard_tests.cpp ****          digitalWrite(36, HIGH);
  89              		.loc 1 104 0
  90 0084 2400A0E3 		mov	r0, #36
  91 0088 0110A0E3 		mov	r1, #1
  92 008c FEFFFFEB 		bl	_Z12digitalWritehh
 105:sfboard_tests.cpp ****          digitalWrite(37, LOW);
  93              		.loc 1 105 0
  94 0090 2500A0E3 		mov	r0, #37
  95 0094 0010A0E3 		mov	r1, #0
  96 0098 070000EA 		b	.L17
  97              	.L6:
 106:sfboard_tests.cpp ****          digitalWrite(38, HIGH);
 107:sfboard_tests.cpp ****          break;
 108:sfboard_tests.cpp **** 
 109:sfboard_tests.cpp ****       case 2:
 110:sfboard_tests.cpp ****          digitalWrite(35, HIGH);
  98              		.loc 1 110 0
  99 009c 2300A0E3 		mov	r0, #35
 100 00a0 0110A0E3 		mov	r1, #1
 101 00a4 FEFFFFEB 		bl	_Z12digitalWritehh
 111:sfboard_tests.cpp ****          digitalWrite(36, LOW);
 102              		.loc 1 111 0
 103 00a8 2400A0E3 		mov	r0, #36
 104 00ac 0010A0E3 		mov	r1, #0
 105              	.L16:
 106 00b0 FEFFFFEB 		bl	_Z12digitalWritehh
 112:sfboard_tests.cpp ****          digitalWrite(37, HIGH);
 107              		.loc 1 112 0
 108 00b4 2500A0E3 		mov	r0, #37
 109 00b8 0110A0E3 		mov	r1, #1
 110              	.L17:
 111 00bc FEFFFFEB 		bl	_Z12digitalWritehh
 113:sfboard_tests.cpp ****          digitalWrite(38, HIGH);
ARM GAS  /cygdrive/c/Users/Chris/AppData/Local/Temp/ccVChAbd.s 			page 5


 112              		.loc 1 113 0
 113 00c0 2600A0E3 		mov	r0, #38
 114 00c4 0110A0E3 		mov	r1, #1
 115 00c8 0A0000EA 		b	.L14
 116              	.L7:
 114:sfboard_tests.cpp ****          break;
 115:sfboard_tests.cpp **** 
 116:sfboard_tests.cpp ****       case 3:
 117:sfboard_tests.cpp ****          digitalWrite(35, HIGH);
 117              		.loc 1 117 0
 118 00cc 2300A0E3 		mov	r0, #35
 119 00d0 0110A0E3 		mov	r1, #1
 120 00d4 FEFFFFEB 		bl	_Z12digitalWritehh
 118:sfboard_tests.cpp ****          digitalWrite(36, HIGH);
 121              		.loc 1 118 0
 122 00d8 2400A0E3 		mov	r0, #36
 123 00dc 0110A0E3 		mov	r1, #1
 124 00e0 FEFFFFEB 		bl	_Z12digitalWritehh
 119:sfboard_tests.cpp ****          digitalWrite(37, HIGH);
 125              		.loc 1 119 0
 126 00e4 2500A0E3 		mov	r0, #37
 127 00e8 0110A0E3 		mov	r1, #1
 128 00ec FEFFFFEB 		bl	_Z12digitalWritehh
 120:sfboard_tests.cpp ****          digitalWrite(38, LOW);
 129              		.loc 1 120 0
 130 00f0 2600A0E3 		mov	r0, #38
 131 00f4 0010A0E3 		mov	r1, #0
 132              	.L14:
 133 00f8 FEFFFFEB 		bl	_Z12digitalWritehh
 134              	.L3:
 121:sfboard_tests.cpp ****          break;
 122:sfboard_tests.cpp ****       }
 123:sfboard_tests.cpp **** 
 124:sfboard_tests.cpp ****       for (wait=0;wait<600000; wait++) {
 135              		.loc 1 124 0
 136 00fc 0030A0E3 		mov	r3, #0
 137 0100 010000EA 		b	.L15
 138              	.L10:
 139 0104 04309DE5 		ldr	r3, [sp, #4]
 140 0108 013083E2 		add	r3, r3, #1
 141              	.LVL7:
 142              	.L15:
 143 010c 04308DE5 		str	r3, [sp, #4]
 144 0110 04209DE5 		ldr	r2, [sp, #4]
 145 0114 24309FE5 		ldr	r3, .L18
 146              	.LVL8:
 147 0118 030052E1 		cmp	r2, r3
 148 011c F8FFFF9A 		bls	.L10
 125:sfboard_tests.cpp ****          ;
 126:sfboard_tests.cpp ****       }
 127:sfboard_tests.cpp **** 
 128:sfboard_tests.cpp ****       /* Move to the next led */
 129:sfboard_tests.cpp ****       face++;
 149              		.loc 1 129 0
 150 0120 014084E2 		add	r4, r4, #1
 130:sfboard_tests.cpp ****       if (face>=4) {
 151              		.loc 1 130 0
ARM GAS  /cygdrive/c/Users/Chris/AppData/Local/Temp/ccVChAbd.s 			page 6


 152 0124 030054E3 		cmp	r4, #3
 153 0128 0040A083 		movhi	r4, #0
 154 012c 015045E2 		sub	r5, r5, #1
 155              	.L2:
 156              		.loc 1 88 0
 157 0130 000055E3 		cmp	r5, #0
 158 0134 C2FFFF1A 		bne	.L12
 159              	.LBE2:
 131:sfboard_tests.cpp ****          face=0;
 132:sfboard_tests.cpp ****       }
 133:sfboard_tests.cpp ****    }  
 134:sfboard_tests.cpp **** }...
 160              		.loc 1 134 0
 161 0138 3E40BDE8 		ldmfd	sp!, {r1, r2, r3, r4, r5, lr}
 162 013c 1EFF2FE1 		bx	lr
 163              	.L19:
 164              		.align	2
 165              	.L18:
 166 0140 BF270900 		.word	599999
 167              	.LFE5:
 168              		.size	_Z8spinLEDsj, .-_Z8spinLEDsj
 169              		.section	.text._Z19toggleOutboundPowerv,"ax",%progbits
 170              		.align	2
 171              		.global	_Z19toggleOutboundPowerv
 172              		.type	_Z19toggleOutboundPowerv, %function
 173              	_Z19toggleOutboundPowerv:
 174              	.LFB4:
 175              		.loc 1 41 0
 176              		@ Function supports interworking.
 177              		@ args = 0, pretend = 0, frame = 0
 178              		@ frame_needed = 0, uses_anonymous_args = 0
 179 0000 10402DE9 		stmfd	sp!, {r4, lr}
 180              	.LCFI1:
 181              	.LBB3:
 182              		.loc 1 44 0
 183 0004 0700A0E3 		mov	r0, #7
 184 0008 0110A0E3 		mov	r1, #1
 185 000c FEFFFFEB 		bl	_Z7pinModehh
 186              		.loc 1 45 0
 187 0010 0F00A0E3 		mov	r0, #15
 188 0014 0110A0E3 		mov	r1, #1
 189 0018 FEFFFFEB 		bl	_Z7pinModehh
 190              		.loc 1 46 0
 191 001c 1700A0E3 		mov	r0, #23
 192 0020 0110A0E3 		mov	r1, #1
 193 0024 FEFFFFEB 		bl	_Z7pinModehh
 194              		.loc 1 47 0
 195 0028 1F00A0E3 		mov	r0, #31
 196 002c 0110A0E3 		mov	r1, #1
 197 0030 FEFFFFEB 		bl	_Z7pinModehh
 198              		.loc 1 49 0
 199 0034 0700A0E3 		mov	r0, #7
 200 0038 0010A0E3 		mov	r1, #0
 201 003c FEFFFFEB 		bl	_Z12digitalWritehh
 202              		.loc 1 50 0
 203 0040 0F00A0E3 		mov	r0, #15
 204 0044 0010A0E3 		mov	r1, #0
ARM GAS  /cygdrive/c/Users/Chris/AppData/Local/Temp/ccVChAbd.s 			page 7


 205 0048 FEFFFFEB 		bl	_Z12digitalWritehh
 206              		.loc 1 51 0
 207 004c 1700A0E3 		mov	r0, #23
 208 0050 0010A0E3 		mov	r1, #0
 209 0054 FEFFFFEB 		bl	_Z12digitalWritehh
 210              		.loc 1 52 0
 211 0058 1F00A0E3 		mov	r0, #31
 212 005c 0010A0E3 		mov	r1, #0
 213 0060 FEFFFFEB 		bl	_Z12digitalWritehh
 214              		.loc 1 58 0
 215 0064 0700A0E3 		mov	r0, #7
 216 0068 0110A0E3 		mov	r1, #1
 217 006c FEFFFFEB 		bl	_Z12digitalWritehh
 218              		.loc 1 59 0
 219 0070 0F00A0E3 		mov	r0, #15
 220 0074 0110A0E3 		mov	r1, #1
 221 0078 FEFFFFEB 		bl	_Z12digitalWritehh
 222              		.loc 1 60 0
 223 007c 1700A0E3 		mov	r0, #23
 224 0080 0110A0E3 		mov	r1, #1
 225 0084 FEFFFFEB 		bl	_Z12digitalWritehh
 226              		.loc 1 61 0
 227 0088 1F00A0E3 		mov	r0, #31
 228 008c 0110A0E3 		mov	r1, #1
 229 0090 FEFFFFEB 		bl	_Z12digitalWritehh
 230              	.LBE3:
 231              		.loc 1 66 0
 232 0094 1040BDE8 		ldmfd	sp!, {r4, lr}
 233 0098 1EFF2FE1 		bx	lr
 234              	.LFE4:
 235              		.size	_Z19toggleOutboundPowerv, .-_Z19toggleOutboundPowerv
 236              		.section	.text._Z13wiggleAllPinsv,"ax",%progbits
 237              		.align	2
 238              		.global	_Z13wiggleAllPinsv
 239              		.type	_Z13wiggleAllPinsv, %function
 240              	_Z13wiggleAllPinsv:
 241              	.LFB3:
 242              		.loc 1 20 0
 243              		@ Function supports interworking.
 244              		@ args = 0, pretend = 0, frame = 0
 245              		@ frame_needed = 0, uses_anonymous_args = 0
 246 0000 70402DE9 		stmfd	sp!, {r4, r5, r6, lr}
 247              	.LCFI2:
 248              		.loc 1 20 0
 249 0004 0040A0E3 		mov	r4, #0
 250              	.LVL9:
 251              	.L23:
 252              	.LBB4:
 253              	.LBB5:
 254              		.loc 1 25 0
 255 0008 FF0004E2 		and	r0, r4, #255
 256 000c 0110A0E3 		mov	r1, #1
 257              		.loc 1 24 0
 258 0010 014084E2 		add	r4, r4, #1
 259              		.loc 1 25 0
 260 0014 FEFFFFEB 		bl	_Z7pinModehh
 261              		.loc 1 24 0
ARM GAS  /cygdrive/c/Users/Chris/AppData/Local/Temp/ccVChAbd.s 			page 8


 262 0018 260054E3 		cmp	r4, #38
 263 001c F9FFFF1A 		bne	.L23
 264 0020 0040A0E3 		mov	r4, #0
 265              	.LVL10:
 266 0024 0E0000EA 		b	.L24
 267              	.LVL11:
 268              	.L25:
 269              	.LBE5:
 270              	.LBB6:
 271              		.loc 1 31 0
 272 0028 FEFFFFEB 		bl	_Z12digitalWritehh
 273              		.loc 1 32 0
 274 002c 0600A0E1 		mov	r0, r6
 275 0030 0110A0E3 		mov	r1, #1
 276 0034 FEFFFFEB 		bl	_Z12digitalWritehh
 277              		.loc 1 33 0
 278 0038 0600A0E1 		mov	r0, r6
 279 003c 0010A0E3 		mov	r1, #0
 280 0040 FEFFFFEB 		bl	_Z12digitalWritehh
 281              	.L27:
 282              		.loc 1 30 0
 283 0044 050054E1 		cmp	r4, r5
 284              		.loc 1 31 0
 285 0048 0010A0E3 		mov	r1, #0
 286 004c 0600A0E1 		mov	r0, r6
 287              		.loc 1 30 0
 288 0050 015085E2 		add	r5, r5, #1
 289 0054 F3FFFFAA 		bge	.L25
 290 0058 014084E2 		add	r4, r4, #1
 291              	.LBE6:
 292              		.loc 1 29 0
 293 005c 260054E3 		cmp	r4, #38
 294 0060 0200000A 		beq	.L28
 295              	.L24:
 296 0064 FF6004E2 		and	r6, r4, #255
 297 0068 0050A0E3 		mov	r5, #0
 298 006c F4FFFFEA 		b	.L27
 299              	.L28:
 300              	.LBE4:
 301              		.loc 1 36 0
 302 0070 7040BDE8 		ldmfd	sp!, {r4, r5, r6, lr}
 303 0074 1EFF2FE1 		bx	lr
 304              	.LFE3:
 305              		.size	_Z13wiggleAllPinsv, .-_Z13wiggleAllPinsv
 306              		.section	.text._Z13turnOnAllLEDsv,"ax",%progbits
 307              		.align	2
 308              		.global	_Z13turnOnAllLEDsv
 309              		.type	_Z13turnOnAllLEDsv, %function
 310              	_Z13turnOnAllLEDsv:
 311              	.LFB2:
 312              		.loc 1 7 0
 313              		@ Function supports interworking.
 314              		@ args = 0, pretend = 0, frame = 0
 315              		@ frame_needed = 0, uses_anonymous_args = 0
 316 0000 10402DE9 		stmfd	sp!, {r4, lr}
 317              	.LCFI3:
 318              		.loc 1 7 0
ARM GAS  /cygdrive/c/Users/Chris/AppData/Local/Temp/ccVChAbd.s 			page 9


 319 0004 2040A0E3 		mov	r4, #32
 320              	.L30:
 321              	.LBB7:
 322              		.loc 1 10 0
 323 0008 0400A0E1 		mov	r0, r4
 324 000c 0110A0E3 		mov	r1, #1
 325 0010 FEFFFFEB 		bl	_Z7pinModehh
 326              		.loc 1 11 0
 327 0014 0400A0E1 		mov	r0, r4
 328 0018 0010A0E3 		mov	r1, #0
 329 001c FEFFFFEB 		bl	_Z12digitalWritehh
 330 0020 013084E2 		add	r3, r4, #1
 331 0024 FF4003E2 		and	r4, r3, #255
 332              		.loc 1 9 0
 333 0028 270054E3 		cmp	r4, #39
 334 002c F5FFFF1A 		bne	.L30
 335              	.LBE7:
 336              		.loc 1 14 0
 337 0030 1040BDE8 		ldmfd	sp!, {r4, lr}
 338 0034 1EFF2FE1 		bx	lr
 339              	.LFE2:
 340              		.size	_Z13turnOnAllLEDsv, .-_Z13turnOnAllLEDsv
 341              		.section	.debug_frame,"",%progbits
 342              	.Lframe0:
 343 0000 0C000000 		.4byte	.LECIE0-.LSCIE0
 344              	.LSCIE0:
 345 0004 FFFFFFFF 		.4byte	0xffffffff
 346 0008 01       		.byte	0x1
 347 0009 00       		.ascii	"\000"
 348 000a 01       		.uleb128 0x1
 349 000b 7C       		.sleb128 -4
 350 000c 0E       		.byte	0xe
 351 000d 0C       		.byte	0xc
 352 000e 0D       		.uleb128 0xd
 353 000f 00       		.uleb128 0x0
 354              		.align	2
 355              	.LECIE0:
 356              	.LSFDE0:
 357 0010 1C000000 		.4byte	.LEFDE0-.LASFDE0
 358              	.LASFDE0:
 359 0014 00000000 		.4byte	.Lframe0
 360 0018 00000000 		.4byte	.LFB5
 361 001c 44010000 		.4byte	.LFE5-.LFB5
 362 0020 44       		.byte	0x4
 363              		.4byte	.LCFI0-.LFB5
 364 0021 0E       		.byte	0xe
 365 0022 18       		.uleb128 0x18
 366 0023 8E       		.byte	0x8e
 367 0024 01       		.uleb128 0x1
 368 0025 85       		.byte	0x85
 369 0026 02       		.uleb128 0x2
 370 0027 84       		.byte	0x84
 371 0028 03       		.uleb128 0x3
 372 0029 82       		.byte	0x82
 373 002a 04       		.uleb128 0x4
 374 002b 81       		.byte	0x81
 375 002c 05       		.uleb128 0x5
ARM GAS  /cygdrive/c/Users/Chris/AppData/Local/Temp/ccVChAbd.s 			page 10


 376 002d 80       		.byte	0x80
 377 002e 06       		.uleb128 0x6
 378 002f 00       		.align	2
 379              	.LEFDE0:
 380              	.LSFDE2:
 381 0030 14000000 		.4byte	.LEFDE2-.LASFDE2
 382              	.LASFDE2:
 383 0034 00000000 		.4byte	.Lframe0
 384 0038 00000000 		.4byte	.LFB4
 385 003c 9C000000 		.4byte	.LFE4-.LFB4
 386 0040 44       		.byte	0x4
 387              		.4byte	.LCFI1-.LFB4
 388 0041 0E       		.byte	0xe
 389 0042 08       		.uleb128 0x8
 390 0043 8E       		.byte	0x8e
 391 0044 01       		.uleb128 0x1
 392 0045 84       		.byte	0x84
 393 0046 02       		.uleb128 0x2
 394 0047 00       		.align	2
 395              	.LEFDE2:
 396              	.LSFDE4:
 397 0048 18000000 		.4byte	.LEFDE4-.LASFDE4
 398              	.LASFDE4:
 399 004c 00000000 		.4byte	.Lframe0
 400 0050 00000000 		.4byte	.LFB3
 401 0054 78000000 		.4byte	.LFE3-.LFB3
 402 0058 44       		.byte	0x4
 403              		.4byte	.LCFI2-.LFB3
 404 0059 0E       		.byte	0xe
 405 005a 10       		.uleb128 0x10
 406 005b 8E       		.byte	0x8e
 407 005c 01       		.uleb128 0x1
 408 005d 86       		.byte	0x86
 409 005e 02       		.uleb128 0x2
 410 005f 85       		.byte	0x85
 411 0060 03       		.uleb128 0x3
 412 0061 84       		.byte	0x84
 413 0062 04       		.uleb128 0x4
 414 0063 00       		.align	2
 415              	.LEFDE4:
 416              	.LSFDE6:
 417 0064 14000000 		.4byte	.LEFDE6-.LASFDE6
 418              	.LASFDE6:
 419 0068 00000000 		.4byte	.Lframe0
 420 006c 00000000 		.4byte	.LFB2
 421 0070 38000000 		.4byte	.LFE2-.LFB2
 422 0074 44       		.byte	0x4
 423              		.4byte	.LCFI3-.LFB2
 424 0075 0E       		.byte	0xe
 425 0076 08       		.uleb128 0x8
 426 0077 8E       		.byte	0x8e
 427 0078 01       		.uleb128 0x1
 428 0079 84       		.byte	0x84
 429 007a 02       		.uleb128 0x2
 430 007b 00       		.align	2
 431              	.LEFDE6:
 432              		.text
ARM GAS  /cygdrive/c/Users/Chris/AppData/Local/Temp/ccVChAbd.s 			page 11


 433              	.Letext0: