ARM GAS  C:\Users\Chris\AppData\Local\Temp/cc6jbaaa.s 			page 1


   1              		.cpu arm7tdmi
   2              		.fpu softvfp
   3              		.eabi_attribute 20, 1
   4              		.eabi_attribute 21, 1
   5              		.eabi_attribute 23, 3
   6              		.eabi_attribute 24, 1
   7              		.eabi_attribute 25, 1
   8              		.eabi_attribute 26, 1
   9              		.eabi_attribute 30, 4
  10              		.eabi_attribute 18, 4
  11              		.file	"Syscalls.c"
  18 0000 C5010000 		.text
  18      0200BB00 
  18      00000201 
  18      FB0E0D00 
  18      01010101 
  19              	.Ltext0:
  20              		.section	.text._read,"ax",%progbits
  21              		.align	2
  22              		.global	_read
  23              		.type	_read, %function
  24              	_read:
  25              	.LFB2:
  26              		.file 1 "Syscalls.c"
   1:Syscalls.c    **** /* System Calls Remapping */
   2:Syscalls.c    **** 
   3:Syscalls.c    **** #include <sys/stat.h>
   4:Syscalls.c    **** #include <sys/time.h>
   5:Syscalls.c    **** #include <sys/times.h>
   6:Syscalls.c    **** #include <string.h>
   7:Syscalls.c    **** #include <errno.h>
   8:Syscalls.c    **** 
   9:Syscalls.c    **** #define putchar sendchar
  10:Syscalls.c    **** #define getchar getkey
  11:Syscalls.c    **** 
  12:Syscalls.c    **** //extern int putchar (int ch);
  13:Syscalls.c    **** //extern int getchar (void);
  14:Syscalls.c    **** 
  15:Syscalls.c    **** int _read (int fd, char * ptr, int len) {
  27              	upports interworking.
  28              		@ args = 0, pretend = 0, frame = 0
  29              		@ frame_needed = 0, uses_anonymous_args = 0
  30              		@ link register save eliminated.
  31              	.LVL0:
  32              		.loc 1 18 0
  16:Syscalls.c    **** 
  17:Syscalls.c    ****   return 0;
  18:Syscalls.c    **** }
  33              	0, #0
  34 0000 0000A0E3 	.LVL1:
  35              		bx	lr
ARM GAS  C:\Users\Chris\AppData\Local\Temp/cc6jbaaa.s 			page 2


  36 0004 1EFF2FE1 	.LFE2:
  37              		.size	_read, .-_read
  38              		.section	.text._lseek,"ax",%progbits
  39              		.align	2
  40              		.global	_lseek
  41              		.type	_lseek, %function
  42              	_lseek:
  43              	.LFB3:
  44              		.loc 1 20 0
  19:Syscalls.c    **** 
  20:Syscalls.c    **** int _lseek (int fd, int ptr, int dir) {
  45              	supports interworking.
  46              		@ args = 0, pretend = 0, frame = 0
  47              		@ frame_needed = 0, uses_anonymous_args = 0
  48              		@ link register save eliminated.
  49              	.LVL2:
  50              		.loc 1 22 0
  21:Syscalls.c    ****   return (0);
  22:Syscalls.c    **** }
  51              	0, #0
  52 0000 0000A0E3 	.LVL3:
  53              		bx	lr
  54 0004 1EFF2FE1 	.LFE3:
  55              		.size	_lseek, .-_lseek
  56              		.section	.text._write,"ax",%progbits
  57              		.align	2
  58              		.global	_write
  59              		.type	_write, %function
  60              	_write:
  61              	.LFB4:
  62              		.loc 1 24 0
  23:Syscalls.c    **** 
  24:Syscalls.c    **** int _write (int fd, char * ptr, int len) {
  63              	supports interworking.
  64              		@ args = 0, pretend = 0, frame = 0
  65              		@ frame_needed = 0, uses_anonymous_args = 0
  66              		@ link register save eliminated.
  67              	.LVL4:
  68              		.loc 1 26 0
  25:Syscalls.c    ****   return (0);
  26:Syscalls.c    **** }
  69              	0, #0
  70 0000 0000A0E3 	.LVL5:
  71              		bx	lr
  72 0004 1EFF2FE1 	.LFE4:
  73              		.size	_write, .-_write
  74              		.section	.text._open,"ax",%progbits
  75              		.align	2
  76              		.global	_open
  77              		.type	_open, %function
  78              	_open:
  79              	.LFB5:
  80              		.loc 1 28 0
  27:Syscalls.c    **** 
  28:Syscalls.c    **** int _open (const char * path, int flags, ...) {
  81              	supports interworking.
  82              		@ args = 4, pretend = 12, frame = 0
ARM GAS  C:\Users\Chris\AppData\Local\Temp/cc6jbaaa.s 			page 3


  83              		@ frame_needed = 0, uses_anonymous_args = 1
  84              		@ link register save eliminated.
  85              	.LVL6:
  86              		stmfd	sp!, {r1, r2, r3}
  87 0000 0E002DE9 	.LCFI0:
  88              		.loc 1 30 0
  29:Syscalls.c    ****   return (-1);
  30:Syscalls.c    **** }
  89              	 #0
  90 0004 0000E0E3 	.LVL7:
  91              		add	sp, sp, #12
  92 0008 0CD08DE2 		bx	lr
  93 000c 1EFF2FE1 	.LFE5:
  94              		.size	_open, .-_open
  95              		.section	.text._close,"ax",%progbits
  96              		.align	2
  97              		.global	_close
  98              		.type	_close, %function
  99              	_close:
 100              	.LFB6:
 101              		.loc 1 32 0
  31:Syscalls.c    **** 
  32:Syscalls.c    **** int _close (int fd) {
 102              	upports interworking.
 103              		@ args = 0, pretend = 0, frame = 0
 104              		@ frame_needed = 0, uses_anonymous_args = 0
 105              		@ link register save eliminated.
 106              	.LVL8:
 107              		.loc 1 34 0
  33:Syscalls.c    ****   return (-1);
  34:Syscalls.c    **** }
 108              	0, #0
 109 0000 0000E0E3 	.LVL9:
 110              		bx	lr
 111 0004 1EFF2FE1 	.LFE6:
 112              		.size	_close, .-_close
 113              		.section	.text._kill,"ax",%progbits
 114              		.align	2
 115              		.global	_kill
 116              		.type	_kill, %function
 117              	_kill:
 118              	.LFB7:
 119              		.loc 1 36 0
  35:Syscalls.c    **** 
  36:Syscalls.c    **** int _kill (int n, int m) {
 120              	supports interworking.
 121              		@ args = 0, pretend = 0, frame = 0
 122              		@ frame_needed = 0, uses_anonymous_args = 0
 123              		@ link register save eliminated.
 124              	.LVL10:
 125              		.loc 1 38 0
  37:Syscalls.c    ****   return(-1);
  38:Syscalls.c    **** }
 126              	0, #0
 127 0000 0000E0E3 	.LVL11:
 128              		bx	lr
 129 0004 1EFF2FE1 	.LFE7:
ARM GAS  C:\Users\Chris\AppData\Local\Temp/cc6jbaaa.s 			page 4


 130              		.size	_kill, .-_kill
 131              		.section	.text._getpid,"ax",%progbits
 132              		.align	2
 133              		.weak	_getpid
 134              		.type	_getpid, %function
 135              	_getpid:
 136              	.LFB8:
 137              		.loc 1 40 0
  39:Syscalls.c    **** 
  40:Syscalls.c    **** int __attribute__((weak)) _getpid (int n __attribute__ ((unused))) {
 138              	supports interworking.
 139              		@ args = 0, pretend = 0, frame = 0
 140              		@ frame_needed = 0, uses_anonymous_args = 0
 141              		@ link register save eliminated.
 142              	.LVL12:
 143              		.loc 1 42 0
  41:Syscalls.c    ****   return (1);
  42:Syscalls.c    **** }
 144              	0, #1
 145 0000 0100A0E3 	.LVL13:
 146              		bx	lr
 147 0004 1EFF2FE1 	.LFE8:
 148              		.size	_getpid, .-_getpid
 149              		.section	.text._sbrk,"ax",%progbits
 150              		.align	2
 151              		.global	_sbrk
 152              		.type	_sbrk, %function
 153              	_sbrk:
 154              	.LFB9:
 155              		.loc 1 47 0
  43:Syscalls.c    **** 
  44:Syscalls.c    **** extern int  __cs3_heap_start;
  45:Syscalls.c    **** extern int  __cs3_heap_end;
  46:Syscalls.c    **** 
  47:Syscalls.c    **** caddr_t _sbrk (int incr) {
 156              	supports interworking.
 157              		@ args = 0, pretend = 0, frame = 0
 158              		@ frame_needed = 0, uses_anonymous_args = 0
 159              		@ link register save eliminated.
 160              	.LVL14:
 161              		.loc 1 51 0
  48:Syscalls.c    **** 
  49:Syscalls.c    **** 
  50:Syscalls.c    ****   return 0;
  51:Syscalls.c    **** }
 162              	0, #0
 163 0000 0000A0E3 	.LVL15:
 164              		bx	lr
 165 0004 1EFF2FE1 	.LFE9:
 166              		.size	_sbrk, .-_sbrk
 167              		.section	.text._fstat,"ax",%progbits
 168              		.align	2
 169              		.weak	_fstat
 170              		.type	_fstat, %function
 171              	_fstat:
 172              	.LFB10:
 173              		.loc 1 53 0
ARM GAS  C:\Users\Chris\AppData\Local\Temp/cc6jbaaa.s 			page 5


  52:Syscalls.c    **** 
  53:Syscalls.c    **** int __attribute__((weak)) _fstat (int fd, struct stat * st) {
 174              	supports interworking.
 175              		@ args = 0, pretend = 0, frame = 0
 176              		@ frame_needed = 0, uses_anonymous_args = 0
 177              		@ link register save eliminated.
 178              	.LVL16:
 179              		.loc 1 56 0
  54:Syscalls.c    **** 
  55:Syscalls.c    ****   return (0);
  56:Syscalls.c    **** }
 180              	0, #0
 181 0000 0000A0E3 	.LVL17:
 182              		bx	lr
 183 0004 1EFF2FE1 	.LFE10:
 184              		.size	_fstat, .-_fstat
 185              		.section	.text._link,"ax",%progbits
 186              		.align	2
 187              		.weak	_link
 188              		.type	_link, %function
 189              	_link:
 190              	.LFB11:
 191              		.loc 1 58 0
  57:Syscalls.c    **** 
  58:Syscalls.c    **** int __attribute__((weak))_link (void) {
 192              	supports interworking.
 193              		@ args = 0, pretend = 0, frame = 0
 194              		@ frame_needed = 0, uses_anonymous_args = 0
 195              		@ link register save eliminated.
 196              		.loc 1 60 0
  59:Syscalls.c    ****   return (-1);
  60:Syscalls.c    **** }
 197              	r0, #0
 198 0000 0000E0E3 		bx	lr
 199 0004 1EFF2FE1 	.LFE11:
 200              		.size	_link, .-_link
 201              		.section	.text._unlink,"ax",%progbits
 202              		.align	2
 203              		.global	_unlink
 204              		.type	_unlink, %function
 205              	_unlink:
 206              	.LFB12:
 207              		.loc 1 62 0
  61:Syscalls.c    **** 
  62:Syscalls.c    **** int _unlink (const char *path) {
 208              	 supports interworking.
 209              		@ args = 0, pretend = 0, frame = 0
 210              		@ frame_needed = 0, uses_anonymous_args = 0
 211              		@ link register save eliminated.
 212              	.LVL18:
 213              		.loc 1 64 0
  63:Syscalls.c    ****   return (-1);
  64:Syscalls.c    **** }
 214              	0, #0
 215 0000 0000E0E3 	.LVL19:
 216              		bx	lr
 217 0004 1EFF2FE1 	.LFE12:
ARM GAS  C:\Users\Chris\AppData\Local\Temp/cc6jbaaa.s 			page 6


 218              		.size	_unlink, .-_unlink
 219              		.section	.text.isatty,"ax",%progbits
 220              		.align	2
 221              		.global	isatty
 222              		.type	isatty, %function
 223              	isatty:
 224              	.LFB13:
 225              		.loc 1 66 0
  65:Syscalls.c    **** 
  66:Syscalls.c    **** int isatty (int fd) {
 226              	supports interworking.
 227              		@ args = 0, pretend = 0, frame = 0
 228              		@ frame_needed = 0, uses_anonymous_args = 0
 229              		@ link register save eliminated.
 230              	.LVL20:
 231              		.loc 1 68 0
  67:Syscalls.c    ****   return (1);
  68:Syscalls.c    **** }
 232              	0, #1
 233 0000 0100A0E3 	.LVL21:
 234              		bx	lr
 235 0004 1EFF2FE1 	.LFE13:
 236              		.size	isatty, .-isatty
 237              		.section	.text.__exidx_start,"ax",%progbits
 238              		.align	2
 239              		.global	__exidx_start
 240              		.type	__exidx_start, %function
 241              	__exidx_start:
 242              	.LFB14:
 243              		.loc 1 72 0
  69:Syscalls.c    **** 
  70:Syscalls.c    **** //void __exidx_start(void){ return 0; }
  71:Syscalls.c    **** 
  72:Syscalls.c    **** extern void __exidx_start(void){  }
 244              	supports interworking.
 245              		@ args = 0, pretend = 0, frame = 0
 246              		@ frame_needed = 0, uses_anonymous_args = 0
 247              		@ link register save eliminated.
 248              		.loc 1 72 0
 249              		bx	lr
 250 0000 1EFF2FE1 	.LFE14:
 251              		.size	__exidx_start, .-__exidx_start
 252              		.section	.text.__exidx_end,"ax",%progbits
 253              		.align	2
 254              		.global	__exidx_end
 255              		.type	__exidx_end, %function
 256              	__exidx_end:
 257              	.LFB15:
 258              		.loc 1 74 0
  73:Syscalls.c    **** 
  74:Syscalls.c    **** extern void __exidx_end(void){  }
 259              	ports interworking.
 260              		@ args = 0, pretend = 0, frame = 0
 261              		@ frame_needed = 0, uses_anonymous_args = 0
 262              		@ link register save eliminated.
 263              		.loc 1 74 0
 264              		bx	lr
ARM GAS  C:\Users\Chris\AppData\Local\Temp/cc6jbaaa.s 			page 7


 265 0000 1EFF2FE1 	.LFE15:
 266              		.size	__exidx_end, .-__exidx_end
 267              		.section	.text.abort,"ax",%progbits
 268              		.align	2
 269              		.global	abort
 270              		.type	abort, %function
 271              	abort:
 272              	.LFB16:
 273              		.loc 1 76 0
  75:Syscalls.c    **** 
  76:Syscalls.c    **** extern void abort(void) {
 274              	ports interworking.
 275              		@ args = 0, pretend = 0, frame = 0
 276              		@ frame_needed = 0, uses_anonymous_args = 0
 277              		@ link register save eliminated.
 278              	.L30:
 279              		b	.L30
 280 0000 FEFFFFEA 	.LFE16:
 281              		.size	abort, .-abort
 282              		.section	.text._init,"ax",%progbits
 283              		.align	2
 284              		.global	_init
 285              		.type	_init, %function
 286              	_init:
 287              	.LFB17:
 288              		.loc 1 80 0
  77:Syscalls.c    **** while(1);
  78:Syscalls.c    ****  }
  79:Syscalls.c    **** 
  80:Syscalls.c    **** extern void _init(void) {
 289              	ports interworking.
 290              		@ args = 0, pretend = 0, frame = 0
 291              		@ frame_needed = 0, uses_anonymous_args = 0
 292              		@ link register save eliminated.
 293              		.loc 1 82 0
  81:Syscalls.c    **** 
  82:Syscalls.c    **** }
 294              	r
 295 0000 1EFF2FE1 	.LFE17:
 296              		.size	_init, .-_init
 297              		.section	.debug_frame,"",%progbits
 298              	.Lframe0:
 299              		.4byte	.LECIE0-.LSCIE0
 300 0000 0C000000 	.LSCIE0:
 301              		.4byte	0xffffffff
 302 0004 FFFFFFFF 		.byte	0x1
 303 0008 01       		.ascii	"\000"
 304 0009 00       		.uleb128 0x1
 305 000a 01       		.sleb128 -4
 306 000b 7C       		.byte	0xe
 307 000c 0E       		.byte	0xc
 308 000d 0C       		.uleb128 0xd
 309 000e 0D       		.uleb128 0x0
 310 000f 00       		.align	2
 311              	.LECIE0:
 312              	.LSFDE0:
 313              		.4byte	.LEFDE0-.LASFDE0
ARM GAS  C:\Users\Chris\AppData\Local\Temp/cc6jbaaa.s 			page 8


 314 0010 0C000000 	.LASFDE0:
 315              		.4byte	.Lframe0
 316 0014 00000000 		.4byte	.LFB2
 317 0018 00000000 		.4byte	.LFE2-.LFB2
 318 001c 08000000 		.align	2
 319              	.LEFDE0:
 320              	.LSFDE2:
 321              		.4byte	.LEFDE2-.LASFDE2
 322 0020 0C000000 	.LASFDE2:
 323              		.4byte	.Lframe0
 324 0024 00000000 		.4byte	.LFB3
 325 0028 00000000 		.4byte	.LFE3-.LFB3
 326 002c 08000000 		.align	2
 327              	.LEFDE2:
 328              	.LSFDE4:
 329              		.4byte	.LEFDE4-.LASFDE4
 330 0030 0C000000 	.LASFDE4:
 331              		.4byte	.Lframe0
 332 0034 00000000 		.4byte	.LFB4
 333 0038 00000000 		.4byte	.LFE4-.LFB4
 334 003c 08000000 		.align	2
 335              	.LEFDE4:
 336              	.LSFDE6:
 337              		.4byte	.LEFDE6-.LASFDE6
 338 0040 18000000 	.LASFDE6:
 339              		.4byte	.Lframe0
 340 0044 00000000 		.4byte	.LFB5
 341 0048 00000000 		.4byte	.LFE5-.LFB5
 342 004c 10000000 		.byte	0x4
 343 0050 44       		.4byte	.LCFI0-.LFB5
 344              		.byte	0xe
 345 0051 0E       		.uleb128 0xc
 346 0052 0C       		.byte	0x83
 347 0053 83       		.uleb128 0x1
 348 0054 01       		.byte	0x82
 349 0055 82       		.uleb128 0x2
 350 0056 02       		.byte	0x81
 351 0057 81       		.uleb128 0x3
 352 0058 03       		.align	2
 353 0059 000000   	.LEFDE6:
 354              	.LSFDE8:
 355              		.4byte	.LEFDE8-.LASFDE8
 356 005c 0C000000 	.LASFDE8:
 357              		.4byte	.Lframe0
 358 0060 00000000 		.4byte	.LFB6
 359 0064 00000000 		.4byte	.LFE6-.LFB6
 360 0068 08000000 		.align	2
 361              	.LEFDE8:
 362              	.LSFDE10:
 363              		.4byte	.LEFDE10-.LASFDE10
 364 006c 0C000000 	.LASFDE10:
 365              		.4byte	.Lframe0
 366 0070 00000000 		.4byte	.LFB7
 367 0074 00000000 		.4byte	.LFE7-.LFB7
 368 0078 08000000 		.align	2
 369              	.LEFDE10:
 370              	.LSFDE12:
ARM GAS  C:\Users\Chris\AppData\Local\Temp/cc6jbaaa.s 			page 9


 371              		.4byte	.LEFDE12-.LASFDE12
 372 007c 0C000000 	.LASFDE12:
 373              		.4byte	.Lframe0
 374 0080 00000000 		.4byte	.LFB8
 375 0084 00000000 		.4byte	.LFE8-.LFB8
 376 0088 08000000 		.align	2
 377              	.LEFDE12:
 378              	.LSFDE14:
 379              		.4byte	.LEFDE14-.LASFDE14
 380 008c 0C000000 	.LASFDE14:
 381              		.4byte	.Lframe0
 382 0090 00000000 		.4byte	.LFB9
 383 0094 00000000 		.4byte	.LFE9-.LFB9
 384 0098 08000000 		.align	2
 385              	.LEFDE14:
 386              	.LSFDE16:
 387              		.4byte	.LEFDE16-.LASFDE16
 388 009c 0C000000 	.LASFDE16:
 389              		.4byte	.Lframe0
 390 00a0 00000000 		.4byte	.LFB10
 391 00a4 00000000 		.4byte	.LFE10-.LFB10
 392 00a8 08000000 		.align	2
 393              	.LEFDE16:
 394              	.LSFDE18:
 395              		.4byte	.LEFDE18-.LASFDE18
 396 00ac 0C000000 	.LASFDE18:
 397              		.4byte	.Lframe0
 398 00b0 00000000 		.4byte	.LFB11
 399 00b4 00000000 		.4byte	.LFE11-.LFB11
 400 00b8 08000000 		.align	2
 401              	.LEFDE18:
 402              	.LSFDE20:
 403              		.4byte	.LEFDE20-.LASFDE20
 404 00bc 0C000000 	.LASFDE20:
 405              		.4byte	.Lframe0
 406 00c0 00000000 		.4byte	.LFB12
 407 00c4 00000000 		.4byte	.LFE12-.LFB12
 408 00c8 08000000 		.align	2
 409              	.LEFDE20:
 410              	.LSFDE22:
 411              		.4byte	.LEFDE22-.LASFDE22
 412 00cc 0C000000 	.LASFDE22:
 413              		.4byte	.Lframe0
 414 00d0 00000000 		.4byte	.LFB13
 415 00d4 00000000 		.4byte	.LFE13-.LFB13
 416 00d8 08000000 		.align	2
 417              	.LEFDE22:
 418              	.LSFDE24:
 419              		.4byte	.LEFDE24-.LASFDE24
 420 00dc 0C000000 	.LASFDE24:
 421              		.4byte	.Lframe0
 422 00e0 00000000 		.4byte	.LFB14
 423 00e4 00000000 		.4byte	.LFE14-.LFB14
 424 00e8 04000000 		.align	2
 425              	.LEFDE24:
 426              	.LSFDE26:
 427              		.4byte	.LEFDE26-.LASFDE26
ARM GAS  C:\Users\Chris\AppData\Local\Temp/cc6jbaaa.s 			page 10


 428 00ec 0C000000 	.LASFDE26:
 429              		.4byte	.Lframe0
 430 00f0 00000000 		.4byte	.LFB15
 431 00f4 00000000 		.4byte	.LFE15-.LFB15
 432 00f8 04000000 		.align	2
 433              	.LEFDE26:
 434              	.LSFDE28:
 435              		.4byte	.LEFDE28-.LASFDE28
 436 00fc 0C000000 	.LASFDE28:
 437              		.4byte	.Lframe0
 438 0100 00000000 		.4byte	.LFB16
 439 0104 00000000 		.4byte	.LFE16-.LFB16
 440 0108 04000000 		.align	2
 441              	.LEFDE28:
 442              	.LSFDE30:
 443              		.4byte	.LEFDE30-.LASFDE30
 444 010c 0C000000 	.LASFDE30:
 445              		.4byte	.Lframe0
 446 0110 00000000 		.4byte	.LFB17
 447 0114 00000000 		.4byte	.LFE17-.LFB17
 448 0118 04000000 		.align	2
 449              	.LEFDE30:
 450              		.text
 451              	.Letext0: