ARM GAS  /cygdrive/c/Users/Chris/AppData/Local/Temp/ccKUIiqL.s 			page 1


   1              		.cpu arm7tdmi
   2              		.fpu softvfp
   3              		.eabi_attribute 20, 1
   4              		.eabi_attribute 21, 1
   5              		.eabi_attribute 23, 3
   6              		.eabi_attribute 24, 1
   7              		.eabi_attribute 25, 1
   8              		.eabi_attribute 26, 1
   9              		.eabi_attribute 30, 4
  10              		.eabi_attribute 18, 4
  11              		.file	"Syscalls.c"
  12              		.section	.debug_abbrev,"",%progbits
  13              	.Ldebug_abbrev0:
  14              		.section	.debug_info,"",%progbits
  15              	.Ldebug_info0:
  16              		.section	.debug_line,"",%progbits
  17              	.Ldebug_line0:
  18 0000 C2010000 		.text
  18      0200B600 
  18      00000201 
  18      FB0E0D00 
  18      01010101 
  19              	.Ltext0:
  20              		.section	.text._read,"ax",%progbits
  21              		.align	2
  22              		.global	_read
  23              		.type	_read, %function
  24              	_read:
  25              	.LFB2:
  26              		.file 1 "Syscalls.c"
   1:Syscalls.c    **** /* System Calls Remapping */
   2:Syscalls.c    **** #include <LPC23xx.H>                       /* LPC23xx definitions  */
   3:Syscalls.c    **** #include <stdint.h>
   4:Syscalls.c    **** #include <stdio.h>                         /* standard I/O .h-file */
   5:Syscalls.c    **** #include <math.h>
   6:Syscalls.c    **** 
   7:Syscalls.c    **** #include <stdlib.h>
   8:Syscalls.c    **** #include <math.h>
   9:Syscalls.c    **** 
  10:Syscalls.c    **** #include <sys/stat.h>
  11:Syscalls.c    **** #include <sys/time.h>
  12:Syscalls.c    **** #include <sys/times.h>
  13:Syscalls.c    **** #include <string.h>
  14:Syscalls.c    **** #include <errno.h>
  15:Syscalls.c    **** 
  16:Syscalls.c    **** //#define putchar sendchar
  17:Syscalls.c    **** //#define getchar getkey
  18:Syscalls.c    **** 
  19:Syscalls.c    **** //extern int putchar (int ch);
  20:Syscalls.c    **** //extern int getchar (void);
  21:Syscalls.c    **** 
  22:Syscalls.c    **** 
  23:Syscalls.c    **** 
  24:Syscalls.c    **** int _read (int fd, char * ptr, int len) {
  27              		.loc 1 24 0
  28              		@ Function supports interworking.
  29              		@ args = 0, pretend = 0, frame = 0
ARM GAS  /cygdrive/c/Users/Chris/AppData/Local/Temp/ccKUIiqL.s 			page 2


  30              		@ frame_needed = 0, uses_anonymous_args = 0
  31              		@ link register save eliminated.
  32              	.LVL0:
  25:Syscalls.c    **** 
  26:Syscalls.c    ****   return 0;
  27:Syscalls.c    **** }
  33              		.loc 1 27 0
  34 0000 0000A0E3 		mov	r0, #0
  35              	.LVL1:
  36 0004 1EFF2FE1 		bx	lr
  37              	.LFE2:
  38              		.size	_read, .-_read
  39              		.section	.text._lseek,"ax",%progbits
  40              		.align	2
  41              		.global	_lseek
  42              		.type	_lseek, %function
  43              	_lseek:
  44              	.LFB3:
  28:Syscalls.c    **** 
  29:Syscalls.c    **** int _lseek (int fd, int ptr, int dir) {
  45              		.loc 1 29 0
  46              		@ Function supports interworking.
  47              		@ args = 0, pretend = 0, frame = 0
  48              		@ frame_needed = 0, uses_anonymous_args = 0
  49              		@ link register save eliminated.
  50              	.LVL2:
  30:Syscalls.c    ****   return (0);
  31:Syscalls.c    **** }
  51              		.loc 1 31 0
  52 0000 0000A0E3 		mov	r0, #0
  53              	.LVL3:
  54 0004 1EFF2FE1 		bx	lr
  55              	.LFE3:
  56              		.size	_lseek, .-_lseek
  57              		.section	.text._write,"ax",%progbits
  58              		.align	2
  59              		.global	_write
  60              		.type	_write, %function
  61              	_write:
  62              	.LFB4:
  32:Syscalls.c    **** 
  33:Syscalls.c    **** int _write (int fd, char * ptr, int len) {
  63              		.loc 1 33 0
  64              		@ Function supports interworking.
  65              		@ args = 0, pretend = 0, frame = 0
  66              		@ frame_needed = 0, uses_anonymous_args = 0
  67              		@ link register save eliminated.
  68              	.LVL4:
  34:Syscalls.c    ****   return (0);
  35:Syscalls.c    **** }
  69              		.loc 1 35 0
  70 0000 0000A0E3 		mov	r0, #0
  71              	.LVL5:
  72 0004 1EFF2FE1 		bx	lr
  73              	.LFE4:
  74              		.size	_write, .-_write
  75              		.section	.text._open,"ax",%progbits
ARM GAS  /cygdrive/c/Users/Chris/AppData/Local/Temp/ccKUIiqL.s 			page 3


  76              		.align	2
  77              		.global	_open
  78              		.type	_open, %function
  79              	_open:
  80              	.LFB5:
  36:Syscalls.c    **** 
  37:Syscalls.c    **** int _open (const char * path, int flags, ...) {
  81              		.loc 1 37 0
  82              		@ Function supports interworking.
  83              		@ args = 4, pretend = 12, frame = 0
  84              		@ frame_needed = 0, uses_anonymous_args = 1
  85              		@ link register save eliminated.
  86              	.LVL6:
  87 0000 0E002DE9 		stmfd	sp!, {r1, r2, r3}
  88              	.LCFI0:
  38:Syscalls.c    ****   return (-1);
  39:Syscalls.c    **** }
  89              		.loc 1 39 0
  90 0004 0000E0E3 		mvn	r0, #0
  91              	.LVL7:
  92 0008 0CD08DE2 		add	sp, sp, #12
  93 000c 1EFF2FE1 		bx	lr
  94              	.LFE5:
  95              		.size	_open, .-_open
  96              		.section	.text._close,"ax",%progbits
  97              		.align	2
  98              		.global	_close
  99              		.type	_close, %function
 100              	_close:
 101              	.LFB6:
  40:Syscalls.c    **** 
  41:Syscalls.c    **** int _close (int fd) {
 102              		.loc 1 41 0
 103              		@ Function supports interworking.
 104              		@ args = 0, pretend = 0, frame = 0
 105              		@ frame_needed = 0, uses_anonymous_args = 0
 106              		@ link register save eliminated.
 107              	.LVL8:
  42:Syscalls.c    ****   return (-1);
  43:Syscalls.c    **** }
 108              		.loc 1 43 0
 109 0000 0000E0E3 		mvn	r0, #0
 110              	.LVL9:
 111 0004 1EFF2FE1 		bx	lr
 112              	.LFE6:
 113              		.size	_close, .-_close
 114              		.section	.text._kill,"ax",%progbits
 115              		.align	2
 116              		.global	_kill
 117              		.type	_kill, %function
 118              	_kill:
 119              	.LFB7:
  44:Syscalls.c    **** 
  45:Syscalls.c    **** int _kill (int n, int m) {
 120              		.loc 1 45 0
 121              		@ Function supports interworking.
 122              		@ args = 0, pretend = 0, frame = 0
ARM GAS  /cygdrive/c/Users/Chris/AppData/Local/Temp/ccKUIiqL.s 			page 4


 123              		@ frame_needed = 0, uses_anonymous_args = 0
 124              		@ link register save eliminated.
 125              	.LVL10:
  46:Syscalls.c    ****   return(-1);
  47:Syscalls.c    **** }
 126              		.loc 1 47 0
 127 0000 0000E0E3 		mvn	r0, #0
 128              	.LVL11:
 129 0004 1EFF2FE1 		bx	lr
 130              	.LFE7:
 131              		.size	_kill, .-_kill
 132              		.section	.text._getpid,"ax",%progbits
 133              		.align	2
 134              		.weak	_getpid
 135              		.type	_getpid, %function
 136              	_getpid:
 137              	.LFB8:
  48:Syscalls.c    **** 
  49:Syscalls.c    **** int __attribute__((weak)) _getpid (int n __attribute__ ((unused))) {
 138              		.loc 1 49 0
 139              		@ Function supports interworking.
 140              		@ args = 0, pretend = 0, frame = 0
 141              		@ frame_needed = 0, uses_anonymous_args = 0
 142              		@ link register save eliminated.
 143              	.LVL12:
  50:Syscalls.c    ****   return (1);
  51:Syscalls.c    **** }
 144              		.loc 1 51 0
 145 0000 0100A0E3 		mov	r0, #1
 146              	.LVL13:
 147 0004 1EFF2FE1 		bx	lr
 148              	.LFE8:
 149              		.size	_getpid, .-_getpid
 150              		.section	.text._sbrk,"ax",%progbits
 151              		.align	2
 152              		.global	_sbrk
 153              		.type	_sbrk, %function
 154              	_sbrk:
 155              	.LFB9:
  52:Syscalls.c    **** 
  53:Syscalls.c    **** extern int  __cs3_heap_start;
  54:Syscalls.c    **** extern int  __cs3_heap_end;
  55:Syscalls.c    **** 
  56:Syscalls.c    **** caddr_t _sbrk (int incr) {
 156              		.loc 1 56 0
 157              		@ Function supports interworking.
 158              		@ args = 0, pretend = 0, frame = 0
 159              		@ frame_needed = 0, uses_anonymous_args = 0
 160              		@ link register save eliminated.
 161              	.LVL14:
  57:Syscalls.c    **** 
  58:Syscalls.c    **** 
  59:Syscalls.c    ****   return 0;
  60:Syscalls.c    **** }
 162              		.loc 1 60 0
 163 0000 0000A0E3 		mov	r0, #0
 164              	.LVL15:
ARM GAS  /cygdrive/c/Users/Chris/AppData/Local/Temp/ccKUIiqL.s 			page 5


 165 0004 1EFF2FE1 		bx	lr
 166              	.LFE9:
 167              		.size	_sbrk, .-_sbrk
 168              		.section	.text._fstat,"ax",%progbits
 169              		.align	2
 170              		.weak	_fstat
 171              		.type	_fstat, %function
 172              	_fstat:
 173              	.LFB10:
  61:Syscalls.c    **** 
  62:Syscalls.c    **** int __attribute__((weak)) _fstat (int fd, struct stat * st) {
 174              		.loc 1 62 0
 175              		@ Function supports interworking.
 176              		@ args = 0, pretend = 0, frame = 0
 177              		@ frame_needed = 0, uses_anonymous_args = 0
 178              		@ link register save eliminated.
 179              	.LVL16:
  63:Syscalls.c    **** 
  64:Syscalls.c    ****   return (0);
  65:Syscalls.c    **** }
 180              		.loc 1 65 0
 181 0000 0000A0E3 		mov	r0, #0
 182              	.LVL17:
 183 0004 1EFF2FE1 		bx	lr
 184              	.LFE10:
 185              		.size	_fstat, .-_fstat
 186              		.section	.text._link,"ax",%progbits
 187              		.align	2
 188              		.weak	_link
 189              		.type	_link, %function
 190              	_link:
 191              	.LFB11:
  66:Syscalls.c    **** 
  67:Syscalls.c    **** int __attribute__((weak))_link (void) {
 192              		.loc 1 67 0
 193              		@ Function supports interworking.
 194              		@ args = 0, pretend = 0, frame = 0
 195              		@ frame_needed = 0, uses_anonymous_args = 0
 196              		@ link register save eliminated.
  68:Syscalls.c    ****   return (-1);
  69:Syscalls.c    **** }
 197              		.loc 1 69 0
 198 0000 0000E0E3 		mvn	r0, #0
 199 0004 1EFF2FE1 		bx	lr
 200              	.LFE11:
 201              		.size	_link, .-_link
 202              		.section	.text._unlink,"ax",%progbits
 203              		.align	2
 204              		.global	_unlink
 205              		.type	_unlink, %function
 206              	_unlink:
 207              	.LFB12:
  70:Syscalls.c    **** 
  71:Syscalls.c    **** int _unlink (const char *path) {
 208              		.loc 1 71 0
 209              		@ Function supports interworking.
 210              		@ args = 0, pretend = 0, frame = 0
ARM GAS  /cygdrive/c/Users/Chris/AppData/Local/Temp/ccKUIiqL.s 			page 6


 211              		@ frame_needed = 0, uses_anonymous_args = 0
 212              		@ link register save eliminated.
 213              	.LVL18:
  72:Syscalls.c    ****   return (-1);
  73:Syscalls.c    **** }
 214              		.loc 1 73 0
 215 0000 0000E0E3 		mvn	r0, #0
 216              	.LVL19:
 217 0004 1EFF2FE1 		bx	lr
 218              	.LFE12:
 219              		.size	_unlink, .-_unlink
 220              		.section	.text.isatty,"ax",%progbits
 221              		.align	2
 222              		.global	isatty
 223              		.type	isatty, %function
 224              	isatty:
 225              	.LFB13:
  74:Syscalls.c    **** 
  75:Syscalls.c    **** int isatty (int fd) {
 226              		.loc 1 75 0
 227              		@ Function supports interworking.
 228              		@ args = 0, pretend = 0, frame = 0
 229              		@ frame_needed = 0, uses_anonymous_args = 0
 230              		@ link register save eliminated.
 231              	.LVL20:
  76:Syscalls.c    ****   return (1);
  77:Syscalls.c    **** }
 232              		.loc 1 77 0
 233 0000 0100A0E3 		mov	r0, #1
 234              	.LVL21:
 235 0004 1EFF2FE1 		bx	lr
 236              	.LFE13:
 237              		.size	isatty, .-isatty
 238              		.section	.text.__exidx_start,"ax",%progbits
 239              		.align	2
 240              		.global	__exidx_start
 241              		.type	__exidx_start, %function
 242              	__exidx_start:
 243              	.LFB14:
  78:Syscalls.c    **** 
  79:Syscalls.c    **** //void __exidx_start(void){ return 0; }
  80:Syscalls.c    **** 
  81:Syscalls.c    **** extern void __exidx_start(void){  }
 244              		.loc 1 81 0
 245              		@ Function supports interworking.
 246              		@ args = 0, pretend = 0, frame = 0
 247              		@ frame_needed = 0, uses_anonymous_args = 0
 248              		@ link register save eliminated.
 249              		.loc 1 81 0
 250 0000 1EFF2FE1 		bx	lr
 251              	.LFE14:
 252              		.size	__exidx_start, .-__exidx_start
 253              		.section	.text.__exidx_end,"ax",%progbits
 254              		.align	2
 255              		.global	__exidx_end
 256              		.type	__exidx_end, %function
 257              	__exidx_end:
ARM GAS  /cygdrive/c/Users/Chris/AppData/Local/Temp/ccKUIiqL.s 			page 7


 258              	.LFB15:
  82:Syscalls.c    **** 
  83:Syscalls.c    **** extern void __exidx_end(void){  }
 259              		.loc 1 83 0
 260              		@ Function supports interworking.
 261              		@ args = 0, pretend = 0, frame = 0
 262              		@ frame_needed = 0, uses_anonymous_args = 0
 263              		@ link register save eliminated.
 264              		.loc 1 83 0
 265 0000 1EFF2FE1 		bx	lr
 266              	.LFE15:
 267              		.size	__exidx_end, .-__exidx_end
 268              		.section	.text.abort,"ax",%progbits
 269              		.align	2
 270              		.global	abort
 271              		.type	abort, %function
 272              	abort:
 273              	.LFB16:
  84:Syscalls.c    **** 
  85:Syscalls.c    **** extern void abort(void) {
 274              		.loc 1 85 0
 275              		@ Function supports interworking.
 276              		@ Volatile: function does not return.
 277              		@ args = 0, pretend = 0, frame = 0
 278              		@ frame_needed = 0, uses_anonymous_args = 0
 279              		@ link register save eliminated.
 280              	.L30:
 281 0000 FEFFFFEA 		b	.L30
 282              	.LFE16:
 283              		.size	abort, .-abort
 284              		.section	.text._init,"ax",%progbits
 285              		.align	2
 286              		.global	_init
 287              		.type	_init, %function
 288              	_init:
 289              	.LFB17:
  86:Syscalls.c    **** while(1);
  87:Syscalls.c    ****  }
  88:Syscalls.c    **** 
  89:Syscalls.c    **** extern void _init(void) {
 290              		.loc 1 89 0
 291              		@ Function supports interworking.
 292              		@ args = 0, pretend = 0, frame = 0
 293              		@ frame_needed = 0, uses_anonymous_args = 0
 294              		@ link register save eliminated.
  90:Syscalls.c    **** 
  91:Syscalls.c    **** }
 295              		.loc 1 91 0
 296 0000 1EFF2FE1 		bx	lr
 297              	.LFE17:
 298              		.size	_init, .-_init
 299              		.section	.debug_frame,"",%progbits
 300              	.Lframe0:
 301 0000 0C000000 		.4byte	.LECIE0-.LSCIE0
 302              	.LSCIE0:
 303 0004 FFFFFFFF 		.4byte	0xffffffff
 304 0008 01       		.byte	0x1
ARM GAS  /cygdrive/c/Users/Chris/AppData/Local/Temp/ccKUIiqL.s 			page 8


 305 0009 00       		.ascii	"\000"
 306 000a 01       		.uleb128 0x1
 307 000b 7C       		.sleb128 -4
 308 000c 0E       		.byte	0xe
 309 000d 0C       		.byte	0xc
 310 000e 0D       		.uleb128 0xd
 311 000f 00       		.uleb128 0x0
 312              		.align	2
 313              	.LECIE0:
 314              	.LSFDE0:
 315 0010 0C000000 		.4byte	.LEFDE0-.LASFDE0
 316              	.LASFDE0:
 317 0014 00000000 		.4byte	.Lframe0
 318 0018 00000000 		.4byte	.LFB2
 319 001c 08000000 		.4byte	.LFE2-.LFB2
 320              		.align	2
 321              	.LEFDE0:
 322              	.LSFDE2:
 323 0020 0C000000 		.4byte	.LEFDE2-.LASFDE2
 324              	.LASFDE2:
 325 0024 00000000 		.4byte	.Lframe0
 326 0028 00000000 		.4byte	.LFB3
 327 002c 08000000 		.4byte	.LFE3-.LFB3
 328              		.align	2
 329              	.LEFDE2:
 330              	.LSFDE4:
 331 0030 0C000000 		.4byte	.LEFDE4-.LASFDE4
 332              	.LASFDE4:
 333 0034 00000000 		.4byte	.Lframe0
 334 0038 00000000 		.4byte	.LFB4
 335 003c 08000000 		.4byte	.LFE4-.LFB4
 336              		.align	2
 337              	.LEFDE4:
 338              	.LSFDE6:
 339 0040 18000000 		.4byte	.LEFDE6-.LASFDE6
 340              	.LASFDE6:
 341 0044 00000000 		.4byte	.Lframe0
 342 0048 00000000 		.4byte	.LFB5
 343 004c 10000000 		.4byte	.LFE5-.LFB5
 344 0050 44       		.byte	0x4
 345              		.4byte	.LCFI0-.LFB5
 346 0051 0E       		.byte	0xe
 347 0052 0C       		.uleb128 0xc
 348 0053 83       		.byte	0x83
 349 0054 01       		.uleb128 0x1
 350 0055 82       		.byte	0x82
 351 0056 02       		.uleb128 0x2
 352 0057 81       		.byte	0x81
 353 0058 03       		.uleb128 0x3
 354 0059 000000   		.align	2
 355              	.LEFDE6:
 356              	.LSFDE8:
 357 005c 0C000000 		.4byte	.LEFDE8-.LASFDE8
 358              	.LASFDE8:
 359 0060 00000000 		.4byte	.Lframe0
 360 0064 00000000 		.4byte	.LFB6
 361 0068 08000000 		.4byte	.LFE6-.LFB6
ARM GAS  /cygdrive/c/Users/Chris/AppData/Local/Temp/ccKUIiqL.s 			page 9


 362              		.align	2
 363              	.LEFDE8:
 364              	.LSFDE10:
 365 006c 0C000000 		.4byte	.LEFDE10-.LASFDE10
 366              	.LASFDE10:
 367 0070 00000000 		.4byte	.Lframe0
 368 0074 00000000 		.4byte	.LFB7
 369 0078 08000000 		.4byte	.LFE7-.LFB7
 370              		.align	2
 371              	.LEFDE10:
 372              	.LSFDE12:
 373 007c 0C000000 		.4byte	.LEFDE12-.LASFDE12
 374              	.LASFDE12:
 375 0080 00000000 		.4byte	.Lframe0
 376 0084 00000000 		.4byte	.LFB8
 377 0088 08000000 		.4byte	.LFE8-.LFB8
 378              		.align	2
 379              	.LEFDE12:
 380              	.LSFDE14:
 381 008c 0C000000 		.4byte	.LEFDE14-.LASFDE14
 382              	.LASFDE14:
 383 0090 00000000 		.4byte	.Lframe0
 384 0094 00000000 		.4byte	.LFB9
 385 0098 08000000 		.4byte	.LFE9-.LFB9
 386              		.align	2
 387              	.LEFDE14:
 388              	.LSFDE16:
 389 009c 0C000000 		.4byte	.LEFDE16-.LASFDE16
 390              	.LASFDE16:
 391 00a0 00000000 		.4byte	.Lframe0
 392 00a4 00000000 		.4byte	.LFB10
 393 00a8 08000000 		.4byte	.LFE10-.LFB10
 394              		.align	2
 395              	.LEFDE16:
 396              	.LSFDE18:
 397 00ac 0C000000 		.4byte	.LEFDE18-.LASFDE18
 398              	.LASFDE18:
 399 00b0 00000000 		.4byte	.Lframe0
 400 00b4 00000000 		.4byte	.LFB11
 401 00b8 08000000 		.4byte	.LFE11-.LFB11
 402              		.align	2
 403              	.LEFDE18:
 404              	.LSFDE20:
 405 00bc 0C000000 		.4byte	.LEFDE20-.LASFDE20
 406              	.LASFDE20:
 407 00c0 00000000 		.4byte	.Lframe0
 408 00c4 00000000 		.4byte	.LFB12
 409 00c8 08000000 		.4byte	.LFE12-.LFB12
 410              		.align	2
 411              	.LEFDE20:
 412              	.LSFDE22:
 413 00cc 0C000000 		.4byte	.LEFDE22-.LASFDE22
 414              	.LASFDE22:
 415 00d0 00000000 		.4byte	.Lframe0
 416 00d4 00000000 		.4byte	.LFB13
 417 00d8 08000000 		.4byte	.LFE13-.LFB13
 418              		.align	2
ARM GAS  /cygdrive/c/Users/Chris/AppData/Local/Temp/ccKUIiqL.s 			page 10


 419              	.LEFDE22:
 420              	.LSFDE24:
 421 00dc 0C000000 		.4byte	.LEFDE24-.LASFDE24
 422              	.LASFDE24:
 423 00e0 00000000 		.4byte	.Lframe0
 424 00e4 00000000 		.4byte	.LFB14
 425 00e8 04000000 		.4byte	.LFE14-.LFB14
 426              		.align	2
 427              	.LEFDE24:
 428              	.LSFDE26:
 429 00ec 0C000000 		.4byte	.LEFDE26-.LASFDE26
 430              	.LASFDE26:
 431 00f0 00000000 		.4byte	.Lframe0
 432 00f4 00000000 		.4byte	.LFB15
 433 00f8 04000000 		.4byte	.LFE15-.LFB15
 434              		.align	2
 435              	.LEFDE26:
 436              	.LSFDE28:
 437 00fc 0C000000 		.4byte	.LEFDE28-.LASFDE28
 438              	.LASFDE28:
 439 0100 00000000 		.4byte	.Lframe0
 440 0104 00000000 		.4byte	.LFB16
 441 0108 04000000 		.4byte	.LFE16-.LFB16
 442              		.align	2
 443              	.LEFDE28:
 444              	.LSFDE30:
 445 010c 0C000000 		.4byte	.LEFDE30-.LASFDE30
 446              	.LASFDE30:
 447 0110 00000000 		.4byte	.Lframe0
 448 0114 00000000 		.4byte	.LFB17
 449 0118 04000000 		.4byte	.LFE17-.LFB17
 450              		.align	2
 451              	.LEFDE30:
 452              		.text
 453              	.Letext0:
 454              		.section	.debug_loc,"",%progbits
 455              	.Ldebug_loc0:
 456              	.LLST1:
 457 0000 00000000 		.4byte	.LVL0
 458 0004 04000000 		.4byte	.LVL1
 459 0008 0100     		.2byte	0x1
 460 000a 50       		.byte	0x50
 461 000b 00000000 		.4byte	0x0
 462 000f 00000000 		.4byte	0x0
 463              	.LLST3:
 464 0013 00000000 		.4byte	.LVL2
 465 0017 04000000 		.4byte	.LVL3
 466 001b 0100     		.2byte	0x1
 467 001d 50       		.byte	0x50
 468 001e 00000000 		.4byte	0x0
 469 0022 00000000 		.4byte	0x0
 470              	.LLST5:
 471 0026 00000000 		.4byte	.LVL4
 472 002a 04000000 		.4byte	.LVL5
 473 002e 0100     		.2byte	0x1
 474 0030 50       		.byte	0x50
 475 0031 00000000 		.4byte	0x0
ARM GAS  /cygdrive/c/Users/Chris/AppData/Local/Temp/ccKUIiqL.s 			page 11


 476 0035 00000000 		.4byte	0x0
 477              	.LLST6:
 478 0039 00000000 		.4byte	.LFB5
 479 003d 04000000 		.4byte	.LCFI0
 480 0041 0100     		.2byte	0x1
 481 0043 5D       		.byte	0x5d
 482 0044 04000000 		.4byte	.LCFI0
 483 0048 10000000 		.4byte	.LFE5
 484 004c 0200     		.2byte	0x2
 485 004e 7D       		.byte	0x7d
 486 004f 0C       		.sleb128 12
 487 0050 00000000 		.4byte	0x0
 488 0054 00000000 		.4byte	0x0
 489              	.LLST7:
 490 0058 00000000 		.4byte	.LVL6
 491 005c 08000000 		.4byte	.LVL7
 492 0060 0100     		.2byte	0x1
 493 0062 50       		.byte	0x50
 494 0063 00000000 		.4byte	0x0
 495 0067 00000000 		.4byte	0x0
 496              	.LLST9:
 497 006b 00000000 		.4byte	.LVL8
 498 006f 04000000 		.4byte	.LVL9
 499 0073 0100     		.2byte	0x1
 500 0075 50       		.byte	0x50
 501 0076 00000000 		.4byte	0x0
 502 007a 00000000 		.4byte	0x0
 503              	.LLST11:
 504 007e 00000000 		.4byte	.LVL10
 505 0082 04000000 		.4byte	.LVL11
 506 0086 0100     		.2byte	0x1
 507 0088 50       		.byte	0x50
 508 0089 00000000 		.4byte	0x0
 509 008d 00000000 		.4byte	0x0
 510              	.LLST13:
 511 0091 00000000 		.4byte	.LVL12
 512 0095 04000000 		.4byte	.LVL13
 513 0099 0100     		.2byte	0x1
 514 009b 50       		.byte	0x50
 515 009c 00000000 		.4byte	0x0
 516 00a0 00000000 		.4byte	0x0
 517              	.LLST15:
 518 00a4 00000000 		.4byte	.LVL14
 519 00a8 04000000 		.4byte	.LVL15
 520 00ac 0100     		.2byte	0x1
 521 00ae 50       		.byte	0x50
 522 00af 00000000 		.4byte	0x0
 523 00b3 00000000 		.4byte	0x0
 524              	.LLST17:
 525 00b7 00000000 		.4byte	.LVL16
 526 00bb 04000000 		.4byte	.LVL17
 527 00bf 0100     		.2byte	0x1
 528 00c1 50       		.byte	0x50
 529 00c2 00000000 		.4byte	0x0
 530 00c6 00000000 		.4byte	0x0
 531              	.LLST20:
 532 00ca 00000000 		.4byte	.LVL18
ARM GAS  /cygdrive/c/Users/Chris/AppData/Local/Temp/ccKUIiqL.s 			page 12


 533 00ce 04000000 		.4byte	.LVL19
 534 00d2 0100     		.2byte	0x1
 535 00d4 50       		.byte	0x50
 536 00d5 00000000 		.4byte	0x0
 537 00d9 00000000 		.4byte	0x0
 538              	.LLST22:
 539 00dd 00000000 		.4byte	.LVL20
 540 00e1 04000000 		.4byte	.LVL21
 541 00e5 0100     		.2byte	0x1
 542 00e7 50       		.byte	0x50
 543 00e8 00000000 		.4byte	0x0
 544 00ec 00000000 		.4byte	0x0
 545              		.file 2 "/cygdrive/f/ARM2008q3-66-GPL/build/install/Bin/../lib/gcc/arm-none-eabi/4.3.2/../../../..
 546              		.file 3 "/cygdrive/f/ARM2008q3-66-GPL/build/install/Bin/../lib/gcc/arm-none-eabi/4.3.2/../../../..
 547              		.file 4 "/cygdrive/f/ARM2008q3-66-GPL/build/install/Bin/../lib/gcc/arm-none-eabi/4.3.2/../../../..
 548              		.section	.debug_info
 549 0000 E4040000 		.4byte	0x4e4
 550 0004 0200     		.2byte	0x2
 551 0006 00000000 		.4byte	.Ldebug_abbrev0
 552 000a 04       		.byte	0x4
 553 000b 01       		.uleb128 0x1
 554 000c 99000000 		.4byte	.LASF61
 555 0010 01       		.byte	0x1
 556 0011 A5000000 		.4byte	.LASF62
 557 0015 0E020000 		.4byte	.LASF63
 558 0019 00000000 		.4byte	0x0
 559 001d 00000000 		.4byte	0x0
 560 0021 00000000 		.4byte	.Ldebug_ranges0+0x0
 561 0025 00000000 		.4byte	.Ldebug_line0
 562 0029 02       		.uleb128 0x2
 563 002a 01       		.byte	0x1
 564 002b 06       		.byte	0x6
 565 002c 41000000 		.4byte	.LASF0
 566 0030 02       		.uleb128 0x2
 567 0031 01       		.byte	0x1
 568 0032 08       		.byte	0x8
 569 0033 90010000 		.4byte	.LASF1
 570 0037 02       		.uleb128 0x2
 571 0038 02       		.byte	0x2
 572 0039 05       		.byte	0x5
 573 003a 9E010000 		.4byte	.LASF2
 574 003e 02       		.uleb128 0x2
 575 003f 02       		.byte	0x2
 576 0040 07       		.byte	0x7
 577 0041 0B010000 		.4byte	.LASF3
 578 0045 02       		.uleb128 0x2
 579 0046 04       		.byte	0x4
 580 0047 05       		.byte	0x5
 581 0048 54000000 		.4byte	.LASF4
 582 004c 02       		.uleb128 0x2
 583 004d 04       		.byte	0x4
 584 004e 07       		.byte	0x7
 585 004f F3000000 		.4byte	.LASF5
 586 0053 02       		.uleb128 0x2
 587 0054 08       		.byte	0x8
 588 0055 05       		.byte	0x5
 589 0056 33000000 		.4byte	.LASF6
ARM GAS  /cygdrive/c/Users/Chris/AppData/Local/Temp/ccKUIiqL.s 			page 13


 590 005a 02       		.uleb128 0x2
 591 005b 08       		.byte	0x8
 592 005c 07       		.byte	0x7
 593 005d 0D000000 		.4byte	.LASF7
 594 0061 03       		.uleb128 0x3
 595 0062 04       		.byte	0x4
 596 0063 05       		.byte	0x5
 597 0064 696E7400 		.ascii	"int\000"
 598 0068 02       		.uleb128 0x2
 599 0069 04       		.byte	0x4
 600 006a 07       		.byte	0x7
 601 006b DF000000 		.4byte	.LASF8
 602 006f 04       		.uleb128 0x4
 603 0070 67010000 		.4byte	.LASF9
 604 0074 02       		.byte	0x2
 605 0075 10       		.byte	0x10
 606 0076 45000000 		.4byte	0x45
 607 007a 04       		.uleb128 0x4
 608 007b 5F010000 		.4byte	.LASF10
 609 007f 02       		.byte	0x2
 610 0080 18       		.byte	0x18
 611 0081 37000000 		.4byte	0x37
 612 0085 04       		.uleb128 0x4
 613 0086 DD010000 		.4byte	.LASF11
 614 008a 02       		.byte	0x2
 615 008b 1D       		.byte	0x1d
 616 008c 3E000000 		.4byte	0x3e
 617 0090 04       		.uleb128 0x4
 618 0091 00000000 		.4byte	.LASF12
 619 0095 02       		.byte	0x2
 620 0096 20       		.byte	0x20
 621 0097 3E000000 		.4byte	0x3e
 622 009b 05       		.uleb128 0x5
 623 009c 04       		.byte	0x4
 624 009d 07       		.byte	0x7
 625 009e 06       		.uleb128 0x6
 626 009f 04       		.byte	0x4
 627 00a0 A4000000 		.4byte	0xa4
 628 00a4 02       		.uleb128 0x2
 629 00a5 01       		.byte	0x1
 630 00a6 08       		.byte	0x8
 631 00a7 D2010000 		.4byte	.LASF13
 632 00ab 06       		.uleb128 0x6
 633 00ac 04       		.byte	0x4
 634 00ad B1000000 		.4byte	0xb1
 635 00b1 07       		.uleb128 0x7
 636 00b2 A4000000 		.4byte	0xa4
 637 00b6 04       		.uleb128 0x4
 638 00b7 74010000 		.4byte	.LASF14
 639 00bb 03       		.byte	0x3
 640 00bc 6D       		.byte	0x6d
 641 00bd 45000000 		.4byte	0x45
 642 00c1 04       		.uleb128 0x4
 643 00c2 BC010000 		.4byte	.LASF15
 644 00c6 03       		.byte	0x3
 645 00c7 7E       		.byte	0x7e
 646 00c8 9E000000 		.4byte	0x9e
ARM GAS  /cygdrive/c/Users/Chris/AppData/Local/Temp/ccKUIiqL.s 			page 14


 647 00cc 04       		.uleb128 0x4
 648 00cd 60020000 		.4byte	.LASF16
 649 00d1 03       		.byte	0x3
 650 00d2 85       		.byte	0x85
 651 00d3 3E000000 		.4byte	0x3e
 652 00d7 04       		.uleb128 0x4
 653 00d8 88000000 		.4byte	.LASF17
 654 00dc 03       		.byte	0x3
 655 00dd A2       		.byte	0xa2
 656 00de 6F000000 		.4byte	0x6f
 657 00e2 04       		.uleb128 0x4
 658 00e3 6E010000 		.4byte	.LASF18
 659 00e7 03       		.byte	0x3
 660 00e8 A3       		.byte	0xa3
 661 00e9 7A000000 		.4byte	0x7a
 662 00ed 04       		.uleb128 0x4
 663 00ee 05010000 		.4byte	.LASF19
 664 00f2 03       		.byte	0x3
 665 00f3 A4       		.byte	0xa4
 666 00f4 85000000 		.4byte	0x85
 667 00f8 04       		.uleb128 0x4
 668 00f9 8E000000 		.4byte	.LASF20
 669 00fd 03       		.byte	0x3
 670 00fe A5       		.byte	0xa5
 671 00ff 90000000 		.4byte	0x90
 672 0103 04       		.uleb128 0x4
 673 0104 F2010000 		.4byte	.LASF21
 674 0108 03       		.byte	0x3
 675 0109 BA       		.byte	0xba
 676 010a 68000000 		.4byte	0x68
 677 010e 04       		.uleb128 0x4
 678 010f 80000000 		.4byte	.LASF22
 679 0113 03       		.byte	0x3
 680 0114 BF       		.byte	0xbf
 681 0115 3E000000 		.4byte	0x3e
 682 0119 02       		.uleb128 0x2
 683 011a 08       		.byte	0x8
 684 011b 04       		.byte	0x4
 685 011c 79000000 		.4byte	.LASF23
 686 0120 02       		.uleb128 0x2
 687 0121 04       		.byte	0x4
 688 0122 04       		.byte	0x4
 689 0123 7B010000 		.4byte	.LASF24
 690 0127 02       		.uleb128 0x2
 691 0128 08       		.byte	0x8
 692 0129 04       		.byte	0x4
 693 012a 53010000 		.4byte	.LASF25
 694 012e 08       		.uleb128 0x8
 695 012f 2E000000 		.4byte	.LASF64
 696 0133 3C       		.byte	0x3c
 697 0134 04       		.byte	0x4
 698 0135 1A       		.byte	0x1a
 699 0136 29020000 		.4byte	0x229
 700 013a 09       		.uleb128 0x9
 701 013b F9010000 		.4byte	.LASF26
 702 013f 04       		.byte	0x4
 703 0140 1B       		.byte	0x1b
ARM GAS  /cygdrive/c/Users/Chris/AppData/Local/Temp/ccKUIiqL.s 			page 15


 704 0141 E2000000 		.4byte	0xe2
 705 0145 02       		.byte	0x2
 706 0146 23       		.byte	0x23
 707 0147 00       		.uleb128 0x0
 708 0148 09       		.uleb128 0x9
 709 0149 4D000000 		.4byte	.LASF27
 710 014d 04       		.byte	0x4
 711 014e 1C       		.byte	0x1c
 712 014f CC000000 		.4byte	0xcc
 713 0153 02       		.byte	0x2
 714 0154 23       		.byte	0x23
 715 0155 02       		.uleb128 0x2
 716 0156 09       		.uleb128 0x9
 717 0157 36010000 		.4byte	.LASF28
 718 015b 04       		.byte	0x4
 719 015c 1D       		.byte	0x1d
 720 015d 03010000 		.4byte	0x103
 721 0161 02       		.byte	0x2
 722 0162 23       		.byte	0x23
 723 0163 04       		.uleb128 0x4
 724 0164 09       		.uleb128 0x9
 725 0165 87010000 		.4byte	.LASF29
 726 0169 04       		.byte	0x4
 727 016a 1E       		.byte	0x1e
 728 016b 0E010000 		.4byte	0x10e
 729 016f 02       		.byte	0x2
 730 0170 23       		.byte	0x23
 731 0171 08       		.uleb128 0x8
 732 0172 09       		.uleb128 0x9
 733 0173 B0000000 		.4byte	.LASF30
 734 0177 04       		.byte	0x4
 735 0178 1F       		.byte	0x1f
 736 0179 ED000000 		.4byte	0xed
 737 017d 02       		.byte	0x2
 738 017e 23       		.byte	0x23
 739 017f 0A       		.uleb128 0xa
 740 0180 09       		.uleb128 0x9
 741 0181 EB010000 		.4byte	.LASF31
 742 0185 04       		.byte	0x4
 743 0186 20       		.byte	0x20
 744 0187 F8000000 		.4byte	0xf8
 745 018b 02       		.byte	0x2
 746 018c 23       		.byte	0x23
 747 018d 0C       		.uleb128 0xc
 748 018e 09       		.uleb128 0x9
 749 018f C4010000 		.4byte	.LASF32
 750 0193 04       		.byte	0x4
 751 0194 21       		.byte	0x21
 752 0195 E2000000 		.4byte	0xe2
 753 0199 02       		.byte	0x2
 754 019a 23       		.byte	0x23
 755 019b 0E       		.uleb128 0xe
 756 019c 09       		.uleb128 0x9
 757 019d 27010000 		.4byte	.LASF33
 758 01a1 04       		.byte	0x4
 759 01a2 22       		.byte	0x22
 760 01a3 D7000000 		.4byte	0xd7
ARM GAS  /cygdrive/c/Users/Chris/AppData/Local/Temp/ccKUIiqL.s 			page 16


 761 01a7 02       		.byte	0x2
 762 01a8 23       		.byte	0x23
 763 01a9 10       		.uleb128 0x10
 764 01aa 09       		.uleb128 0x9
 765 01ab 1E010000 		.4byte	.LASF34
 766 01af 04       		.byte	0x4
 767 01b0 29       		.byte	0x29
 768 01b1 B6000000 		.4byte	0xb6
 769 01b5 02       		.byte	0x2
 770 01b6 23       		.byte	0x23
 771 01b7 14       		.uleb128 0x14
 772 01b8 09       		.uleb128 0x9
 773 01b9 B7000000 		.4byte	.LASF35
 774 01bd 04       		.byte	0x4
 775 01be 2A       		.byte	0x2a
 776 01bf 45000000 		.4byte	0x45
 777 01c3 02       		.byte	0x2
 778 01c4 23       		.byte	0x23
 779 01c5 18       		.uleb128 0x18
 780 01c6 09       		.uleb128 0x9
 781 01c7 51020000 		.4byte	.LASF36
 782 01cb 04       		.byte	0x4
 783 01cc 2B       		.byte	0x2b
 784 01cd B6000000 		.4byte	0xb6
 785 01d1 02       		.byte	0x2
 786 01d2 23       		.byte	0x23
 787 01d3 1C       		.uleb128 0x1c
 788 01d4 09       		.uleb128 0x9
 789 01d5 C1000000 		.4byte	.LASF37
 790 01d9 04       		.byte	0x4
 791 01da 2C       		.byte	0x2c
 792 01db 45000000 		.4byte	0x45
 793 01df 02       		.byte	0x2
 794 01e0 23       		.byte	0x23
 795 01e1 20       		.uleb128 0x20
 796 01e2 09       		.uleb128 0x9
 797 01e3 B3010000 		.4byte	.LASF38
 798 01e7 04       		.byte	0x4
 799 01e8 2D       		.byte	0x2d
 800 01e9 B6000000 		.4byte	0xb6
 801 01ed 02       		.byte	0x2
 802 01ee 23       		.byte	0x23
 803 01ef 24       		.uleb128 0x24
 804 01f0 09       		.uleb128 0x9
 805 01f1 CB000000 		.4byte	.LASF39
 806 01f5 04       		.byte	0x4
 807 01f6 2E       		.byte	0x2e
 808 01f7 45000000 		.4byte	0x45
 809 01fb 02       		.byte	0x2
 810 01fc 23       		.byte	0x23
 811 01fd 28       		.uleb128 0x28
 812 01fe 09       		.uleb128 0x9
 813 01ff A8010000 		.4byte	.LASF40
 814 0203 04       		.byte	0x4
 815 0204 2F       		.byte	0x2f
 816 0205 45000000 		.4byte	0x45
 817 0209 02       		.byte	0x2
ARM GAS  /cygdrive/c/Users/Chris/AppData/Local/Temp/ccKUIiqL.s 			page 17


 818 020a 23       		.byte	0x23
 819 020b 2C       		.uleb128 0x2c
 820 020c 09       		.uleb128 0x9
 821 020d 24000000 		.4byte	.LASF41
 822 0211 04       		.byte	0x4
 823 0212 30       		.byte	0x30
 824 0213 45000000 		.4byte	0x45
 825 0217 02       		.byte	0x2
 826 0218 23       		.byte	0x23
 827 0219 30       		.uleb128 0x30
 828 021a 09       		.uleb128 0x9
 829 021b D5000000 		.4byte	.LASF42
 830 021f 04       		.byte	0x4
 831 0220 31       		.byte	0x31
 832 0221 29020000 		.4byte	0x229
 833 0225 02       		.byte	0x2
 834 0226 23       		.byte	0x23
 835 0227 34       		.uleb128 0x34
 836 0228 00       		.byte	0x0
 837 0229 0A       		.uleb128 0xa
 838 022a 45000000 		.4byte	0x45
 839 022e 39020000 		.4byte	0x239
 840 0232 0B       		.uleb128 0xb
 841 0233 9B000000 		.4byte	0x9b
 842 0237 01       		.byte	0x1
 843 0238 00       		.byte	0x0
 844 0239 0C       		.uleb128 0xc
 845 023a 01       		.byte	0x1
 846 023b 81010000 		.4byte	.LASF43
 847 023f 01       		.byte	0x1
 848 0240 18       		.byte	0x18
 849 0241 01       		.byte	0x1
 850 0242 61000000 		.4byte	0x61
 851 0246 00000000 		.4byte	.LFB2
 852 024a 08000000 		.4byte	.LFE2
 853 024e 01       		.byte	0x1
 854 024f 5D       		.byte	0x5d
 855 0250 7D020000 		.4byte	0x27d
 856 0254 0D       		.uleb128 0xd
 857 0255 666400   		.ascii	"fd\000"
 858 0258 01       		.byte	0x1
 859 0259 18       		.byte	0x18
 860 025a 61000000 		.4byte	0x61
 861 025e 00000000 		.4byte	.LLST1
 862 0262 0E       		.uleb128 0xe
 863 0263 70747200 		.ascii	"ptr\000"
 864 0267 01       		.byte	0x1
 865 0268 18       		.byte	0x18
 866 0269 9E000000 		.4byte	0x9e
 867 026d 01       		.byte	0x1
 868 026e 51       		.byte	0x51
 869 026f 0E       		.uleb128 0xe
 870 0270 6C656E00 		.ascii	"len\000"
 871 0274 01       		.byte	0x1
 872 0275 18       		.byte	0x18
 873 0276 61000000 		.4byte	0x61
 874 027a 01       		.byte	0x1
ARM GAS  /cygdrive/c/Users/Chris/AppData/Local/Temp/ccKUIiqL.s 			page 18


 875 027b 52       		.byte	0x52
 876 027c 00       		.byte	0x0
 877 027d 0C       		.uleb128 0xc
 878 027e 01       		.byte	0x1
 879 027f 63000000 		.4byte	.LASF44
 880 0283 01       		.byte	0x1
 881 0284 1D       		.byte	0x1d
 882 0285 01       		.byte	0x1
 883 0286 61000000 		.4byte	0x61
 884 028a 00000000 		.4byte	.LFB3
 885 028e 08000000 		.4byte	.LFE3
 886 0292 01       		.byte	0x1
 887 0293 5D       		.byte	0x5d
 888 0294 C1020000 		.4byte	0x2c1
 889 0298 0D       		.uleb128 0xd
 890 0299 666400   		.ascii	"fd\000"
 891 029c 01       		.byte	0x1
 892 029d 1D       		.byte	0x1d
 893 029e 61000000 		.4byte	0x61
 894 02a2 13000000 		.4byte	.LLST3
 895 02a6 0E       		.uleb128 0xe
 896 02a7 70747200 		.ascii	"ptr\000"
 897 02ab 01       		.byte	0x1
 898 02ac 1D       		.byte	0x1d
 899 02ad 61000000 		.4byte	0x61
 900 02b1 01       		.byte	0x1
 901 02b2 51       		.byte	0x51
 902 02b3 0E       		.uleb128 0xe
 903 02b4 64697200 		.ascii	"dir\000"
 904 02b8 01       		.byte	0x1
 905 02b9 1D       		.byte	0x1d
 906 02ba 61000000 		.4byte	0x61
 907 02be 01       		.byte	0x1
 908 02bf 52       		.byte	0x52
 909 02c0 00       		.byte	0x0
 910 02c1 0C       		.uleb128 0xc
 911 02c2 01       		.byte	0x1
 912 02c3 2F010000 		.4byte	.LASF45
 913 02c7 01       		.byte	0x1
 914 02c8 21       		.byte	0x21
 915 02c9 01       		.byte	0x1
 916 02ca 61000000 		.4byte	0x61
 917 02ce 00000000 		.4byte	.LFB4
 918 02d2 08000000 		.4byte	.LFE4
 919 02d6 01       		.byte	0x1
 920 02d7 5D       		.byte	0x5d
 921 02d8 05030000 		.4byte	0x305
 922 02dc 0D       		.uleb128 0xd
 923 02dd 666400   		.ascii	"fd\000"
 924 02e0 01       		.byte	0x1
 925 02e1 21       		.byte	0x21
 926 02e2 61000000 		.4byte	0x61
 927 02e6 26000000 		.4byte	.LLST5
 928 02ea 0E       		.uleb128 0xe
 929 02eb 70747200 		.ascii	"ptr\000"
 930 02ef 01       		.byte	0x1
 931 02f0 21       		.byte	0x21
ARM GAS  /cygdrive/c/Users/Chris/AppData/Local/Temp/ccKUIiqL.s 			page 19


 932 02f1 9E000000 		.4byte	0x9e
 933 02f5 01       		.byte	0x1
 934 02f6 51       		.byte	0x51
 935 02f7 0E       		.uleb128 0xe
 936 02f8 6C656E00 		.ascii	"len\000"
 937 02fc 01       		.byte	0x1
 938 02fd 21       		.byte	0x21
 939 02fe 61000000 		.4byte	0x61
 940 0302 01       		.byte	0x1
 941 0303 52       		.byte	0x52
 942 0304 00       		.byte	0x0
 943 0305 0F       		.uleb128 0xf
 944 0306 01       		.byte	0x1
 945 0307 5D000000 		.4byte	.LASF46
 946 030b 01       		.byte	0x1
 947 030c 25       		.byte	0x25
 948 030d 01       		.byte	0x1
 949 030e 61000000 		.4byte	0x61
 950 0312 00000000 		.4byte	.LFB5
 951 0316 10000000 		.4byte	.LFE5
 952 031a 39000000 		.4byte	.LLST6
 953 031e 41030000 		.4byte	0x341
 954 0322 10       		.uleb128 0x10
 955 0323 08000000 		.4byte	.LASF47
 956 0327 01       		.byte	0x1
 957 0328 25       		.byte	0x25
 958 0329 AB000000 		.4byte	0xab
 959 032d 58000000 		.4byte	.LLST7
 960 0331 11       		.uleb128 0x11
 961 0332 00020000 		.4byte	.LASF48
 962 0336 01       		.byte	0x1
 963 0337 25       		.byte	0x25
 964 0338 61000000 		.4byte	0x61
 965 033c 02       		.byte	0x2
 966 033d 91       		.byte	0x91
 967 033e 00       		.sleb128 0
 968 033f 12       		.uleb128 0x12
 969 0340 00       		.byte	0x0
 970 0341 0C       		.uleb128 0xc
 971 0342 01       		.byte	0x1
 972 0343 EC000000 		.4byte	.LASF49
 973 0347 01       		.byte	0x1
 974 0348 29       		.byte	0x29
 975 0349 01       		.byte	0x1
 976 034a 61000000 		.4byte	0x61
 977 034e 00000000 		.4byte	.LFB6
 978 0352 08000000 		.4byte	.LFE6
 979 0356 01       		.byte	0x1
 980 0357 5D       		.byte	0x5d
 981 0358 6B030000 		.4byte	0x36b
 982 035c 0D       		.uleb128 0xd
 983 035d 666400   		.ascii	"fd\000"
 984 0360 01       		.byte	0x1
 985 0361 29       		.byte	0x29
 986 0362 61000000 		.4byte	0x61
 987 0366 6B000000 		.4byte	.LLST9
 988 036a 00       		.byte	0x0
ARM GAS  /cygdrive/c/Users/Chris/AppData/Local/Temp/ccKUIiqL.s 			page 20


 989 036b 0C       		.uleb128 0xc
 990 036c 01       		.byte	0x1
 991 036d E5010000 		.4byte	.LASF50
 992 0371 01       		.byte	0x1
 993 0372 2D       		.byte	0x2d
 994 0373 01       		.byte	0x1
 995 0374 61000000 		.4byte	0x61
 996 0378 00000000 		.4byte	.LFB7
 997 037c 08000000 		.4byte	.LFE7
 998 0380 01       		.byte	0x1
 999 0381 5D       		.byte	0x5d
 1000 0382 9F030000 		.4byte	0x39f
 1001 0386 0D       		.uleb128 0xd
 1002 0387 6E00     		.ascii	"n\000"
 1003 0389 01       		.byte	0x1
 1004 038a 2D       		.byte	0x2d
 1005 038b 61000000 		.4byte	0x61
 1006 038f 7E000000 		.4byte	.LLST11
 1007 0393 0E       		.uleb128 0xe
 1008 0394 6D00     		.ascii	"m\000"
 1009 0396 01       		.byte	0x1
 1010 0397 2D       		.byte	0x2d
 1011 0398 61000000 		.4byte	0x61
 1012 039c 01       		.byte	0x1
 1013 039d 51       		.byte	0x51
 1014 039e 00       		.byte	0x0
 1015 039f 0C       		.uleb128 0xc
 1016 03a0 01       		.byte	0x1
 1017 03a1 71000000 		.4byte	.LASF51
 1018 03a5 01       		.byte	0x1
 1019 03a6 31       		.byte	0x31
 1020 03a7 01       		.byte	0x1
 1021 03a8 61000000 		.4byte	0x61
 1022 03ac 00000000 		.4byte	.LFB8
 1023 03b0 08000000 		.4byte	.LFE8
 1024 03b4 01       		.byte	0x1
 1025 03b5 5D       		.byte	0x5d
 1026 03b6 C8030000 		.4byte	0x3c8
 1027 03ba 0D       		.uleb128 0xd
 1028 03bb 6E00     		.ascii	"n\000"
 1029 03bd 01       		.byte	0x1
 1030 03be 31       		.byte	0x31
 1031 03bf 61000000 		.4byte	0x61
 1032 03c3 91000000 		.4byte	.LLST13
 1033 03c7 00       		.byte	0x0
 1034 03c8 0C       		.uleb128 0xc
 1035 03c9 01       		.byte	0x1
 1036 03ca 5A020000 		.4byte	.LASF52
 1037 03ce 01       		.byte	0x1
 1038 03cf 38       		.byte	0x38
 1039 03d0 01       		.byte	0x1
 1040 03d1 C1000000 		.4byte	0xc1
 1041 03d5 00000000 		.4byte	.LFB9
 1042 03d9 08000000 		.4byte	.LFE9
 1043 03dd 01       		.byte	0x1
 1044 03de 5D       		.byte	0x5d
 1045 03df F3030000 		.4byte	0x3f3
ARM GAS  /cygdrive/c/Users/Chris/AppData/Local/Temp/ccKUIiqL.s 			page 21


 1046 03e3 10       		.uleb128 0x10
 1047 03e4 94000000 		.4byte	.LASF53
 1048 03e8 01       		.byte	0x1
 1049 03e9 38       		.byte	0x38
 1050 03ea 61000000 		.4byte	0x61
 1051 03ee A4000000 		.4byte	.LLST15
 1052 03f2 00       		.byte	0x0
 1053 03f3 0C       		.uleb128 0xc
 1054 03f4 01       		.byte	0x1
 1055 03f5 6A000000 		.4byte	.LASF54
 1056 03f9 01       		.byte	0x1
 1057 03fa 3E       		.byte	0x3e
 1058 03fb 01       		.byte	0x1
 1059 03fc 61000000 		.4byte	0x61
 1060 0400 00000000 		.4byte	.LFB10
 1061 0404 08000000 		.4byte	.LFE10
 1062 0408 01       		.byte	0x1
 1063 0409 5D       		.byte	0x5d
 1064 040a 29040000 		.4byte	0x429
 1065 040e 0D       		.uleb128 0xd
 1066 040f 666400   		.ascii	"fd\000"
 1067 0412 01       		.byte	0x1
 1068 0413 3E       		.byte	0x3e
 1069 0414 61000000 		.4byte	0x61
 1070 0418 B7000000 		.4byte	.LLST17
 1071 041c 0E       		.uleb128 0xe
 1072 041d 737400   		.ascii	"st\000"
 1073 0420 01       		.byte	0x1
 1074 0421 3E       		.byte	0x3e
 1075 0422 29040000 		.4byte	0x429
 1076 0426 01       		.byte	0x1
 1077 0427 51       		.byte	0x51
 1078 0428 00       		.byte	0x0
 1079 0429 06       		.uleb128 0x6
 1080 042a 04       		.byte	0x4
 1081 042b 2E010000 		.4byte	0x12e
 1082 042f 13       		.uleb128 0x13
 1083 0430 01       		.byte	0x1
 1084 0431 4B020000 		.4byte	.LASF65
 1085 0435 01       		.byte	0x1
 1086 0436 43       		.byte	0x43
 1087 0437 01       		.byte	0x1
 1088 0438 61000000 		.4byte	0x61
 1089 043c 00000000 		.4byte	.LFB11
 1090 0440 08000000 		.4byte	.LFE11
 1091 0444 01       		.byte	0x1
 1092 0445 5D       		.byte	0x5d
 1093 0446 0C       		.uleb128 0xc
 1094 0447 01       		.byte	0x1
 1095 0448 06020000 		.4byte	.LASF55
 1096 044c 01       		.byte	0x1
 1097 044d 47       		.byte	0x47
 1098 044e 01       		.byte	0x1
 1099 044f 61000000 		.4byte	0x61
 1100 0453 00000000 		.4byte	.LFB12
 1101 0457 08000000 		.4byte	.LFE12
 1102 045b 01       		.byte	0x1
ARM GAS  /cygdrive/c/Users/Chris/AppData/Local/Temp/ccKUIiqL.s 			page 22


 1103 045c 5D       		.byte	0x5d
 1104 045d 71040000 		.4byte	0x471
 1105 0461 10       		.uleb128 0x10
 1106 0462 08000000 		.4byte	.LASF47
 1107 0466 01       		.byte	0x1
 1108 0467 47       		.byte	0x47
 1109 0468 AB000000 		.4byte	0xab
 1110 046c CA000000 		.4byte	.LLST20
 1111 0470 00       		.byte	0x0
 1112 0471 0C       		.uleb128 0xc
 1113 0472 01       		.byte	0x1
 1114 0473 4C010000 		.4byte	.LASF56
 1115 0477 01       		.byte	0x1
 1116 0478 4B       		.byte	0x4b
 1117 0479 01       		.byte	0x1
 1118 047a 61000000 		.4byte	0x61
 1119 047e 00000000 		.4byte	.LFB13
 1120 0482 08000000 		.4byte	.LFE13
 1121 0486 01       		.byte	0x1
 1122 0487 5D       		.byte	0x5d
 1123 0488 9B040000 		.4byte	0x49b
 1124 048c 0D       		.uleb128 0xd
 1125 048d 666400   		.ascii	"fd\000"
 1126 0490 01       		.byte	0x1
 1127 0491 4B       		.byte	0x4b
 1128 0492 61000000 		.4byte	0x61
 1129 0496 DD000000 		.4byte	.LLST22
 1130 049a 00       		.byte	0x0
 1131 049b 14       		.uleb128 0x14
 1132 049c 01       		.byte	0x1
 1133 049d 3E010000 		.4byte	.LASF57
 1134 04a1 01       		.byte	0x1
 1135 04a2 51       		.byte	0x51
 1136 04a3 01       		.byte	0x1
 1137 04a4 00000000 		.4byte	.LFB14
 1138 04a8 04000000 		.4byte	.LFE14
 1139 04ac 01       		.byte	0x1
 1140 04ad 5D       		.byte	0x5d
 1141 04ae 14       		.uleb128 0x14
 1142 04af 01       		.byte	0x1
 1143 04b0 3F020000 		.4byte	.LASF58
 1144 04b4 01       		.byte	0x1
 1145 04b5 53       		.byte	0x53
 1146 04b6 01       		.byte	0x1
 1147 04b7 00000000 		.4byte	.LFB15
 1148 04bb 04000000 		.4byte	.LFE15
 1149 04bf 01       		.byte	0x1
 1150 04c0 5D       		.byte	0x5d
 1151 04c1 14       		.uleb128 0x14
 1152 04c2 01       		.byte	0x1
 1153 04c3 D7010000 		.4byte	.LASF59
 1154 04c7 01       		.byte	0x1
 1155 04c8 55       		.byte	0x55
 1156 04c9 01       		.byte	0x1
 1157 04ca 00000000 		.4byte	.LFB16
 1158 04ce 04000000 		.4byte	.LFE16
 1159 04d2 01       		.byte	0x1
ARM GAS  /cygdrive/c/Users/Chris/AppData/Local/Temp/ccKUIiqL.s 			page 23


 1160 04d3 5D       		.byte	0x5d
 1161 04d4 14       		.uleb128 0x14
 1162 04d5 01       		.byte	0x1
 1163 04d6 CC010000 		.4byte	.LASF60
 1164 04da 01       		.byte	0x1
 1165 04db 59       		.byte	0x59
 1166 04dc 01       		.byte	0x1
 1167 04dd 00000000 		.4byte	.LFB17
 1168 04e1 04000000 		.4byte	.LFE17
 1169 04e5 01       		.byte	0x1
 1170 04e6 5D       		.byte	0x5d
 1171 04e7 00       		.byte	0x0
 1172              		.section	.debug_abbrev
 1173 0000 01       		.uleb128 0x1
 1174 0001 11       		.uleb128 0x11
 1175 0002 01       		.byte	0x1
 1176 0003 25       		.uleb128 0x25
 1177 0004 0E       		.uleb128 0xe
 1178 0005 13       		.uleb128 0x13
 1179 0006 0B       		.uleb128 0xb
 1180 0007 03       		.uleb128 0x3
 1181 0008 0E       		.uleb128 0xe
 1182 0009 1B       		.uleb128 0x1b
 1183 000a 0E       		.uleb128 0xe
 1184 000b 11       		.uleb128 0x11
 1185 000c 01       		.uleb128 0x1
 1186 000d 52       		.uleb128 0x52
 1187 000e 01       		.uleb128 0x1
 1188 000f 55       		.uleb128 0x55
 1189 0010 06       		.uleb128 0x6
 1190 0011 10       		.uleb128 0x10
 1191 0012 06       		.uleb128 0x6
 1192 0013 00       		.byte	0x0
 1193 0014 00       		.byte	0x0
 1194 0015 02       		.uleb128 0x2
 1195 0016 24       		.uleb128 0x24
 1196 0017 00       		.byte	0x0
 1197 0018 0B       		.uleb128 0xb
 1198 0019 0B       		.uleb128 0xb
 1199 001a 3E       		.uleb128 0x3e
 1200 001b 0B       		.uleb128 0xb
 1201 001c 03       		.uleb128 0x3
 1202 001d 0E       		.uleb128 0xe
 1203 001e 00       		.byte	0x0
 1204 001f 00       		.byte	0x0
 1205 0020 03       		.uleb128 0x3
 1206 0021 24       		.uleb128 0x24
 1207 0022 00       		.byte	0x0
 1208 0023 0B       		.uleb128 0xb
 1209 0024 0B       		.uleb128 0xb
 1210 0025 3E       		.uleb128 0x3e
 1211 0026 0B       		.uleb128 0xb
 1212 0027 03       		.uleb128 0x3
 1213 0028 08       		.uleb128 0x8
 1214 0029 00       		.byte	0x0
 1215 002a 00       		.byte	0x0
 1216 002b 04       		.uleb128 0x4
ARM GAS  /cygdrive/c/Users/Chris/AppData/Local/Temp/ccKUIiqL.s 			page 24


 1217 002c 16       		.uleb128 0x16
 1218 002d 00       		.byte	0x0
 1219 002e 03       		.uleb128 0x3
 1220 002f 0E       		.uleb128 0xe
 1221 0030 3A       		.uleb128 0x3a
 1222 0031 0B       		.uleb128 0xb
 1223 0032 3B       		.uleb128 0x3b
 1224 0033 0B       		.uleb128 0xb
 1225 0034 49       		.uleb128 0x49
 1226 0035 13       		.uleb128 0x13
 1227 0036 00       		.byte	0x0
 1228 0037 00       		.byte	0x0
 1229 0038 05       		.uleb128 0x5
 1230 0039 24       		.uleb128 0x24
 1231 003a 00       		.byte	0x0
 1232 003b 0B       		.uleb128 0xb
 1233 003c 0B       		.uleb128 0xb
 1234 003d 3E       		.uleb128 0x3e
 1235 003e 0B       		.uleb128 0xb
 1236 003f 00       		.byte	0x0
 1237 0040 00       		.byte	0x0
 1238 0041 06       		.uleb128 0x6
 1239 0042 0F       		.uleb128 0xf
 1240 0043 00       		.byte	0x0
 1241 0044 0B       		.uleb128 0xb
 1242 0045 0B       		.uleb128 0xb
 1243 0046 49       		.uleb128 0x49
 1244 0047 13       		.uleb128 0x13
 1245 0048 00       		.byte	0x0
 1246 0049 00       		.byte	0x0
 1247 004a 07       		.uleb128 0x7
 1248 004b 26       		.uleb128 0x26
 1249 004c 00       		.byte	0x0
 1250 004d 49       		.uleb128 0x49
 1251 004e 13       		.uleb128 0x13
 1252 004f 00       		.byte	0x0
 1253 0050 00       		.byte	0x0
 1254 0051 08       		.uleb128 0x8
 1255 0052 13       		.uleb128 0x13
 1256 0053 01       		.byte	0x1
 1257 0054 03       		.uleb128 0x3
 1258 0055 0E       		.uleb128 0xe
 1259 0056 0B       		.uleb128 0xb
 1260 0057 0B       		.uleb128 0xb
 1261 0058 3A       		.uleb128 0x3a
 1262 0059 0B       		.uleb128 0xb
 1263 005a 3B       		.uleb128 0x3b
 1264 005b 0B       		.uleb128 0xb
 1265 005c 01       		.uleb128 0x1
 1266 005d 13       		.uleb128 0x13
 1267 005e 00       		.byte	0x0
 1268 005f 00       		.byte	0x0
 1269 0060 09       		.uleb128 0x9
 1270 0061 0D       		.uleb128 0xd
 1271 0062 00       		.byte	0x0
 1272 0063 03       		.uleb128 0x3
 1273 0064 0E       		.uleb128 0xe
ARM GAS  /cygdrive/c/Users/Chris/AppData/Local/Temp/ccKUIiqL.s 			page 25


 1274 0065 3A       		.uleb128 0x3a
 1275 0066 0B       		.uleb128 0xb
 1276 0067 3B       		.uleb128 0x3b
 1277 0068 0B       		.uleb128 0xb
 1278 0069 49       		.uleb128 0x49
 1279 006a 13       		.uleb128 0x13
 1280 006b 38       		.uleb128 0x38
 1281 006c 0A       		.uleb128 0xa
 1282 006d 00       		.byte	0x0
 1283 006e 00       		.byte	0x0
 1284 006f 0A       		.uleb128 0xa
 1285 0070 01       		.uleb128 0x1
 1286 0071 01       		.byte	0x1
 1287 0072 49       		.uleb128 0x49
 1288 0073 13       		.uleb128 0x13
 1289 0074 01       		.uleb128 0x1
 1290 0075 13       		.uleb128 0x13
 1291 0076 00       		.byte	0x0
 1292 0077 00       		.byte	0x0
 1293 0078 0B       		.uleb128 0xb
 1294 0079 21       		.uleb128 0x21
 1295 007a 00       		.byte	0x0
 1296 007b 49       		.uleb128 0x49
 1297 007c 13       		.uleb128 0x13
 1298 007d 2F       		.uleb128 0x2f
 1299 007e 0B       		.uleb128 0xb
 1300 007f 00       		.byte	0x0
 1301 0080 00       		.byte	0x0
 1302 0081 0C       		.uleb128 0xc
 1303 0082 2E       		.uleb128 0x2e
 1304 0083 01       		.byte	0x1
 1305 0084 3F       		.uleb128 0x3f
 1306 0085 0C       		.uleb128 0xc
 1307 0086 03       		.uleb128 0x3
 1308 0087 0E       		.uleb128 0xe
 1309 0088 3A       		.uleb128 0x3a
 1310 0089 0B       		.uleb128 0xb
 1311 008a 3B       		.uleb128 0x3b
 1312 008b 0B       		.uleb128 0xb
 1313 008c 27       		.uleb128 0x27
 1314 008d 0C       		.uleb128 0xc
 1315 008e 49       		.uleb128 0x49
 1316 008f 13       		.uleb128 0x13
 1317 0090 11       		.uleb128 0x11
 1318 0091 01       		.uleb128 0x1
 1319 0092 12       		.uleb128 0x12
 1320 0093 01       		.uleb128 0x1
 1321 0094 40       		.uleb128 0x40
 1322 0095 0A       		.uleb128 0xa
 1323 0096 01       		.uleb128 0x1
 1324 0097 13       		.uleb128 0x13
 1325 0098 00       		.byte	0x0
 1326 0099 00       		.byte	0x0
 1327 009a 0D       		.uleb128 0xd
 1328 009b 05       		.uleb128 0x5
 1329 009c 00       		.byte	0x0
 1330 009d 03       		.uleb128 0x3
ARM GAS  /cygdrive/c/Users/Chris/AppData/Local/Temp/ccKUIiqL.s 			page 26


 1331 009e 08       		.uleb128 0x8
 1332 009f 3A       		.uleb128 0x3a
 1333 00a0 0B       		.uleb128 0xb
 1334 00a1 3B       		.uleb128 0x3b
 1335 00a2 0B       		.uleb128 0xb
 1336 00a3 49       		.uleb128 0x49
 1337 00a4 13       		.uleb128 0x13
 1338 00a5 02       		.uleb128 0x2
 1339 00a6 06       		.uleb128 0x6
 1340 00a7 00       		.byte	0x0
 1341 00a8 00       		.byte	0x0
 1342 00a9 0E       		.uleb128 0xe
 1343 00aa 05       		.uleb128 0x5
 1344 00ab 00       		.byte	0x0
 1345 00ac 03       		.uleb128 0x3
 1346 00ad 08       		.uleb128 0x8
 1347 00ae 3A       		.uleb128 0x3a
 1348 00af 0B       		.uleb128 0xb
 1349 00b0 3B       		.uleb128 0x3b
 1350 00b1 0B       		.uleb128 0xb
 1351 00b2 49       		.uleb128 0x49
 1352 00b3 13       		.uleb128 0x13
 1353 00b4 02       		.uleb128 0x2
 1354 00b5 0A       		.uleb128 0xa
 1355 00b6 00       		.byte	0x0
 1356 00b7 00       		.byte	0x0
 1357 00b8 0F       		.uleb128 0xf
 1358 00b9 2E       		.uleb128 0x2e
 1359 00ba 01       		.byte	0x1
 1360 00bb 3F       		.uleb128 0x3f
 1361 00bc 0C       		.uleb128 0xc
 1362 00bd 03       		.uleb128 0x3
 1363 00be 0E       		.uleb128 0xe
 1364 00bf 3A       		.uleb128 0x3a
 1365 00c0 0B       		.uleb128 0xb
 1366 00c1 3B       		.uleb128 0x3b
 1367 00c2 0B       		.uleb128 0xb
 1368 00c3 27       		.uleb128 0x27
 1369 00c4 0C       		.uleb128 0xc
 1370 00c5 49       		.uleb128 0x49
 1371 00c6 13       		.uleb128 0x13
 1372 00c7 11       		.uleb128 0x11
 1373 00c8 01       		.uleb128 0x1
 1374 00c9 12       		.uleb128 0x12
 1375 00ca 01       		.uleb128 0x1
 1376 00cb 40       		.uleb128 0x40
 1377 00cc 06       		.uleb128 0x6
 1378 00cd 01       		.uleb128 0x1
 1379 00ce 13       		.uleb128 0x13
 1380 00cf 00       		.byte	0x0
 1381 00d0 00       		.byte	0x0
 1382 00d1 10       		.uleb128 0x10
 1383 00d2 05       		.uleb128 0x5
 1384 00d3 00       		.byte	0x0
 1385 00d4 03       		.uleb128 0x3
 1386 00d5 0E       		.uleb128 0xe
 1387 00d6 3A       		.uleb128 0x3a
ARM GAS  /cygdrive/c/Users/Chris/AppData/Local/Temp/ccKUIiqL.s 			page 27


 1388 00d7 0B       		.uleb128 0xb
 1389 00d8 3B       		.uleb128 0x3b
 1390 00d9 0B       		.uleb128 0xb
 1391 00da 49       		.uleb128 0x49
 1392 00db 13       		.uleb128 0x13
 1393 00dc 02       		.uleb128 0x2
 1394 00dd 06       		.uleb128 0x6
 1395 00de 00       		.byte	0x0
 1396 00df 00       		.byte	0x0
 1397 00e0 11       		.uleb128 0x11
 1398 00e1 05       		.uleb128 0x5
 1399 00e2 00       		.byte	0x0
 1400 00e3 03       		.uleb128 0x3
 1401 00e4 0E       		.uleb128 0xe
 1402 00e5 3A       		.uleb128 0x3a
 1403 00e6 0B       		.uleb128 0xb
 1404 00e7 3B       		.uleb128 0x3b
 1405 00e8 0B       		.uleb128 0xb
 1406 00e9 49       		.uleb128 0x49
 1407 00ea 13       		.uleb128 0x13
 1408 00eb 02       		.uleb128 0x2
 1409 00ec 0A       		.uleb128 0xa
 1410 00ed 00       		.byte	0x0
 1411 00ee 00       		.byte	0x0
 1412 00ef 12       		.uleb128 0x12
 1413 00f0 18       		.uleb128 0x18
 1414 00f1 00       		.byte	0x0
 1415 00f2 00       		.byte	0x0
 1416 00f3 00       		.byte	0x0
 1417 00f4 13       		.uleb128 0x13
 1418 00f5 2E       		.uleb128 0x2e
 1419 00f6 00       		.byte	0x0
 1420 00f7 3F       		.uleb128 0x3f
 1421 00f8 0C       		.uleb128 0xc
 1422 00f9 03       		.uleb128 0x3
 1423 00fa 0E       		.uleb128 0xe
 1424 00fb 3A       		.uleb128 0x3a
 1425 00fc 0B       		.uleb128 0xb
 1426 00fd 3B       		.uleb128 0x3b
 1427 00fe 0B       		.uleb128 0xb
 1428 00ff 27       		.uleb128 0x27
 1429 0100 0C       		.uleb128 0xc
 1430 0101 49       		.uleb128 0x49
 1431 0102 13       		.uleb128 0x13
 1432 0103 11       		.uleb128 0x11
 1433 0104 01       		.uleb128 0x1
 1434 0105 12       		.uleb128 0x12
 1435 0106 01       		.uleb128 0x1
 1436 0107 40       		.uleb128 0x40
 1437 0108 0A       		.uleb128 0xa
 1438 0109 00       		.byte	0x0
 1439 010a 00       		.byte	0x0
 1440 010b 14       		.uleb128 0x14
 1441 010c 2E       		.uleb128 0x2e
 1442 010d 00       		.byte	0x0
 1443 010e 3F       		.uleb128 0x3f
 1444 010f 0C       		.uleb128 0xc
ARM GAS  /cygdrive/c/Users/Chris/AppData/Local/Temp/ccKUIiqL.s 			page 28


 1445 0110 03       		.uleb128 0x3
 1446 0111 0E       		.uleb128 0xe
 1447 0112 3A       		.uleb128 0x3a
 1448 0113 0B       		.uleb128 0xb
 1449 0114 3B       		.uleb128 0x3b
 1450 0115 0B       		.uleb128 0xb
 1451 0116 27       		.uleb128 0x27
 1452 0117 0C       		.uleb128 0xc
 1453 0118 11       		.uleb128 0x11
 1454 0119 01       		.uleb128 0x1
 1455 011a 12       		.uleb128 0x12
 1456 011b 01       		.uleb128 0x1
 1457 011c 40       		.uleb128 0x40
 1458 011d 0A       		.uleb128 0xa
 1459 011e 00       		.byte	0x0
 1460 011f 00       		.byte	0x0
 1461 0120 00       		.byte	0x0
 1462              		.section	.debug_pubnames,"",%progbits
 1463 0000 C5000000 		.4byte	0xc5
 1464 0004 0200     		.2byte	0x2
 1465 0006 00000000 		.4byte	.Ldebug_info0
 1466 000a E8040000 		.4byte	0x4e8
 1467 000e 39020000 		.4byte	0x239
 1468 0012 5F726561 		.ascii	"_read\000"
 1468      6400
 1469 0018 7D020000 		.4byte	0x27d
 1470 001c 5F6C7365 		.ascii	"_lseek\000"
 1470      656B00
 1471 0023 C1020000 		.4byte	0x2c1
 1472 0027 5F777269 		.ascii	"_write\000"
 1472      746500
 1473 002e 05030000 		.4byte	0x305
 1474 0032 5F6F7065 		.ascii	"_open\000"
 1474      6E00
 1475 0038 41030000 		.4byte	0x341
 1476 003c 5F636C6F 		.ascii	"_close\000"
 1476      736500
 1477 0043 6B030000 		.4byte	0x36b
 1478 0047 5F6B696C 		.ascii	"_kill\000"
 1478      6C00
 1479 004d 9F030000 		.4byte	0x39f
 1480 0051 5F676574 		.ascii	"_getpid\000"
 1480      70696400 
 1481 0059 C8030000 		.4byte	0x3c8
 1482 005d 5F736272 		.ascii	"_sbrk\000"
 1482      6B00
 1483 0063 F3030000 		.4byte	0x3f3
 1484 0067 5F667374 		.ascii	"_fstat\000"
 1484      617400
 1485 006e 2F040000 		.4byte	0x42f
 1486 0072 5F6C696E 		.ascii	"_link\000"
 1486      6B00
 1487 0078 46040000 		.4byte	0x446
 1488 007c 5F756E6C 		.ascii	"_unlink\000"
 1488      696E6B00 
 1489 0084 71040000 		.4byte	0x471
 1490 0088 69736174 		.ascii	"isatty\000"
ARM GAS  /cygdrive/c/Users/Chris/AppData/Local/Temp/ccKUIiqL.s 			page 29


 1490      747900
 1491 008f 9B040000 		.4byte	0x49b
 1492 0093 5F5F6578 		.ascii	"__exidx_start\000"
 1492      6964785F 
 1492      73746172 
 1492      7400
 1493 00a1 AE040000 		.4byte	0x4ae
 1494 00a5 5F5F6578 		.ascii	"__exidx_end\000"
 1494      6964785F 
 1494      656E6400 
 1495 00b1 C1040000 		.4byte	0x4c1
 1496 00b5 61626F72 		.ascii	"abort\000"
 1496      7400
 1497 00bb D4040000 		.4byte	0x4d4
 1498 00bf 5F696E69 		.ascii	"_init\000"
 1498      7400
 1499 00c5 00000000 		.4byte	0x0
 1500              		.section	.debug_aranges,"",%progbits
 1501 0000 94000000 		.4byte	0x94
 1502 0004 0200     		.2byte	0x2
 1503 0006 00000000 		.4byte	.Ldebug_info0
 1504 000a 04       		.byte	0x4
 1505 000b 00       		.byte	0x0
 1506 000c 0000     		.2byte	0x0
 1507 000e 0000     		.2byte	0x0
 1508 0010 00000000 		.4byte	.LFB2
 1509 0014 08000000 		.4byte	.LFE2-.LFB2
 1510 0018 00000000 		.4byte	.LFB3
 1511 001c 08000000 		.4byte	.LFE3-.LFB3
 1512 0020 00000000 		.4byte	.LFB4
 1513 0024 08000000 		.4byte	.LFE4-.LFB4
 1514 0028 00000000 		.4byte	.LFB5
 1515 002c 10000000 		.4byte	.LFE5-.LFB5
 1516 0030 00000000 		.4byte	.LFB6
 1517 0034 08000000 		.4byte	.LFE6-.LFB6
 1518 0038 00000000 		.4byte	.LFB7
 1519 003c 08000000 		.4byte	.LFE7-.LFB7
 1520 0040 00000000 		.4byte	.LFB8
 1521 0044 08000000 		.4byte	.LFE8-.LFB8
 1522 0048 00000000 		.4byte	.LFB9
 1523 004c 08000000 		.4byte	.LFE9-.LFB9
 1524 0050 00000000 		.4byte	.LFB10
 1525 0054 08000000 		.4byte	.LFE10-.LFB10
 1526 0058 00000000 		.4byte	.LFB11
 1527 005c 08000000 		.4byte	.LFE11-.LFB11
 1528 0060 00000000 		.4byte	.LFB12
 1529 0064 08000000 		.4byte	.LFE12-.LFB12
 1530 0068 00000000 		.4byte	.LFB13
 1531 006c 08000000 		.4byte	.LFE13-.LFB13
 1532 0070 00000000 		.4byte	.LFB14
 1533 0074 04000000 		.4byte	.LFE14-.LFB14
 1534 0078 00000000 		.4byte	.LFB15
 1535 007c 04000000 		.4byte	.LFE15-.LFB15
 1536 0080 00000000 		.4byte	.LFB16
 1537 0084 04000000 		.4byte	.LFE16-.LFB16
 1538 0088 00000000 		.4byte	.LFB17
 1539 008c 04000000 		.4byte	.LFE17-.LFB17
ARM GAS  /cygdrive/c/Users/Chris/AppData/Local/Temp/ccKUIiqL.s 			page 30


 1540 0090 00000000 		.4byte	0x0
 1541 0094 00000000 		.4byte	0x0
 1542              		.section	.debug_ranges,"",%progbits
 1543              	.Ldebug_ranges0:
 1544 0000 00000000 		.4byte	.Ltext0
 1545 0004 00000000 		.4byte	.Letext0
 1546 0008 00000000 		.4byte	.LFB2
 1547 000c 08000000 		.4byte	.LFE2
 1548 0010 00000000 		.4byte	.LFB3
 1549 0014 08000000 		.4byte	.LFE3
 1550 0018 00000000 		.4byte	.LFB4
 1551 001c 08000000 		.4byte	.LFE4
 1552 0020 00000000 		.4byte	.LFB5
 1553 0024 10000000 		.4byte	.LFE5
 1554 0028 00000000 		.4byte	.LFB6
 1555 002c 08000000 		.4byte	.LFE6
 1556 0030 00000000 		.4byte	.LFB7
 1557 0034 08000000 		.4byte	.LFE7
 1558 0038 00000000 		.4byte	.LFB8
 1559 003c 08000000 		.4byte	.LFE8
 1560 0040 00000000 		.4byte	.LFB9
 1561 0044 08000000 		.4byte	.LFE9
 1562 0048 00000000 		.4byte	.LFB10
 1563 004c 08000000 		.4byte	.LFE10
 1564 0050 00000000 		.4byte	.LFB11
 1565 0054 08000000 		.4byte	.LFE11
 1566 0058 00000000 		.4byte	.LFB12
 1567 005c 08000000 		.4byte	.LFE12
 1568 0060 00000000 		.4byte	.LFB13
 1569 0064 08000000 		.4byte	.LFE13
 1570 0068 00000000 		.4byte	.LFB14
 1571 006c 04000000 		.4byte	.LFE14
 1572 0070 00000000 		.4byte	.LFB15
 1573 0074 04000000 		.4byte	.LFE15
 1574 0078 00000000 		.4byte	.LFB16
 1575 007c 04000000 		.4byte	.LFE16
 1576 0080 00000000 		.4byte	.LFB17
 1577 0084 04000000 		.4byte	.LFE17
 1578 0088 00000000 		.4byte	0x0
 1579 008c 00000000 		.4byte	0x0
 1580              		.section	.debug_str,"MS",%progbits,1
 1581              	.LASF12:
 1582 0000 5F5F6769 		.ascii	"__gid_t\000"
 1582      645F7400 
 1583              	.LASF47:
 1584 0008 70617468 		.ascii	"path\000"
 1584      00
 1585              	.LASF7:
 1586 000d 6C6F6E67 		.ascii	"long long unsigned int\000"
 1586      206C6F6E 
 1586      6720756E 
 1586      7369676E 
 1586      65642069 
 1587              	.LASF41:
 1588 0024 73745F62 		.ascii	"st_blocks\000"
 1588      6C6F636B 
 1588      7300
ARM GAS  /cygdrive/c/Users/Chris/AppData/Local/Temp/ccKUIiqL.s 			page 31


 1589              	.LASF64:
 1590 002e 73746174 		.ascii	"stat\000"
 1590      00
 1591              	.LASF6:
 1592 0033 6C6F6E67 		.ascii	"long long int\000"
 1592      206C6F6E 
 1592      6720696E 
 1592      7400
 1593              	.LASF0:
 1594 0041 7369676E 		.ascii	"signed char\000"
 1594      65642063 
 1594      68617200 
 1595              	.LASF27:
 1596 004d 73745F69 		.ascii	"st_ino\000"
 1596      6E6F00
 1597              	.LASF4:
 1598 0054 6C6F6E67 		.ascii	"long int\000"
 1598      20696E74 
 1598      00
 1599              	.LASF46:
 1600 005d 5F6F7065 		.ascii	"_open\000"
 1600      6E00
 1601              	.LASF44:
 1602 0063 5F6C7365 		.ascii	"_lseek\000"
 1602      656B00
 1603              	.LASF54:
 1604 006a 5F667374 		.ascii	"_fstat\000"
 1604      617400
 1605              	.LASF51:
 1606 0071 5F676574 		.ascii	"_getpid\000"
 1606      70696400 
 1607              	.LASF23:
 1608 0079 646F7562 		.ascii	"double\000"
 1608      6C6500
 1609              	.LASF22:
 1610 0080 6E6C696E 		.ascii	"nlink_t\000"
 1610      6B5F7400 
 1611              	.LASF17:
 1612 0088 6F66665F 		.ascii	"off_t\000"
 1612      7400
 1613              	.LASF20:
 1614 008e 6769645F 		.ascii	"gid_t\000"
 1614      7400
 1615              	.LASF53:
 1616 0094 696E6372 		.ascii	"incr\000"
 1616      00
 1617              	.LASF61:
 1618 0099 474E5520 		.ascii	"GNU C 4.3.2\000"
 1618      4320342E 
 1618      332E3200 
 1619              	.LASF62:
 1620 00a5 53797363 		.ascii	"Syscalls.c\000"
 1620      616C6C73 
 1620      2E6300
 1621              	.LASF30:
 1622 00b0 73745F75 		.ascii	"st_uid\000"
 1622      696400
ARM GAS  /cygdrive/c/Users/Chris/AppData/Local/Temp/ccKUIiqL.s 			page 32


 1623              	.LASF35:
 1624 00b7 73745F73 		.ascii	"st_spare1\000"
 1624      70617265 
 1624      3100
 1625              	.LASF37:
 1626 00c1 73745F73 		.ascii	"st_spare2\000"
 1626      70617265 
 1626      3200
 1627              	.LASF39:
 1628 00cb 73745F73 		.ascii	"st_spare3\000"
 1628      70617265 
 1628      3300
 1629              	.LASF42:
 1630 00d5 73745F73 		.ascii	"st_spare4\000"
 1630      70617265 
 1630      3400
 1631              	.LASF8:
 1632 00df 756E7369 		.ascii	"unsigned int\000"
 1632      676E6564 
 1632      20696E74 
 1632      00
 1633              	.LASF49:
 1634 00ec 5F636C6F 		.ascii	"_close\000"
 1634      736500
 1635              	.LASF5:
 1636 00f3 6C6F6E67 		.ascii	"long unsigned int\000"
 1636      20756E73 
 1636      69676E65 
 1636      6420696E 
 1636      7400
 1637              	.LASF19:
 1638 0105 7569645F 		.ascii	"uid_t\000"
 1638      7400
 1639              	.LASF3:
 1640 010b 73686F72 		.ascii	"short unsigned int\000"
 1640      7420756E 
 1640      7369676E 
 1640      65642069 
 1640      6E7400
 1641              	.LASF34:
 1642 011e 73745F61 		.ascii	"st_atime\000"
 1642      74696D65 
 1642      00
 1643              	.LASF33:
 1644 0127 73745F73 		.ascii	"st_size\000"
 1644      697A6500 
 1645              	.LASF45:
 1646 012f 5F777269 		.ascii	"_write\000"
 1646      746500
 1647              	.LASF28:
 1648 0136 73745F6D 		.ascii	"st_mode\000"
 1648      6F646500 
 1649              	.LASF57:
 1650 013e 5F5F6578 		.ascii	"__exidx_start\000"
 1650      6964785F 
 1650      73746172 
 1650      7400
ARM GAS  /cygdrive/c/Users/Chris/AppData/Local/Temp/ccKUIiqL.s 			page 33


 1651              	.LASF56:
 1652 014c 69736174 		.ascii	"isatty\000"
 1652      747900
 1653              	.LASF25:
 1654 0153 6C6F6E67 		.ascii	"long double\000"
 1654      20646F75 
 1654      626C6500 
 1655              	.LASF10:
 1656 015f 5F5F6465 		.ascii	"__dev_t\000"
 1656      765F7400 
 1657              	.LASF9:
 1658 0167 5F6F6666 		.ascii	"_off_t\000"
 1658      5F7400
 1659              	.LASF18:
 1660 016e 6465765F 		.ascii	"dev_t\000"
 1660      7400
 1661              	.LASF14:
 1662 0174 74696D65 		.ascii	"time_t\000"
 1662      5F7400
 1663              	.LASF24:
 1664 017b 666C6F61 		.ascii	"float\000"
 1664      7400
 1665              	.LASF43:
 1666 0181 5F726561 		.ascii	"_read\000"
 1666      6400
 1667              	.LASF29:
 1668 0187 73745F6E 		.ascii	"st_nlink\000"
 1668      6C696E6B 
 1668      00
 1669              	.LASF1:
 1670 0190 756E7369 		.ascii	"unsigned char\000"
 1670      676E6564 
 1670      20636861 
 1670      7200
 1671              	.LASF2:
 1672 019e 73686F72 		.ascii	"short int\000"
 1672      7420696E 
 1672      7400
 1673              	.LASF40:
 1674 01a8 73745F62 		.ascii	"st_blksize\000"
 1674      6C6B7369 
 1674      7A6500
 1675              	.LASF38:
 1676 01b3 73745F63 		.ascii	"st_ctime\000"
 1676      74696D65 
 1676      00
 1677              	.LASF15:
 1678 01bc 63616464 		.ascii	"caddr_t\000"
 1678      725F7400 
 1679              	.LASF32:
 1680 01c4 73745F72 		.ascii	"st_rdev\000"
 1680      64657600 
 1681              	.LASF60:
 1682 01cc 5F696E69 		.ascii	"_init\000"
 1682      7400
 1683              	.LASF13:
 1684 01d2 63686172 		.ascii	"char\000"
ARM GAS  /cygdrive/c/Users/Chris/AppData/Local/Temp/ccKUIiqL.s 			page 34


 1684      00
 1685              	.LASF59:
 1686 01d7 61626F72 		.ascii	"abort\000"
 1686      7400
 1687              	.LASF11:
 1688 01dd 5F5F7569 		.ascii	"__uid_t\000"
 1688      645F7400 
 1689              	.LASF50:
 1690 01e5 5F6B696C 		.ascii	"_kill\000"
 1690      6C00
 1691              	.LASF31:
 1692 01eb 73745F67 		.ascii	"st_gid\000"
 1692      696400
 1693              	.LASF21:
 1694 01f2 6D6F6465 		.ascii	"mode_t\000"
 1694      5F7400
 1695              	.LASF26:
 1696 01f9 73745F64 		.ascii	"st_dev\000"
 1696      657600
 1697              	.LASF48:
 1698 0200 666C6167 		.ascii	"flags\000"
 1698      7300
 1699              	.LASF55:
 1700 0206 5F756E6C 		.ascii	"_unlink\000"
 1700      696E6B00 
 1701              	.LASF63:
 1702 020e 2F637967 		.ascii	"/cygdrive/c/Users/Chris/Desktop/sfboot2.0/sfboot\000"
 1702      64726976 
 1702      652F632F 
 1702      55736572 
 1702      732F4368 
 1703              	.LASF58:
 1704 023f 5F5F6578 		.ascii	"__exidx_end\000"
 1704      6964785F 
 1704      656E6400 
 1705              	.LASF65:
 1706 024b 5F6C696E 		.ascii	"_link\000"
 1706      6B00
 1707              	.LASF36:
 1708 0251 73745F6D 		.ascii	"st_mtime\000"
 1708      74696D65 
 1708      00
 1709              	.LASF52:
 1710 025a 5F736272 		.ascii	"_sbrk\000"
 1710      6B00
 1711              	.LASF16:
 1712 0260 696E6F5F 		.ascii	"ino_t\000"
 1712      7400
 1713              		.ident	"GCC: (AHAX Arm-Linux 2008q3-66) 4.3.2"
ARM GAS  /cygdrive/c/Users/Chris/AppData/Local/Temp/ccKUIiqL.s 			page 35


DEFINED SYMBOLS
                            *ABS*:00000000 Syscalls.c
/cygdrive/c/Users/Chris/AppData/Local/Temp/ccKUIiqL.s:24     .text._read:00000000 _read
/cygdrive/c/Users/Chris/AppData/Local/Temp/ccKUIiqL.s:34     .text._read:00000000 $a
/cygdrive/c/Users/Chris/AppData/Local/Temp/ccKUIiqL.s:43     .text._lseek:00000000 _lseek
/cygdrive/c/Users/Chris/AppData/Local/Temp/ccKUIiqL.s:52     .text._lseek:00000000 $a
/cygdrive/c/Users/Chris/AppData/Local/Temp/ccKUIiqL.s:61     .text._write:00000000 _write
/cygdrive/c/Users/Chris/AppData/Local/Temp/ccKUIiqL.s:70     .text._write:00000000 $a
/cygdrive/c/Users/Chris/AppData/Local/Temp/ccKUIiqL.s:79     .text._open:00000000 _open
/cygdrive/c/Users/Chris/AppData/Local/Temp/ccKUIiqL.s:87     .text._open:00000000 $a
/cygdrive/c/Users/Chris/AppData/Local/Temp/ccKUIiqL.s:100    .text._close:00000000 _close
/cygdrive/c/Users/Chris/AppData/Local/Temp/ccKUIiqL.s:109    .text._close:00000000 $a
/cygdrive/c/Users/Chris/AppData/Local/Temp/ccKUIiqL.s:118    .text._kill:00000000 _kill
/cygdrive/c/Users/Chris/AppData/Local/Temp/ccKUIiqL.s:127    .text._kill:00000000 $a
/cygdrive/c/Users/Chris/AppData/Local/Temp/ccKUIiqL.s:136    .text._getpid:00000000 _getpid
/cygdrive/c/Users/Chris/AppData/Local/Temp/ccKUIiqL.s:145    .text._getpid:00000000 $a
/cygdrive/c/Users/Chris/AppData/Local/Temp/ccKUIiqL.s:154    .text._sbrk:00000000 _sbrk
/cygdrive/c/Users/Chris/AppData/Local/Temp/ccKUIiqL.s:163    .text._sbrk:00000000 $a
/cygdrive/c/Users/Chris/AppData/Local/Temp/ccKUIiqL.s:172    .text._fstat:00000000 _fstat
/cygdrive/c/Users/Chris/AppData/Local/Temp/ccKUIiqL.s:181    .text._fstat:00000000 $a
/cygdrive/c/Users/Chris/AppData/Local/Temp/ccKUIiqL.s:190    .text._link:00000000 _link
/cygdrive/c/Users/Chris/AppData/Local/Temp/ccKUIiqL.s:198    .text._link:00000000 $a
/cygdrive/c/Users/Chris/AppData/Local/Temp/ccKUIiqL.s:206    .text._unlink:00000000 _unlink
/cygdrive/c/Users/Chris/AppData/Local/Temp/ccKUIiqL.s:215    .text._unlink:00000000 $a
/cygdrive/c/Users/Chris/AppData/Local/Temp/ccKUIiqL.s:224    .text.isatty:00000000 isatty
/cygdrive/c/Users/Chris/AppData/Local/Temp/ccKUIiqL.s:233    .text.isatty:00000000 $a
/cygdrive/c/Users/Chris/AppData/Local/Temp/ccKUIiqL.s:242    .text.__exidx_start:00000000 __exidx_start
/cygdrive/c/Users/Chris/AppData/Local/Temp/ccKUIiqL.s:250    .text.__exidx_start:00000000 $a
/cygdrive/c/Users/Chris/AppData/Local/Temp/ccKUIiqL.s:257    .text.__exidx_end:00000000 __exidx_end
/cygdrive/c/Users/Chris/AppData/Local/Temp/ccKUIiqL.s:265    .text.__exidx_end:00000000 $a
/cygdrive/c/Users/Chris/AppData/Local/Temp/ccKUIiqL.s:272    .text.abort:00000000 abort
/cygdrive/c/Users/Chris/AppData/Local/Temp/ccKUIiqL.s:281    .text.abort:00000000 $a
/cygdrive/c/Users/Chris/AppData/Local/Temp/ccKUIiqL.s:288    .text._init:00000000 _init
/cygdrive/c/Users/Chris/AppData/Local/Temp/ccKUIiqL.s:296    .text._init:00000000 $a
/cygdrive/c/Users/Chris/AppData/Local/Temp/ccKUIiqL.s:301    .debug_frame:00000000 $d
/cygdrive/c/Users/Chris/AppData/Local/Temp/ccKUIiqL.s:457    .debug_loc:00000000 $d

NO UNDEFINED SYMBOLS
